
sbst.elf:     file format elf32-littleriscv


Disassembly of section .vectors:

00000000 <__vector_start>:
*/

.section .vectors, "ax"
.option norvc
vector_table:
	j sw_irq_handler
   0:	3160006f          	j	316 <sw_irq_handler>
	j __no_irq_handler
   4:	3020006f          	j	306 <__no_irq_handler>
	j __no_irq_handler
   8:	2fe0006f          	j	306 <__no_irq_handler>
	j __no_irq_handler
   c:	2fa0006f          	j	306 <__no_irq_handler>
	j __no_irq_handler
  10:	2f60006f          	j	306 <__no_irq_handler>
	j __no_irq_handler
  14:	2f20006f          	j	306 <__no_irq_handler>
	j __no_irq_handler
  18:	2ee0006f          	j	306 <__no_irq_handler>
	j __no_irq_handler
  1c:	2ea0006f          	j	306 <__no_irq_handler>
	j __no_irq_handler
  20:	2e60006f          	j	306 <__no_irq_handler>
	j __no_irq_handler
  24:	2e20006f          	j	306 <__no_irq_handler>
	j __no_irq_handler
  28:	2de0006f          	j	306 <__no_irq_handler>
	j __no_irq_handler
  2c:	2da0006f          	j	306 <__no_irq_handler>
	j __no_irq_handler
  30:	2d60006f          	j	306 <__no_irq_handler>
	j __no_irq_handler
  34:	2d20006f          	j	306 <__no_irq_handler>
	j __no_irq_handler
  38:	2ce0006f          	j	306 <__no_irq_handler>
	j __no_irq_handler
  3c:	2ca0006f          	j	306 <__no_irq_handler>
	j __no_irq_handler
  40:	2c60006f          	j	306 <__no_irq_handler>
	j __no_irq_handler
  44:	2c20006f          	j	306 <__no_irq_handler>
	j __no_irq_handler
  48:	2be0006f          	j	306 <__no_irq_handler>
	j __no_irq_handler
  4c:	2ba0006f          	j	306 <__no_irq_handler>
	j __no_irq_handler
  50:	2b60006f          	j	306 <__no_irq_handler>
	j __no_irq_handler
  54:	2b20006f          	j	306 <__no_irq_handler>
	j __no_irq_handler
  58:	2ae0006f          	j	306 <__no_irq_handler>
	j __no_irq_handler
  5c:	2aa0006f          	j	306 <__no_irq_handler>
	j __no_irq_handler
  60:	2a60006f          	j	306 <__no_irq_handler>
	j __no_irq_handler
  64:	2a20006f          	j	306 <__no_irq_handler>
	j __no_irq_handler
  68:	29e0006f          	j	306 <__no_irq_handler>
	j __no_irq_handler
  6c:	29a0006f          	j	306 <__no_irq_handler>
	j __no_irq_handler
  70:	2960006f          	j	306 <__no_irq_handler>
	j __no_irq_handler
  74:	2920006f          	j	306 <__no_irq_handler>
	j __no_irq_handler
  78:	28e0006f          	j	306 <__no_irq_handler>
	j verification_irq_handler
  7c:	3120006f          	j	38e <verification_irq_handler>

Disassembly of section .init:

00000080 <_start>:
.global _start
.type _start, @function

_start:
// initialize registers for simulation...
	li x1, 0
  80:	4081                	li	ra,0
	li x2, 0
  82:	4101                	li	sp,0
	li x3, 0
  84:	4181                	li	gp,0
	li x4, 0
  86:	4201                	li	tp,0
	li x5, 0
  88:	4281                	li	t0,0
	li x6, 0
  8a:	4301                	li	t1,0
	li x7, 0
  8c:	4381                	li	t2,0
	li x8, 0
  8e:	4401                	li	s0,0
	li x9, 0
  90:	4481                	li	s1,0
	li x10, 0
  92:	4501                	li	a0,0
	li x11, 0
  94:	4581                	li	a1,0
	li x12, 0
  96:	4601                	li	a2,0
	li x13, 0
  98:	4681                	li	a3,0
	li x14, 0
  9a:	4701                	li	a4,0
	li x15, 0
  9c:	4781                	li	a5,0
	li x16, 0
  9e:	4801                	li	a6,0
	li x17, 0
  a0:	4881                	li	a7,0
	li x18, 0
  a2:	4901                	li	s2,0
	li x19, 0
  a4:	4981                	li	s3,0
	li x20, 0
  a6:	4a01                	li	s4,0
	li x21, 0
  a8:	4a81                	li	s5,0
	li x22, 0
  aa:	4b01                	li	s6,0
	li x23, 0
  ac:	4b81                	li	s7,0
	li x24, 0
  ae:	4c01                	li	s8,0
	li x25, 0
  b0:	4c81                	li	s9,0
	li x26, 0
  b2:	4d01                	li	s10,0
	li x27, 0
  b4:	4d81                	li	s11,0
	li x28, 0
  b6:	4e01                	li	t3,0
	li x29, 0
  b8:	4e81                	li	t4,0
	li x30, 0
  ba:	4f01                	li	t5,0
	li x31, 0
  bc:	4f81                	li	t6,0

/* initialize global pointer */
.option push
.option norelax
1:	auipc gp, %pcrel_hi(__global_pointer$)
  be:	00200197          	auipc	gp,0x200
	addi  gp, gp, %pcrel_lo(1b)
  c2:	79218193          	addi	gp,gp,1938 # 200850 <__global_pointer$>
.option pop

/* initialize stack pointer */
	la sp, _sp
  c6:	00201117          	auipc	sp,0x201
  ca:	00a10113          	addi	sp,sp,10 # 2010d0 <_sp>

/* set vector table address */
	la a0, __vector_start
  ce:	00000517          	auipc	a0,0x0
  d2:	f3250513          	addi	a0,a0,-206 # 0 <__vector_start>
	csrw mtvec, a0
  d6:	30551073          	csrw	mtvec,a0

/* clear the bss segment */
	la a0, __bss_start
  da:	00200517          	auipc	a0,0x200
  de:	7ba50513          	addi	a0,a0,1978 # 200894 <_edata>
	la a2, __bss_end
  e2:	00200617          	auipc	a2,0x200
  e6:	7ea60613          	addi	a2,a2,2026 # 2008cc <__BSS_END__>
	sub a2, a2, a0
  ea:	8e09                	sub	a2,a2,a0
	li a1, 0
  ec:	4581                	li	a1,0
	call memset
  ee:	52d020ef          	jal	ra,2e1a <memset>

/* new-style constructors and destructors */
	la a0, __libc_fini_array
  f2:	00003517          	auipc	a0,0x3
  f6:	c7e50513          	addi	a0,a0,-898 # 2d70 <__libc_fini_array>
	call atexit
  fa:	451020ef          	jal	ra,2d4a <atexit>
	call __libc_init_array
  fe:	4bb020ef          	jal	ra,2db8 <__libc_init_array>

/* call boot-time software-based self-test */
	call _sbst_boot
 102:	2c41                	jal	392 <_sbst_boot>

/* call main */
	lw a0, 0(sp)                    /* a0 = argc */
 104:	4502                	lw	a0,0(sp)
	addi a1, sp, __SIZEOF_POINTER__ /* a1 = argv */
 106:	004c                	addi	a1,sp,4
	li a2, 0                        /* a2 = envp = NULL */
 108:	4601                	li	a2,0
	call main
 10a:	2021                	jal	112 <main>
	tail exit
 10c:	4490206f          	j	2d54 <exit>

00000110 <_fini>:
.type   _fini, @function
_init:
_fini:
 /* These don't have to do anything since we use init_array/fini_array. Prevent
    missing symbol error */
	ret
 110:	8082                	ret

Disassembly of section .text:

00000112 <main>:
#include <stdio.h>
#include <stdlib.h>

int main(int argc, char *argv[])
{
     112:	7139                	addi	sp,sp,-64
	int a[5] = { 1323, 234, 43, 545343, 1000 };
     114:	52b00793          	li	a5,1323
     118:	c23e                	sw	a5,4(sp)
     11a:	0ea00793          	li	a5,234
     11e:	c43e                	sw	a5,8(sp)
     120:	02b00793          	li	a5,43
     124:	c63e                	sw	a5,12(sp)
     126:	000857b7          	lui	a5,0x85
     12a:	23f78793          	addi	a5,a5,575 # 8523f <__TEST_RODATA_END+0x808a7>
     12e:	c83e                	sw	a5,16(sp)
     130:	3e800793          	li	a5,1000
     134:	ca3e                	sw	a5,20(sp)
	int b[5] = { 13, 2, 4, 54, 10 };
     136:	47b5                	li	a5,13
     138:	cc3e                	sw	a5,24(sp)
     13a:	4789                	li	a5,2
     13c:	ce3e                	sw	a5,28(sp)
     13e:	4791                	li	a5,4
     140:	d03e                	sw	a5,32(sp)
     142:	03600793          	li	a5,54
     146:	d23e                	sw	a5,36(sp)
     148:	47a9                	li	a5,10
     14a:	d43e                	sw	a5,40(sp)
     14c:	0048                	addi	a0,sp,4
     14e:	082c                	addi	a1,sp,24
	volatile int c[5];

	int i;

	for(i=0; i<5; i++) {
     150:	4701                	li	a4,0
     152:	005750fb          	lp.setupi	x1,5,16e <main+0x5c>
		c[i] = a[i] / b[i];
     156:	0045a68b          	p.lw	a3,4(a1!)
     15a:	0045260b          	p.lw	a2,4(a0!)
     15e:	04010813          	addi	a6,sp,64
     162:	02d64633          	div	a2,a2,a3
     166:	00271693          	slli	a3,a4,0x2
     16a:	96c2                	add	a3,a3,a6
	for(i=0; i<5; i++) {
     16c:	0705                	addi	a4,a4,1
		c[i] = a[i] / b[i];
     16e:	fec6a623          	sw	a2,-20(a3)
    /* inline assembly */
    //asm volatile("ecall");
    /* write something to stdout */
    //printf("hello mondo world!\n");
    return EXIT_SUCCESS;
}
     172:	4501                	li	a0,0
     174:	6121                	addi	sp,sp,64
     176:	8082                	ret

00000178 <unimplemented_syscall>:
#    define _fstat fstat
#    define _isatty isatty
#endif

void unimplemented_syscall()
{
     178:	000057b7          	lui	a5,0x5
     17c:	82878793          	addi	a5,a5,-2008 # 4828 <_isatty_r+0x2e>
    const char *p = "Unimplemented system call called!\n";
    while (*p)
        *(volatile int *)STDOUT_REG = *(p++);
     180:	100006b7          	lui	a3,0x10000
    while (*p)
     184:	0017c70b          	p.lbu	a4,1(a5!)
     188:	e311                	bnez	a4,18c <unimplemented_syscall+0x14>
}
     18a:	8082                	ret
        *(volatile int *)STDOUT_REG = *(p++);
     18c:	c298                	sw	a4,0(a3)
     18e:	bfdd                	j	184 <unimplemented_syscall+0xc>

00000190 <nanosleep>:

int nanosleep(const struct timespec *rqtp, struct timespec *rmtp)
{
    errno = ENOSYS;
     190:	05800713          	li	a4,88
     194:	06e1ac23          	sw	a4,120(gp) # 2008c8 <errno>
    return -1;
}
     198:	557d                	li	a0,-1
     19a:	8082                	ret

0000019c <_access>:

int _access(const char *file, int mode)
{
    errno = ENOSYS;
     19c:	05800713          	li	a4,88
     1a0:	06e1ac23          	sw	a4,120(gp) # 2008c8 <errno>
    return -1;
}
     1a4:	557d                	li	a0,-1
     1a6:	8082                	ret

000001a8 <_chdir>:

int _chdir(const char *path)
{
    errno = ENOSYS;
     1a8:	05800713          	li	a4,88
     1ac:	06e1ac23          	sw	a4,120(gp) # 2008c8 <errno>
    return -1;
}
     1b0:	557d                	li	a0,-1
     1b2:	8082                	ret

000001b4 <_chmod>:

int _chmod(const char *path, mode_t mode)
{
    errno = ENOSYS;
     1b4:	05800713          	li	a4,88
     1b8:	06e1ac23          	sw	a4,120(gp) # 2008c8 <errno>
    return -1;
}
     1bc:	557d                	li	a0,-1
     1be:	8082                	ret

000001c0 <_chown>:

int _chown(const char *path, uid_t owner, gid_t group)
{
    errno = ENOSYS;
     1c0:	05800713          	li	a4,88
     1c4:	06e1ac23          	sw	a4,120(gp) # 2008c8 <errno>
    return -1;
}
     1c8:	557d                	li	a0,-1
     1ca:	8082                	ret

000001cc <close>:

int _close(int file)
{
    return -1;
}
     1cc:	557d                	li	a0,-1
     1ce:	8082                	ret

000001d0 <_execve>:

int _execve(const char *name, char *const argv[], char *const env[])
{
    errno = ENOMEM;
     1d0:	4731                	li	a4,12
     1d2:	06e1ac23          	sw	a4,120(gp) # 2008c8 <errno>
    return -1;
}
     1d6:	557d                	li	a0,-1
     1d8:	8082                	ret

000001da <_exit>:

void _exit(int exit_status)
{
    *(volatile int *)EXIT_REG = exit_status;
     1da:	200007b7          	lui	a5,0x20000
     1de:	c3c8                	sw	a0,4(a5)
    asm volatile("wfi");
     1e0:	10500073          	wfi
}
     1e4:	8082                	ret

000001e6 <_faccessat>:

int _faccessat(int dirfd, const char *file, int mode, int flags)
{
    errno = ENOSYS;
     1e6:	05800713          	li	a4,88
     1ea:	06e1ac23          	sw	a4,120(gp) # 2008c8 <errno>
    return -1;
}
     1ee:	557d                	li	a0,-1
     1f0:	8082                	ret

000001f2 <_fork>:

int _fork(void)
{
    errno = EAGAIN;
     1f2:	472d                	li	a4,11
     1f4:	06e1ac23          	sw	a4,120(gp) # 2008c8 <errno>
    return -1;
}
     1f8:	557d                	li	a0,-1
     1fa:	8082                	ret

000001fc <fstat>:

int _fstat(int file, struct stat *st)
{
    st->st_mode = S_IFCHR;
     1fc:	6789                	lui	a5,0x2
     1fe:	c1dc                	sw	a5,4(a1)
    return 0;
    // errno = -ENOSYS;
    // return -1;
}
     200:	4501                	li	a0,0
     202:	8082                	ret

00000204 <_fstatat>:

int _fstatat(int dirfd, const char *file, struct stat *st, int flags)
{
    errno = ENOSYS;
     204:	05800713          	li	a4,88
     208:	06e1ac23          	sw	a4,120(gp) # 2008c8 <errno>
    return -1;
}
     20c:	557d                	li	a0,-1
     20e:	8082                	ret

00000210 <_ftime>:
     210:	05800713          	li	a4,88
     214:	06e1ac23          	sw	a4,120(gp) # 2008c8 <errno>
     218:	557d                	li	a0,-1
     21a:	8082                	ret

0000021c <_getcwd>:
    return -1;
}

char *_getcwd(char *buf, size_t size)
{
    errno = -ENOSYS;
     21c:	fa800713          	li	a4,-88
     220:	06e1ac23          	sw	a4,120(gp) # 2008c8 <errno>
    return NULL;
}
     224:	4501                	li	a0,0
     226:	8082                	ret

00000228 <_getpid>:

int _getpid()
{
    return 1;
}
     228:	4505                	li	a0,1
     22a:	8082                	ret

0000022c <_gettimeofday>:

int _gettimeofday(struct timeval *tp, void *tzp)
{
    errno = -ENOSYS;
     22c:	fa800713          	li	a4,-88
     230:	06e1ac23          	sw	a4,120(gp) # 2008c8 <errno>
    return -1;
}
     234:	557d                	li	a0,-1
     236:	8082                	ret

00000238 <isatty>:

int _isatty(int file)
{
    return (file == STDOUT_FILENO);
     238:	157d                	addi	a0,a0,-1
}
     23a:	00153513          	seqz	a0,a0
     23e:	8082                	ret

00000240 <_kill>:

int _kill(int pid, int sig)
{
    errno = EINVAL;
     240:	4759                	li	a4,22
     242:	06e1ac23          	sw	a4,120(gp) # 2008c8 <errno>
    return -1;
}
     246:	557d                	li	a0,-1
     248:	8082                	ret

0000024a <_link>:

int _link(const char *old_name, const char *new_name)
{
    errno = EMLINK;
     24a:	477d                	li	a4,31
     24c:	06e1ac23          	sw	a4,120(gp) # 2008c8 <errno>
    return -1;
}
     250:	557d                	li	a0,-1
     252:	8082                	ret

00000254 <lseek>:

off_t _lseek(int file, off_t ptr, int dir)
{
    return 0;
}
     254:	4501                	li	a0,0
     256:	8082                	ret

00000258 <_lstat>:
     258:	05800713          	li	a4,88
     25c:	06e1ac23          	sw	a4,120(gp) # 2008c8 <errno>
     260:	557d                	li	a0,-1
     262:	8082                	ret

00000264 <_open>:
}

int _open(const char *name, int flags, int mode)
{
    return -1;
}
     264:	557d                	li	a0,-1
     266:	8082                	ret

00000268 <_openat>:
     268:	05800713          	li	a4,88
     26c:	06e1ac23          	sw	a4,120(gp) # 2008c8 <errno>
     270:	557d                	li	a0,-1
     272:	8082                	ret

00000274 <read>:
}

ssize_t _read(int file, void *ptr, size_t len)
{
    return 0;
}
     274:	4501                	li	a0,0
     276:	8082                	ret

00000278 <_stat>:

int _stat(const char *file, struct stat *st)
{
    st->st_mode = S_IFCHR;
     278:	6789                	lui	a5,0x2
     27a:	c1dc                	sw	a5,4(a1)
    return 0;
    // errno = ENOSYS;
    // return -1;
}
     27c:	4501                	li	a0,0
     27e:	8082                	ret

00000280 <_sysconf>:

long _sysconf(int name)
{

    return -1;
}
     280:	557d                	li	a0,-1
     282:	8082                	ret

00000284 <_times>:

clock_t _times(struct tms *buf)
{
    return -1;
}
     284:	557d                	li	a0,-1
     286:	8082                	ret

00000288 <_unlink>:

int _unlink(const char *name)
{
    errno = ENOENT;
     288:	4709                	li	a4,2
     28a:	06e1ac23          	sw	a4,120(gp) # 2008c8 <errno>
    return -1;
}
     28e:	557d                	li	a0,-1
     290:	8082                	ret

00000292 <_utime>:
     292:	05800713          	li	a4,88
     296:	06e1ac23          	sw	a4,120(gp) # 2008c8 <errno>
     29a:	557d                	li	a0,-1
     29c:	8082                	ret

0000029e <_wait>:
    return -1;
}

int _wait(int *status)
{
    errno = ECHILD;
     29e:	4729                	li	a4,10
     2a0:	06e1ac23          	sw	a4,120(gp) # 2008c8 <errno>
    return -1;
}
     2a4:	557d                	li	a0,-1
     2a6:	8082                	ret

000002a8 <write>:
    if (file != STDOUT_FILENO) {
        errno = ENOSYS;
        return -1;
    }

    const void *eptr = ptr + len;
     2a8:	00c587b3          	add	a5,a1,a2
    while (ptr != eptr)
        *(volatile int *)STDOUT_REG = *(char *)(ptr++);
     2ac:	10000737          	lui	a4,0x10000
    if (file != STDOUT_FILENO) {
     2b0:	00152b63          	p.beqimm	a0,1,2c6 <write+0x1e>
        errno = ENOSYS;
     2b4:	05800713          	li	a4,88
     2b8:	06e1ac23          	sw	a4,120(gp) # 2008c8 <errno>
        return -1;
     2bc:	557d                	li	a0,-1
     2be:	8082                	ret
        *(volatile int *)STDOUT_REG = *(char *)(ptr++);
     2c0:	0015c68b          	p.lbu	a3,1(a1!)
     2c4:	c314                	sw	a3,0(a4)
    while (ptr != eptr)
     2c6:	fef59de3          	bne	a1,a5,2c0 <write+0x18>
    return len;
     2ca:	8532                	mv	a0,a2
}
     2cc:	8082                	ret

000002ce <_brk>:
extern char __heap_end[];
static char *brk = __heap_start;

int _brk(void *addr)
{
    brk = addr;
     2ce:	02a1a823          	sw	a0,48(gp) # 200880 <__SDATA_BEGIN__>
    return 0;
}
     2d2:	4501                	li	a0,0
     2d4:	8082                	ret

000002d6 <sbrk>:

void *_sbrk(ptrdiff_t incr)
{
    char *old_brk = brk;

    if (__heap_start == __heap_end) {
     2d6:	07c18593          	addi	a1,gp,124 # 2008cc <__BSS_END__>
     2da:	47c18793          	addi	a5,gp,1148 # 200ccc <__heap_end>
    char *old_brk = brk;
     2de:	0301a603          	lw	a2,48(gp) # 200880 <__SDATA_BEGIN__>
    if (__heap_start == __heap_end) {
     2e2:	02f58063          	beq	a1,a5,302 <sbrk+0x2c>
        return NULL;
    }

    if ((brk += incr) < __heap_end) {
     2e6:	00a60733          	add	a4,a2,a0
     2ea:	02e1a823          	sw	a4,48(gp) # 200880 <__SDATA_BEGIN__>
     2ee:	00f77763          	bleu	a5,a4,2fc <sbrk+0x26>
        brk += incr;
     2f2:	972a                	add	a4,a4,a0
     2f4:	02e1a823          	sw	a4,48(gp) # 200880 <__SDATA_BEGIN__>
    } else {
        brk = __heap_end;
    }
    return old_brk;
}
     2f8:	8532                	mv	a0,a2
     2fa:	8082                	ret
        brk = __heap_end;
     2fc:	02f1a823          	sw	a5,48(gp) # 200880 <__SDATA_BEGIN__>
     300:	bfe5                	j	2f8 <sbrk+0x22>
        return NULL;
     302:	4601                	li	a2,0
     304:	bfd5                	j	2f8 <sbrk+0x22>

00000306 <__no_irq_handler>:
/*	j __no_irq_handler */

.section .text.vecs
/* exception handling */
__no_irq_handler:
	la a0, no_exception_handler_msg
     306:	00004517          	auipc	a0,0x4
     30a:	5da50513          	addi	a0,a0,1498 # 48e0 <no_exception_handler_msg>
	jal ra, puts
     30e:	425020ef          	jal	ra,2f32 <puts>
	j __no_irq_handler
     312:	ff5ff06f          	j	306 <__no_irq_handler>

00000316 <sw_irq_handler>:


sw_irq_handler:
	csrr t0, mcause
     316:	342022f3          	csrr	t0,mcause
	slli t0, t0, 1  /* shift off the high bit */
     31a:	00129293          	slli	t0,t0,0x1
	srli t0, t0, 1
     31e:	0012d293          	srli	t0,t0,0x1
	li t1, 2
     322:	00200313          	li	t1,2
	beq t0, t1, handle_illegal_insn
     326:	02628c63          	beq	t0,t1,35e <handle_illegal_insn>
	li t1, 11
     32a:	00b00313          	li	t1,11
	beq t0, t1, handle_ecall
     32e:	00628863          	beq	t0,t1,33e <handle_ecall>
	li t1, 3
     332:	00300313          	li	t1,3
	beq t0, t1, handle_ebreak
     336:	00628c63          	beq	t0,t1,34e <handle_ebreak>
	j handle_unknown
     33a:	0340006f          	j	36e <handle_unknown>

0000033e <handle_ecall>:

handle_ecall:
	la a0, ecall_msg
     33e:	00004517          	auipc	a0,0x4
     342:	53c50513          	addi	a0,a0,1340 # 487a <ecall_msg>
	jal ra, puts
     346:	3ed020ef          	jal	ra,2f32 <puts>
	j end_handler
     34a:	0340006f          	j	37e <end_handler>

0000034e <handle_ebreak>:

handle_ebreak:
	la a0, ebreak_msg
     34e:	00004517          	auipc	a0,0x4
     352:	54d50513          	addi	a0,a0,1357 # 489b <ebreak_msg>
	jal ra, puts
     356:	3dd020ef          	jal	ra,2f32 <puts>
	j end_handler
     35a:	0240006f          	j	37e <end_handler>

0000035e <handle_illegal_insn>:

handle_illegal_insn:
	la a0, illegal_insn_msg
     35e:	00004517          	auipc	a0,0x4
     362:	4ed50513          	addi	a0,a0,1261 # 484b <illegal_insn_msg>
	jal ra, puts
     366:	3cd020ef          	jal	ra,2f32 <puts>
	j end_handler
     36a:	0140006f          	j	37e <end_handler>

0000036e <handle_unknown>:

handle_unknown:
	la a0, unknown_msg
     36e:	00004517          	auipc	a0,0x4
     372:	54f50513          	addi	a0,a0,1359 # 48bd <unknown_msg>
	jal ra, puts
     376:	3bd020ef          	jal	ra,2f32 <puts>
	j end_handler
     37a:	0040006f          	j	37e <end_handler>

0000037e <end_handler>:

end_handler:
	csrr a0, mepc
     37e:	34102573          	csrr	a0,mepc
	addi a0, a0, 4
     382:	00450513          	addi	a0,a0,4
	csrw mepc, a0
     386:	34151073          	csrw	mepc,a0
	mret
     38a:	30200073          	mret

0000038e <verification_irq_handler>:
/* this interrupt can be generated for verification purposes, random or when the PC is equal to a given value*/
verification_irq_handler:
	mret
     38e:	30200073          	mret

00000392 <_sbst_boot>:
	.global _sbst_boot
	.type _sbst_boot, @function

_sbst_boot:

	lui	a0, %hi(__TEST_DATA_START)
     392:	00200537          	lui	a0,0x200
	addi	a0, a0, %lo(__TEST_DATA_START)
     396:	00050513          	mv	a0,a0

	// Preserving all non-volatile registers (use section .TEST_DATA)
	sw	ra, (a0)  
     39a:	00152023          	sw	ra,0(a0) # 200000 <__TEST_DATA_START>
	sw	sp, 4(a0) 
     39e:	00252223          	sw	sp,4(a0)
	sw 	gp, 8(a0) 
     3a2:	00352423          	sw	gp,8(a0)
	sw	tp, 12(a0)
     3a6:	00452623          	sw	tp,12(a0)
	sw	s0, 16(a0)
     3aa:	c900                	sw	s0,16(a0)
	sw	s1, 20(a0)
     3ac:	c944                	sw	s1,20(a0)
	sw	s2, 24(a0)
     3ae:	01252c23          	sw	s2,24(a0)
	sw	s3, 28(a0)
     3b2:	01352e23          	sw	s3,28(a0)
	sw	s4, 32(a0)
     3b6:	03452023          	sw	s4,32(a0)
	sw	s5, 36(a0)
     3ba:	03552223          	sw	s5,36(a0)
	sw	s6, 40(a0)
     3be:	03652423          	sw	s6,40(a0)
	sw	s7, 44(a0)
     3c2:	03752623          	sw	s7,44(a0)
	sw	s8, 48(a0)
     3c6:	03852823          	sw	s8,48(a0)
	sw	s9, 52(a0)
     3ca:	03952a23          	sw	s9,52(a0)
	sw	s10, 56(a0)
     3ce:	03a52c23          	sw	s10,56(a0)
	sw	s11, 60(a0)
     3d2:	03b52e23          	sw	s11,60(a0)

	// Disabling interrupts
	csrrs t1, 0x300, zero	
     3d6:	30002373          	csrr	t1,mstatus
	ori t0, zero, 8		
     3da:	00806293          	ori	t0,zero,8
	csrrc t0, 0x300, t0	
     3de:	3002b2f3          	csrrc	t0,mstatus,t0
	la a0, interrupt
     3e2:	00200517          	auipc	a0,0x200
     3e6:	c5e50513          	addi	a0,a0,-930 # 200040 <interrupt>
	sw t1, (a0)
     3ea:	00652023          	sw	t1,0(a0)

	call _sbst_rf
     3ee:	72a020ef          	jal	ra,2b18 <_sbst_rf>
	//call _sbst_alu
	p.addRN t0, t0, t0, 12	
     3f2:	1852e2db          	p.mac.zh.zl	t0,t0,t0,a2

	// Restoring non-volatile registers
	la	a0, current_state
     3f6:	00200517          	auipc	a0,0x200
     3fa:	c0a50513          	addi	a0,a0,-1014 # 200000 <__TEST_DATA_START>
	lw	ra, (a0)  
     3fe:	00052083          	lw	ra,0(a0)
	lw	sp, 4(a0) 
     402:	00452103          	lw	sp,4(a0)
	lw 	gp, 8(a0) 
     406:	00852183          	lw	gp,8(a0)
	lw	tp, 12(a0)
     40a:	00c52203          	lw	tp,12(a0)
	lw	s0, 16(a0)
     40e:	4900                	lw	s0,16(a0)
	lw	s1, 20(a0)
     410:	4944                	lw	s1,20(a0)
	lw	s2, 24(a0)
     412:	01852903          	lw	s2,24(a0)
	lw	s3, 28(a0)
     416:	01c52983          	lw	s3,28(a0)
	lw	s4, 32(a0)
     41a:	02052a03          	lw	s4,32(a0)
	lw	s5, 36(a0)
     41e:	02452a83          	lw	s5,36(a0)
	lw	s6, 40(a0)
     422:	02852b03          	lw	s6,40(a0)
	lw	s7, 44(a0)
     426:	02c52b83          	lw	s7,44(a0)
	lw	s8, 48(a0)
     42a:	03052c03          	lw	s8,48(a0)
	lw	s9, 52(a0)
     42e:	03452c83          	lw	s9,52(a0)
	lw	s10, 56(a0)
     432:	03852d03          	lw	s10,56(a0)
	lw	s11, 60(a0)
     436:	03c52d83          	lw	s11,60(a0)

	// Restoring interrupts
	la a0, interrupt
     43a:	00200517          	auipc	a0,0x200
     43e:	c0650513          	addi	a0,a0,-1018 # 200040 <interrupt>
	lw t0, (a0)	
     442:	00052283          	lw	t0,0(a0)
	andi t0, t0, 0x0008
     446:	0082f293          	andi	t0,t0,8
	csrrc t0, 0x300, t0
     44a:	3002b2f3          	csrrc	t0,mstatus,t0
	ret
     44e:	8082                	ret

00000450 <_sbst_alu>:
	.type _sbst_alu, @function

_sbst_alu:

	// Instructions generated by atpg for the ADD operation
	li t0, 0x254e2b7e
     450:	254e32b7          	lui	t0,0x254e3
     454:	b7e28293          	addi	t0,t0,-1154 # 254e2b7e <_sp+0x252e1aae>
	li t1, 0x3b32e45d
     458:	3b32e337          	lui	t1,0x3b32e
     45c:	45d30313          	addi	t1,t1,1117 # 3b32e45d <_sp+0x3b12d38d>
	sub t2, t0, t1
     460:	406283b3          	sub	t2,t0,t1
	sw t2, 4(sp)
     464:	c21e                	sw	t2,4(sp)
	li t0, 0x9c036ab9
     466:	9c0372b7          	lui	t0,0x9c037
     46a:	ab928293          	addi	t0,t0,-1351 # 9c036ab9 <pulp__FC+0x9c036aba>
	li t1, 0xe174906c
     46e:	e1749337          	lui	t1,0xe1749
     472:	06c30313          	addi	t1,t1,108 # e174906c <pulp__FC+0xe174906d>
	sub t2, t0, t1
     476:	406283b3          	sub	t2,t0,t1
	sw t2, 4(sp)
     47a:	c21e                	sw	t2,4(sp)
	li t0, 0x2c01229c
     47c:	2c0122b7          	lui	t0,0x2c012
     480:	29c28293          	addi	t0,t0,668 # 2c01229c <_sp+0x2be111cc>
	li t1, 0x2c01f7bf
     484:	2c01f337          	lui	t1,0x2c01f
     488:	7bf30313          	addi	t1,t1,1983 # 2c01f7bf <_sp+0x2be1e6ef>
	sub t2, t0, t1
     48c:	406283b3          	sub	t2,t0,t1
	sw t2, 4(sp)
     490:	c21e                	sw	t2,4(sp)
	li t0, 0xc9ca152a
     492:	c9ca12b7          	lui	t0,0xc9ca1
     496:	52a28293          	addi	t0,t0,1322 # c9ca152a <pulp__FC+0xc9ca152b>
	li t1, 0x15853327
     49a:	15853337          	lui	t1,0x15853
     49e:	32730313          	addi	t1,t1,807 # 15853327 <_sp+0x15652257>
	sub t2, t0, t1
     4a2:	406283b3          	sub	t2,t0,t1
	sw t2, 4(sp)
     4a6:	c21e                	sw	t2,4(sp)
	li t0, 0xfacbffc6
     4a8:	facc02b7          	lui	t0,0xfacc0
     4ac:	fc628293          	addi	t0,t0,-58 # facbffc6 <pulp__FC+0xfacbffc7>
	li t1, 0xd0083002
     4b0:	d0083337          	lui	t1,0xd0083
     4b4:	00230313          	addi	t1,t1,2 # d0083002 <pulp__FC+0xd0083003>
	sub t2, t0, t1
     4b8:	406283b3          	sub	t2,t0,t1
	sw t2, 4(sp)
     4bc:	c21e                	sw	t2,4(sp)
	li t0, 0xd2c5269b
     4be:	d2c522b7          	lui	t0,0xd2c52
     4c2:	69b28293          	addi	t0,t0,1691 # d2c5269b <pulp__FC+0xd2c5269c>
	li t1, 0xe2db1cb1
     4c6:	e2db2337          	lui	t1,0xe2db2
     4ca:	cb130313          	addi	t1,t1,-847 # e2db1cb1 <pulp__FC+0xe2db1cb2>
	add t2, t0, t1
     4ce:	006283b3          	add	t2,t0,t1
	sw t2, 4(sp)
     4d2:	c21e                	sw	t2,4(sp)
	li t0, 0x489d3294
     4d4:	489d32b7          	lui	t0,0x489d3
     4d8:	29428293          	addi	t0,t0,660 # 489d3294 <_sp+0x487d21c4>
	li t1, 0x48dd92d9
     4dc:	48dd9337          	lui	t1,0x48dd9
     4e0:	2d930313          	addi	t1,t1,729 # 48dd92d9 <_sp+0x48bd8209>
	sub t2, t0, t1
     4e4:	406283b3          	sub	t2,t0,t1
	sw t2, 4(sp)
     4e8:	c21e                	sw	t2,4(sp)
	li t0, 0x3d39776e
     4ea:	3d3972b7          	lui	t0,0x3d397
     4ee:	76e28293          	addi	t0,t0,1902 # 3d39776e <_sp+0x3d19669e>
	li t1, 0xdf47878f
     4f2:	df478337          	lui	t1,0xdf478
     4f6:	78f30313          	addi	t1,t1,1935 # df47878f <pulp__FC+0xdf478790>
	add t2, t0, t1
     4fa:	006283b3          	add	t2,t0,t1
	sw t2, 4(sp)
     4fe:	c21e                	sw	t2,4(sp)
	li t0, 0xbf3345b4
     500:	bf3342b7          	lui	t0,0xbf334
     504:	5b428293          	addi	t0,t0,1460 # bf3345b4 <pulp__FC+0xbf3345b5>
	li t1, 0xe228b693
     508:	e228b337          	lui	t1,0xe228b
     50c:	69330313          	addi	t1,t1,1683 # e228b693 <pulp__FC+0xe228b694>
	sub t2, t0, t1
     510:	406283b3          	sub	t2,t0,t1
	sw t2, 4(sp)
     514:	c21e                	sw	t2,4(sp)
	li t0, 0x75a60ad4
     516:	75a612b7          	lui	t0,0x75a61
     51a:	ad428293          	addi	t0,t0,-1324 # 75a60ad4 <_sp+0x7585fa04>
	li t1, 0x75a676e5
     51e:	75a67337          	lui	t1,0x75a67
     522:	6e530313          	addi	t1,t1,1765 # 75a676e5 <_sp+0x75866615>
	sub t2, t0, t1
     526:	406283b3          	sub	t2,t0,t1
	sw t2, 4(sp)
     52a:	c21e                	sw	t2,4(sp)
	li t0, 0xd09ffc79
     52c:	d0a002b7          	lui	t0,0xd0a00
     530:	c7928293          	addi	t0,t0,-903 # d09ffc79 <pulp__FC+0xd09ffc7a>
	li t1, 0x6201ae84
     534:	6201b337          	lui	t1,0x6201b
     538:	e8430313          	addi	t1,t1,-380 # 6201ae84 <_sp+0x61e19db4>
	add t2, t0, t1
     53c:	006283b3          	add	t2,t0,t1
	sw t2, 4(sp)
     540:	c21e                	sw	t2,4(sp)
	li t0, 0x70a2542a
     542:	70a252b7          	lui	t0,0x70a25
     546:	42a28293          	addi	t0,t0,1066 # 70a2542a <_sp+0x7082435a>
	li t1, 0xf88508a8
     54a:	f8851337          	lui	t1,0xf8851
     54e:	8a830313          	addi	t1,t1,-1880 # f88508a8 <pulp__FC+0xf88508a9>
	add t2, t0, t1
     552:	006283b3          	add	t2,t0,t1
	sw t2, 4(sp)
     556:	c21e                	sw	t2,4(sp)
	li t0, 0xcefb32a
     558:	0cefb2b7          	lui	t0,0xcefb
     55c:	32a28293          	addi	t0,t0,810 # cefb32a <_sp+0xccfa25a>
	li t1, 0xc8f192a
     560:	0c8f2337          	lui	t1,0xc8f2
     564:	92a30313          	addi	t1,t1,-1750 # c8f192a <_sp+0xc6f085a>
	add t2, t0, t1
     568:	006283b3          	add	t2,t0,t1
	sw t2, 4(sp)
     56c:	c21e                	sw	t2,4(sp)
	li t0, 0xb12d68e1
     56e:	b12d72b7          	lui	t0,0xb12d7
     572:	8e128293          	addi	t0,t0,-1823 # b12d68e1 <pulp__FC+0xb12d68e2>
	li t1, 0xb12fe365
     576:	b12fe337          	lui	t1,0xb12fe
     57a:	36530313          	addi	t1,t1,869 # b12fe365 <pulp__FC+0xb12fe366>
	add t2, t0, t1
     57e:	006283b3          	add	t2,t0,t1
	sw t2, 4(sp)
     582:	c21e                	sw	t2,4(sp)
	li t0, 0xd81aea88
     584:	d81af2b7          	lui	t0,0xd81af
     588:	a8828293          	addi	t0,t0,-1400 # d81aea88 <pulp__FC+0xd81aea89>
	li t1, 0xd81aeaac
     58c:	d81af337          	lui	t1,0xd81af
     590:	aac30313          	addi	t1,t1,-1364 # d81aeaac <pulp__FC+0xd81aeaad>
	add t2, t0, t1
     594:	006283b3          	add	t2,t0,t1
	sw t2, 4(sp)
     598:	c21e                	sw	t2,4(sp)
	li t0, 0xcbf779dd
     59a:	cbf782b7          	lui	t0,0xcbf78
     59e:	9dd28293          	addi	t0,t0,-1571 # cbf779dd <pulp__FC+0xcbf779de>
	li t1, 0x2a63251a
     5a2:	2a632337          	lui	t1,0x2a632
     5a6:	51a30313          	addi	t1,t1,1306 # 2a63251a <_sp+0x2a43144a>
	sub t2, t0, t1
     5aa:	406283b3          	sub	t2,t0,t1
	sw t2, 4(sp)
     5ae:	c21e                	sw	t2,4(sp)
	li t0, 0xfff038af
     5b0:	fff042b7          	lui	t0,0xfff04
     5b4:	8af28293          	addi	t0,t0,-1873 # fff038af <pulp__FC+0xfff038b0>
	li t1, 0x14038ae
     5b8:	01404337          	lui	t1,0x1404
     5bc:	8ae30313          	addi	t1,t1,-1874 # 14038ae <_sp+0x12027de>
	sub t2, t0, t1
     5c0:	406283b3          	sub	t2,t0,t1
	sw t2, 4(sp)
     5c4:	c21e                	sw	t2,4(sp)
	li t0, 0x786efbff
     5c6:	786f02b7          	lui	t0,0x786f0
     5ca:	bff28293          	addi	t0,t0,-1025 # 786efbff <_sp+0x784eeb2f>
	li t1, 0x2ccb60a8
     5ce:	2ccb6337          	lui	t1,0x2ccb6
     5d2:	0a830313          	addi	t1,t1,168 # 2ccb60a8 <_sp+0x2cab4fd8>
	sub t2, t0, t1
     5d6:	406283b3          	sub	t2,t0,t1
	sw t2, 4(sp)
     5da:	c21e                	sw	t2,4(sp)
	li t0, 0x6d13e353
     5dc:	6d13e2b7          	lui	t0,0x6d13e
     5e0:	35328293          	addi	t0,t0,851 # 6d13e353 <_sp+0x6cf3d283>
	li t1, 0xed4d0cef
     5e4:	ed4d1337          	lui	t1,0xed4d1
     5e8:	cef30313          	addi	t1,t1,-785 # ed4d0cef <pulp__FC+0xed4d0cf0>
	sub t2, t0, t1
     5ec:	406283b3          	sub	t2,t0,t1
	sw t2, 4(sp)
     5f0:	c21e                	sw	t2,4(sp)
	li t0, 0xe2bd84ab
     5f2:	e2bd82b7          	lui	t0,0xe2bd8
     5f6:	4ab28293          	addi	t0,t0,1195 # e2bd84ab <pulp__FC+0xe2bd84ac>
	li t1, 0xe2bd84eb
     5fa:	e2bd8337          	lui	t1,0xe2bd8
     5fe:	4eb30313          	addi	t1,t1,1259 # e2bd84eb <pulp__FC+0xe2bd84ec>
	add t2, t0, t1
     602:	006283b3          	add	t2,t0,t1
	sw t2, 4(sp)
     606:	c21e                	sw	t2,4(sp)
	li t0, 0x91df6efe
     608:	91df72b7          	lui	t0,0x91df7
     60c:	efe28293          	addi	t0,t0,-258 # 91df6efe <pulp__FC+0x91df6eff>
	li t1, 0xfaad0dc1
     610:	faad1337          	lui	t1,0xfaad1
     614:	dc130313          	addi	t1,t1,-575 # faad0dc1 <pulp__FC+0xfaad0dc2>
	sub t2, t0, t1
     618:	406283b3          	sub	t2,t0,t1
	sw t2, 4(sp)
     61c:	c21e                	sw	t2,4(sp)
	li t0, 0x1a67fe88
     61e:	1a6802b7          	lui	t0,0x1a680
     622:	e8828293          	addi	t0,t0,-376 # 1a67fe88 <_sp+0x1a47edb8>
	li t1, 0x39468f05
     626:	39469337          	lui	t1,0x39469
     62a:	f0530313          	addi	t1,t1,-251 # 39468f05 <_sp+0x39267e35>
	sub t2, t0, t1
     62e:	406283b3          	sub	t2,t0,t1
	sw t2, 4(sp)
     632:	c21e                	sw	t2,4(sp)
	li t0, 0xae15382
     634:	0ae152b7          	lui	t0,0xae15
     638:	38228293          	addi	t0,t0,898 # ae15382 <_sp+0xac142b2>
	li t1, 0xae15382
     63c:	0ae15337          	lui	t1,0xae15
     640:	38230313          	addi	t1,t1,898 # ae15382 <_sp+0xac142b2>
	sub t2, t0, t1
     644:	406283b3          	sub	t2,t0,t1
	sw t2, 4(sp)
     648:	c21e                	sw	t2,4(sp)
	li t0, 0x10415f30
     64a:	104162b7          	lui	t0,0x10416
     64e:	f3028293          	addi	t0,t0,-208 # 10415f30 <_sp+0x10214e60>
	li t1, 0xe0957aa8
     652:	e0958337          	lui	t1,0xe0958
     656:	aa830313          	addi	t1,t1,-1368 # e0957aa8 <pulp__FC+0xe0957aa9>
	add t2, t0, t1
     65a:	006283b3          	add	t2,t0,t1
	sw t2, 4(sp)
     65e:	c21e                	sw	t2,4(sp)
	li t0, 0xceee025c
     660:	ceee02b7          	lui	t0,0xceee0
     664:	25c28293          	addi	t0,t0,604 # ceee025c <pulp__FC+0xceee025d>
	li t1, 0xcaeedc88
     668:	caeee337          	lui	t1,0xcaeee
     66c:	c8830313          	addi	t1,t1,-888 # caeedc88 <pulp__FC+0xcaeedc89>
	sub t2, t0, t1
     670:	406283b3          	sub	t2,t0,t1
	sw t2, 4(sp)
     674:	c21e                	sw	t2,4(sp)
	li t0, 0x3ddd94de
     676:	3ddd92b7          	lui	t0,0x3ddd9
     67a:	4de28293          	addi	t0,t0,1246 # 3ddd94de <_sp+0x3dbd840e>
	li t1, 0xf5a07d65
     67e:	f5a08337          	lui	t1,0xf5a08
     682:	d6530313          	addi	t1,t1,-667 # f5a07d65 <pulp__FC+0xf5a07d66>
	add t2, t0, t1
     686:	006283b3          	add	t2,t0,t1
	sw t2, 4(sp)
     68a:	c21e                	sw	t2,4(sp)
	li t0, 0x7076db1f
     68c:	7076e2b7          	lui	t0,0x7076e
     690:	b1f28293          	addi	t0,t0,-1249 # 7076db1f <_sp+0x7056ca4f>
	li t1, 0x7885db99
     694:	7885e337          	lui	t1,0x7885e
     698:	b9930313          	addi	t1,t1,-1127 # 7885db99 <_sp+0x7865cac9>
	sub t2, t0, t1
     69c:	406283b3          	sub	t2,t0,t1
	sw t2, 4(sp)
     6a0:	c21e                	sw	t2,4(sp)
	li t0, 0x8552c17
     6a2:	085532b7          	lui	t0,0x8553
     6a6:	c1728293          	addi	t0,t0,-1001 # 8552c17 <_sp+0x8351b47>
	li t1, 0x85541ed
     6aa:	08554337          	lui	t1,0x8554
     6ae:	1ed30313          	addi	t1,t1,493 # 85541ed <_sp+0x835311d>
	add t2, t0, t1
     6b2:	006283b3          	add	t2,t0,t1
	sw t2, 4(sp)
     6b6:	c21e                	sw	t2,4(sp)
	li t0, 0xe16ee085
     6b8:	e16ee2b7          	lui	t0,0xe16ee
     6bc:	08528293          	addi	t0,t0,133 # e16ee085 <pulp__FC+0xe16ee086>
	li t1, 0xe8377f7
     6c0:	0e837337          	lui	t1,0xe837
     6c4:	7f730313          	addi	t1,t1,2039 # e8377f7 <_sp+0xe636727>
	sub t2, t0, t1
     6c8:	406283b3          	sub	t2,t0,t1
	sw t2, 4(sp)
     6cc:	c21e                	sw	t2,4(sp)
	li t0, 0x14069784
     6ce:	140692b7          	lui	t0,0x14069
     6d2:	78428293          	addi	t0,t0,1924 # 14069784 <_sp+0x13e686b4>
	li t1, 0x736322cf
     6d6:	73632337          	lui	t1,0x73632
     6da:	2cf30313          	addi	t1,t1,719 # 736322cf <_sp+0x734311ff>
	add t2, t0, t1
     6de:	006283b3          	add	t2,t0,t1
	sw t2, 4(sp)
     6e2:	c21e                	sw	t2,4(sp)
	li t0, 0xff957fcf
     6e4:	ff9582b7          	lui	t0,0xff958
     6e8:	fcf28293          	addi	t0,t0,-49 # ff957fcf <pulp__FC+0xff957fd0>
	li t1, 0xfe95c1a3
     6ec:	fe95c337          	lui	t1,0xfe95c
     6f0:	1a330313          	addi	t1,t1,419 # fe95c1a3 <pulp__FC+0xfe95c1a4>
	add t2, t0, t1
     6f4:	006283b3          	add	t2,t0,t1
	sw t2, 4(sp)
     6f8:	c21e                	sw	t2,4(sp)
	li t0, 0x10f9b1ff
     6fa:	10f9b2b7          	lui	t0,0x10f9b
     6fe:	1ff28293          	addi	t0,t0,511 # 10f9b1ff <_sp+0x10d9a12f>
	li t1, 0xbd004000
     702:	bd004337          	lui	t1,0xbd004
	add t2, t0, t1
     706:	006283b3          	add	t2,t0,t1
	sw t2, 4(sp)
     70a:	c21e                	sw	t2,4(sp)
	li t0, 0xa5fdfccc
     70c:	a5fe02b7          	lui	t0,0xa5fe0
     710:	ccc28293          	addi	t0,t0,-820 # a5fdfccc <pulp__FC+0xa5fdfccd>
	li t1, 0x6e80a0fd
     714:	6e80a337          	lui	t1,0x6e80a
     718:	0fd30313          	addi	t1,t1,253 # 6e80a0fd <_sp+0x6e60902d>
	sub t2, t0, t1
     71c:	406283b3          	sub	t2,t0,t1
	sw t2, 4(sp)
     720:	c21e                	sw	t2,4(sp)
	li t0, 0x1befee66
     722:	1beff2b7          	lui	t0,0x1beff
     726:	e6628293          	addi	t0,t0,-410 # 1befee66 <_sp+0x1bcfdd96>
	li t1, 0x1befef66
     72a:	1beff337          	lui	t1,0x1beff
     72e:	f6630313          	addi	t1,t1,-154 # 1befef66 <_sp+0x1bcfde96>
	add t2, t0, t1
     732:	006283b3          	add	t2,t0,t1
	sw t2, 4(sp)
     736:	c21e                	sw	t2,4(sp)
	li t0, 0x5ebdef2b
     738:	5ebdf2b7          	lui	t0,0x5ebdf
     73c:	f2b28293          	addi	t0,t0,-213 # 5ebdef2b <_sp+0x5e9dde5b>
	li t1, 0x19efbbeb
     740:	19efc337          	lui	t1,0x19efc
     744:	beb30313          	addi	t1,t1,-1045 # 19efbbeb <_sp+0x19cfab1b>
	add t2, t0, t1
     748:	006283b3          	add	t2,t0,t1
	sw t2, 4(sp)
     74c:	c21e                	sw	t2,4(sp)
	li t0, 0x7cf95a64
     74e:	7cf962b7          	lui	t0,0x7cf96
     752:	a6428293          	addi	t0,t0,-1436 # 7cf95a64 <_sp+0x7cd94994>
	li t1, 0xb7ffdfc
     756:	0b800337          	lui	t1,0xb800
     75a:	dfc30313          	addi	t1,t1,-516 # b7ffdfc <_sp+0xb5fed2c>
	add t2, t0, t1
     75e:	006283b3          	add	t2,t0,t1
	sw t2, 4(sp)
     762:	c21e                	sw	t2,4(sp)
	li t0, 0x4f598f9a
     764:	4f5992b7          	lui	t0,0x4f599
     768:	f9a28293          	addi	t0,t0,-102 # 4f598f9a <_sp+0x4f397eca>
	li t1, 0x35e0505d
     76c:	35e05337          	lui	t1,0x35e05
     770:	05d30313          	addi	t1,t1,93 # 35e0505d <_sp+0x35c03f8d>
	sub t2, t0, t1
     774:	406283b3          	sub	t2,t0,t1
	sw t2, 4(sp)
     778:	c21e                	sw	t2,4(sp)
	li t0, 0xed7f955f
     77a:	ed7f92b7          	lui	t0,0xed7f9
     77e:	55f28293          	addi	t0,t0,1375 # ed7f955f <pulp__FC+0xed7f9560>
	li t1, 0x9ad81061
     782:	9ad81337          	lui	t1,0x9ad81
     786:	06130313          	addi	t1,t1,97 # 9ad81061 <pulp__FC+0x9ad81062>
	sub t2, t0, t1
     78a:	406283b3          	sub	t2,t0,t1
	sw t2, 4(sp)
     78e:	c21e                	sw	t2,4(sp)
	li t0, 0xfe46bbff
     790:	fe46c2b7          	lui	t0,0xfe46c
     794:	bff28293          	addi	t0,t0,-1025 # fe46bbff <pulp__FC+0xfe46bc00>
	li t1, 0x33a37fc7
     798:	33a38337          	lui	t1,0x33a38
     79c:	fc730313          	addi	t1,t1,-57 # 33a37fc7 <_sp+0x33836ef7>
	add t2, t0, t1
     7a0:	006283b3          	add	t2,t0,t1
	sw t2, 4(sp)
     7a4:	c21e                	sw	t2,4(sp)
	li t0, 0xb10679f
     7a6:	0b1062b7          	lui	t0,0xb106
     7aa:	79f28293          	addi	t0,t0,1951 # b10679f <_sp+0xaf056cf>
	li t1, 0xfcf30321
     7ae:	fcf30337          	lui	t1,0xfcf30
     7b2:	32130313          	addi	t1,t1,801 # fcf30321 <pulp__FC+0xfcf30322>
	add t2, t0, t1
     7b6:	006283b3          	add	t2,t0,t1
	sw t2, 4(sp)
     7ba:	c21e                	sw	t2,4(sp)
	li t0, 0x31506be4
     7bc:	315072b7          	lui	t0,0x31507
     7c0:	be428293          	addi	t0,t0,-1052 # 31506be4 <_sp+0x31305b14>
	li t1, 0x45531df
     7c4:	04553337          	lui	t1,0x4553
     7c8:	1df30313          	addi	t1,t1,479 # 45531df <_sp+0x435210f>
	sub t2, t0, t1
     7cc:	406283b3          	sub	t2,t0,t1
	sw t2, 4(sp)
     7d0:	c21e                	sw	t2,4(sp)
	li t0, 0x48f9f409
     7d2:	48f9f2b7          	lui	t0,0x48f9f
     7d6:	40928293          	addi	t0,t0,1033 # 48f9f409 <_sp+0x48d9e339>
	li t1, 0x53169eff
     7da:	5316a337          	lui	t1,0x5316a
     7de:	eff30313          	addi	t1,t1,-257 # 53169eff <_sp+0x52f68e2f>
	sub t2, t0, t1
     7e2:	406283b3          	sub	t2,t0,t1
	sw t2, 4(sp)
     7e6:	c21e                	sw	t2,4(sp)
	li t0, 0xf34c9c61
     7e8:	f34ca2b7          	lui	t0,0xf34ca
     7ec:	c6128293          	addi	t0,t0,-927 # f34c9c61 <pulp__FC+0xf34c9c62>
	li t1, 0x9b5b3ed6
     7f0:	9b5b4337          	lui	t1,0x9b5b4
     7f4:	ed630313          	addi	t1,t1,-298 # 9b5b3ed6 <pulp__FC+0x9b5b3ed7>
	sub t2, t0, t1
     7f8:	406283b3          	sub	t2,t0,t1
	sw t2, 4(sp)
     7fc:	c21e                	sw	t2,4(sp)
	li t0, 0x8055341f
     7fe:	805532b7          	lui	t0,0x80553
     802:	41f28293          	addi	t0,t0,1055 # 8055341f <pulp__FC+0x80553420>
	li t1, 0xc93370
     806:	00c93337          	lui	t1,0xc93
     80a:	37030313          	addi	t1,t1,880 # c93370 <_sp+0xa922a0>
	add t2, t0, t1
     80e:	006283b3          	add	t2,t0,t1
	sw t2, 4(sp)
     812:	c21e                	sw	t2,4(sp)
	li t0, 0xdfcb2e15
     814:	dfcb32b7          	lui	t0,0xdfcb3
     818:	e1528293          	addi	t0,t0,-491 # dfcb2e15 <pulp__FC+0xdfcb2e16>
	li t1, 0x86642d79
     81c:	86643337          	lui	t1,0x86643
     820:	d7930313          	addi	t1,t1,-647 # 86642d79 <pulp__FC+0x86642d7a>
	add t2, t0, t1
     824:	006283b3          	add	t2,t0,t1
	sw t2, 4(sp)
     828:	c21e                	sw	t2,4(sp)
	li t0, 0x4ea1fb6a
     82a:	4ea202b7          	lui	t0,0x4ea20
     82e:	b6a28293          	addi	t0,t0,-1174 # 4ea1fb6a <_sp+0x4e81ea9a>
	li t1, 0xc93c96b8
     832:	c93c9337          	lui	t1,0xc93c9
     836:	6b830313          	addi	t1,t1,1720 # c93c96b8 <pulp__FC+0xc93c96b9>
	sub t2, t0, t1
     83a:	406283b3          	sub	t2,t0,t1
	sw t2, 4(sp)
     83e:	c21e                	sw	t2,4(sp)
	li t0, 0x8a38e86c
     840:	8a38f2b7          	lui	t0,0x8a38f
     844:	86c28293          	addi	t0,t0,-1940 # 8a38e86c <pulp__FC+0x8a38e86d>
	li t1, 0xca8a5795
     848:	ca8a5337          	lui	t1,0xca8a5
     84c:	79530313          	addi	t1,t1,1941 # ca8a5795 <pulp__FC+0xca8a5796>
	sub t2, t0, t1
     850:	406283b3          	sub	t2,t0,t1
	sw t2, 4(sp)
     854:	c21e                	sw	t2,4(sp)
	li t0, 0x89942cff
     856:	899432b7          	lui	t0,0x89943
     85a:	cff28293          	addi	t0,t0,-769 # 89942cff <pulp__FC+0x89942d00>
	li t1, 0xaf4d424a
     85e:	af4d4337          	lui	t1,0xaf4d4
     862:	24a30313          	addi	t1,t1,586 # af4d424a <pulp__FC+0xaf4d424b>
	sub t2, t0, t1
     866:	406283b3          	sub	t2,t0,t1
	sw t2, 4(sp)
     86a:	c21e                	sw	t2,4(sp)
	li t0, 0xf9e9791b
     86c:	f9e982b7          	lui	t0,0xf9e98
     870:	91b28293          	addi	t0,t0,-1765 # f9e9791b <pulp__FC+0xf9e9791c>
	li t1, 0xf9e9791b
     874:	f9e98337          	lui	t1,0xf9e98
     878:	91b30313          	addi	t1,t1,-1765 # f9e9791b <pulp__FC+0xf9e9791c>
	add t2, t0, t1
     87c:	006283b3          	add	t2,t0,t1
	sw t2, 4(sp)
     880:	c21e                	sw	t2,4(sp)
	li t0, 0xc440e078
     882:	c440e2b7          	lui	t0,0xc440e
     886:	07828293          	addi	t0,t0,120 # c440e078 <pulp__FC+0xc440e079>
	li t1, 0xc440e0f8
     88a:	c440e337          	lui	t1,0xc440e
     88e:	0f830313          	addi	t1,t1,248 # c440e0f8 <pulp__FC+0xc440e0f9>
	sub t2, t0, t1
     892:	406283b3          	sub	t2,t0,t1
	sw t2, 4(sp)
     896:	c21e                	sw	t2,4(sp)
	li t0, 0x627299bb
     898:	6272a2b7          	lui	t0,0x6272a
     89c:	9bb28293          	addi	t0,t0,-1605 # 627299bb <_sp+0x625288eb>
	li t1, 0x6272b9bb
     8a0:	6272c337          	lui	t1,0x6272c
     8a4:	9bb30313          	addi	t1,t1,-1605 # 6272b9bb <_sp+0x6252a8eb>
	add t2, t0, t1
     8a8:	006283b3          	add	t2,t0,t1
	sw t2, 4(sp)
     8ac:	c21e                	sw	t2,4(sp)
	li t0, 0xa4d3769a
     8ae:	a4d372b7          	lui	t0,0xa4d37
     8b2:	69a28293          	addi	t0,t0,1690 # a4d3769a <pulp__FC+0xa4d3769b>
	li t1, 0xa4d3769e
     8b6:	a4d37337          	lui	t1,0xa4d37
     8ba:	69e30313          	addi	t1,t1,1694 # a4d3769e <pulp__FC+0xa4d3769f>
	add t2, t0, t1
     8be:	006283b3          	add	t2,t0,t1
	sw t2, 4(sp)
     8c2:	c21e                	sw	t2,4(sp)
	li t0, 0xf41fe3ec
     8c4:	f41fe2b7          	lui	t0,0xf41fe
     8c8:	3ec28293          	addi	t0,t0,1004 # f41fe3ec <pulp__FC+0xf41fe3ed>
	li t1, 0xf41fe2ec
     8cc:	f41fe337          	lui	t1,0xf41fe
     8d0:	2ec30313          	addi	t1,t1,748 # f41fe2ec <pulp__FC+0xf41fe2ed>
	sub t2, t0, t1
     8d4:	406283b3          	sub	t2,t0,t1
	sw t2, 4(sp)
     8d8:	c21e                	sw	t2,4(sp)
	li t0, 0x997a56e4
     8da:	997a52b7          	lui	t0,0x997a5
     8de:	6e428293          	addi	t0,t0,1764 # 997a56e4 <pulp__FC+0x997a56e5>
	li t1, 0x997a54e4
     8e2:	997a5337          	lui	t1,0x997a5
     8e6:	4e430313          	addi	t1,t1,1252 # 997a54e4 <pulp__FC+0x997a54e5>
	sub t2, t0, t1
     8ea:	406283b3          	sub	t2,t0,t1
	sw t2, 4(sp)
     8ee:	c21e                	sw	t2,4(sp)
	li t0, 0xade6acba
     8f0:	ade6b2b7          	lui	t0,0xade6b
     8f4:	cba28293          	addi	t0,t0,-838 # ade6acba <pulp__FC+0xade6acbb>
	li t1, 0xade62cba
     8f8:	ade63337          	lui	t1,0xade63
     8fc:	cba30313          	addi	t1,t1,-838 # ade62cba <pulp__FC+0xade62cbb>
	add t2, t0, t1
     900:	006283b3          	add	t2,t0,t1
	sw t2, 4(sp)
     904:	c21e                	sw	t2,4(sp)
	li t0, 0x34bde85b
     906:	34bdf2b7          	lui	t0,0x34bdf
     90a:	85b28293          	addi	t0,t0,-1957 # 34bde85b <_sp+0x349dd78b>
	li t1, 0x34bda85b
     90e:	34bdb337          	lui	t1,0x34bdb
     912:	85b30313          	addi	t1,t1,-1957 # 34bda85b <_sp+0x349d978b>
	sub t2, t0, t1
     916:	406283b3          	sub	t2,t0,t1
	sw t2, 4(sp)
     91a:	c21e                	sw	t2,4(sp)
	li t0, 0x3ff93cfb
     91c:	3ff942b7          	lui	t0,0x3ff94
     920:	cfb28293          	addi	t0,t0,-773 # 3ff93cfb <_sp+0x3fd92c2b>
	li t1, 0x1ff9ec3f
     924:	1ff9f337          	lui	t1,0x1ff9f
     928:	c3f30313          	addi	t1,t1,-961 # 1ff9ec3f <_sp+0x1fd9db6f>
	sub t2, t0, t1
     92c:	406283b3          	sub	t2,t0,t1
	sw t2, 4(sp)
     930:	c21e                	sw	t2,4(sp)
	li t0, 0xbe4cff3
     932:	0be4d2b7          	lui	t0,0xbe4d
     936:	ff328293          	addi	t0,t0,-13 # be4cff3 <_sp+0xbc4bf23>
	li t1, 0xbe4cfb3
     93a:	0be4d337          	lui	t1,0xbe4d
     93e:	fb330313          	addi	t1,t1,-77 # be4cfb3 <_sp+0xbc4bee3>
	add t2, t0, t1
     942:	006283b3          	add	t2,t0,t1
	sw t2, 4(sp)
     946:	c21e                	sw	t2,4(sp)
	li t0, 0x8f545191
     948:	8f5452b7          	lui	t0,0x8f545
     94c:	19128293          	addi	t0,t0,401 # 8f545191 <pulp__FC+0x8f545192>
	li t1, 0x8f5c5191
     950:	8f5c5337          	lui	t1,0x8f5c5
     954:	19130313          	addi	t1,t1,401 # 8f5c5191 <pulp__FC+0x8f5c5192>
	sub t2, t0, t1
     958:	406283b3          	sub	t2,t0,t1
	sw t2, 4(sp)
     95c:	c21e                	sw	t2,4(sp)
	li t0, 0xba097537
     95e:	ba0972b7          	lui	t0,0xba097
     962:	53728293          	addi	t0,t0,1335 # ba097537 <pulp__FC+0xba097538>
	li t1, 0xba1b7537
     966:	ba1b7337          	lui	t1,0xba1b7
     96a:	53730313          	addi	t1,t1,1335 # ba1b7537 <pulp__FC+0xba1b7538>
	sub t2, t0, t1
     96e:	406283b3          	sub	t2,t0,t1
	sw t2, 4(sp)
     972:	c21e                	sw	t2,4(sp)
	li t0, 0xbb7e7e76
     974:	bb7e82b7          	lui	t0,0xbb7e8
     978:	e7628293          	addi	t0,t0,-394 # bb7e7e76 <pulp__FC+0xbb7e7e77>
	li t1, 0xab7e7e76
     97c:	ab7e8337          	lui	t1,0xab7e8
     980:	e7630313          	addi	t1,t1,-394 # ab7e7e76 <pulp__FC+0xab7e7e77>
	add t2, t0, t1
     984:	006283b3          	add	t2,t0,t1
	sw t2, 4(sp)
     988:	c21e                	sw	t2,4(sp)
	li t0, 0x1f8999f4
     98a:	1f89a2b7          	lui	t0,0x1f89a
     98e:	9f428293          	addi	t0,t0,-1548 # 1f8999f4 <_sp+0x1f698924>
	li t1, 0x1f8999e4
     992:	1f89a337          	lui	t1,0x1f89a
     996:	9e430313          	addi	t1,t1,-1564 # 1f8999e4 <_sp+0x1f698914>
	add t2, t0, t1
     99a:	006283b3          	add	t2,t0,t1
	sw t2, 4(sp)
     99e:	c21e                	sw	t2,4(sp)
	li t0, 0x2bab16e8
     9a0:	2bab12b7          	lui	t0,0x2bab1
     9a4:	6e828293          	addi	t0,t0,1768 # 2bab16e8 <_sp+0x2b8b0618>
	li t1, 0xeaab16e8
     9a8:	eaab1337          	lui	t1,0xeaab1
     9ac:	6e830313          	addi	t1,t1,1768 # eaab16e8 <pulp__FC+0xeaab16e9>
	add t2, t0, t1
     9b0:	006283b3          	add	t2,t0,t1
	sw t2, 4(sp)
     9b4:	c21e                	sw	t2,4(sp)
	li t0, 0x7d901feb
     9b6:	7d9022b7          	lui	t0,0x7d902
     9ba:	feb28293          	addi	t0,t0,-21 # 7d901feb <_sp+0x7d700f1b>
	li t1, 0x79901feb
     9be:	79902337          	lui	t1,0x79902
     9c2:	feb30313          	addi	t1,t1,-21 # 79901feb <_sp+0x79700f1b>
	sub t2, t0, t1
     9c6:	406283b3          	sub	t2,t0,t1
	sw t2, 4(sp)
     9ca:	c21e                	sw	t2,4(sp)
	li t0, 0xe17c3060
     9cc:	e17c32b7          	lui	t0,0xe17c3
     9d0:	06028293          	addi	t0,t0,96 # e17c3060 <pulp__FC+0xe17c3061>
	li t1, 0xe37c3060
     9d4:	e37c3337          	lui	t1,0xe37c3
     9d8:	06030313          	addi	t1,t1,96 # e37c3060 <pulp__FC+0xe37c3061>
	sub t2, t0, t1
     9dc:	406283b3          	sub	t2,t0,t1
	sw t2, 4(sp)
     9e0:	c21e                	sw	t2,4(sp)
	li t0, 0x6eee4985
     9e2:	6eee52b7          	lui	t0,0x6eee5
     9e6:	98528293          	addi	t0,t0,-1659 # 6eee4985 <_sp+0x6ece38b5>
	li t1, 0xeebfce32
     9ea:	eebfd337          	lui	t1,0xeebfd
     9ee:	e3230313          	addi	t1,t1,-462 # eebfce32 <pulp__FC+0xeebfce33>
	add t2, t0, t1
     9f2:	006283b3          	add	t2,t0,t1
	sw t2, 4(sp)
     9f6:	c21e                	sw	t2,4(sp)
	li t0, 0xc4e107fd
     9f8:	c4e102b7          	lui	t0,0xc4e10
     9fc:	7fd28293          	addi	t0,t0,2045 # c4e107fd <pulp__FC+0xc4e107fe>
	li t1, 0xc461c094
     a00:	c461c337          	lui	t1,0xc461c
     a04:	09430313          	addi	t1,t1,148 # c461c094 <pulp__FC+0xc461c095>
	sub t2, t0, t1
     a08:	406283b3          	sub	t2,t0,t1
	sw t2, 4(sp)
     a0c:	c21e                	sw	t2,4(sp)
	li t0, 0xe206f23f
     a0e:	e206f2b7          	lui	t0,0xe206f
     a12:	23f28293          	addi	t0,t0,575 # e206f23f <pulp__FC+0xe206f240>
	li t1, 0xf2069ddf
     a16:	f206a337          	lui	t1,0xf206a
     a1a:	ddf30313          	addi	t1,t1,-545 # f2069ddf <pulp__FC+0xf2069de0>
	add t2, t0, t1
     a1e:	006283b3          	add	t2,t0,t1
	sw t2, 4(sp)
     a22:	c21e                	sw	t2,4(sp)
	li t0, 0x951acd94
     a24:	951ad2b7          	lui	t0,0x951ad
     a28:	d9428293          	addi	t0,t0,-620 # 951acd94 <pulp__FC+0x951acd95>
	li t1, 0xaffe9661
     a2c:	affe9337          	lui	t1,0xaffe9
     a30:	66130313          	addi	t1,t1,1633 # affe9661 <pulp__FC+0xaffe9662>
	add t2, t0, t1
     a34:	006283b3          	add	t2,t0,t1
	sw t2, 4(sp)
     a38:	c21e                	sw	t2,4(sp)
	li t0, 0xc1b73184
     a3a:	c1b732b7          	lui	t0,0xc1b73
     a3e:	18428293          	addi	t0,t0,388 # c1b73184 <pulp__FC+0xc1b73185>
	li t1, 0xc1b73186
     a42:	c1b73337          	lui	t1,0xc1b73
     a46:	18630313          	addi	t1,t1,390 # c1b73186 <pulp__FC+0xc1b73187>
	add t2, t0, t1
     a4a:	006283b3          	add	t2,t0,t1
	sw t2, 4(sp)
     a4e:	c21e                	sw	t2,4(sp)
	li t0, 0xfaec8ea4
     a50:	faec92b7          	lui	t0,0xfaec9
     a54:	ea428293          	addi	t0,t0,-348 # faec8ea4 <pulp__FC+0xfaec8ea5>
	li t1, 0xfaec8e24
     a58:	faec9337          	lui	t1,0xfaec9
     a5c:	e2430313          	addi	t1,t1,-476 # faec8e24 <pulp__FC+0xfaec8e25>
	sub t2, t0, t1
     a60:	406283b3          	sub	t2,t0,t1
	sw t2, 4(sp)
     a64:	c21e                	sw	t2,4(sp)
	li t0, 0xad6110e
     a66:	0ad612b7          	lui	t0,0xad61
     a6a:	10e28293          	addi	t0,t0,270 # ad6110e <_sp+0xab6003e>
	li t1, 0xad6150e
     a6e:	0ad61337          	lui	t1,0xad61
     a72:	50e30313          	addi	t1,t1,1294 # ad6150e <_sp+0xab6043e>
	add t2, t0, t1
     a76:	006283b3          	add	t2,t0,t1
	sw t2, 4(sp)
     a7a:	c21e                	sw	t2,4(sp)
	li t0, 0x9ebe165e
     a7c:	9ebe12b7          	lui	t0,0x9ebe1
     a80:	65e28293          	addi	t0,t0,1630 # 9ebe165e <pulp__FC+0x9ebe165f>
	li t1, 0x96be165e
     a84:	96be1337          	lui	t1,0x96be1
     a88:	65e30313          	addi	t1,t1,1630 # 96be165e <pulp__FC+0x96be165f>
	add t2, t0, t1
     a8c:	006283b3          	add	t2,t0,t1
	sw t2, 4(sp)
     a90:	c21e                	sw	t2,4(sp)
	li t0, 0xc3f6b4d2
     a92:	c3f6b2b7          	lui	t0,0xc3f6b
     a96:	4d228293          	addi	t0,t0,1234 # c3f6b4d2 <pulp__FC+0xc3f6b4d3>
	li t1, 0xc3f6b4d2
     a9a:	c3f6b337          	lui	t1,0xc3f6b
     a9e:	4d230313          	addi	t1,t1,1234 # c3f6b4d2 <pulp__FC+0xc3f6b4d3>
	add t2, t0, t1
     aa2:	006283b3          	add	t2,t0,t1
	sw t2, 4(sp)
     aa6:	c21e                	sw	t2,4(sp)
	li t0, 0x7e2d19f4
     aa8:	7e2d22b7          	lui	t0,0x7e2d2
     aac:	9f428293          	addi	t0,t0,-1548 # 7e2d19f4 <_sp+0x7e0d0924>
	li t1, 0x3f9e8486
     ab0:	3f9e8337          	lui	t1,0x3f9e8
     ab4:	48630313          	addi	t1,t1,1158 # 3f9e8486 <_sp+0x3f7e73b6>
	sub t2, t0, t1
     ab8:	406283b3          	sub	t2,t0,t1
	sw t2, 4(sp)
     abc:	c21e                	sw	t2,4(sp)
	li t0, 0x43a86ad2
     abe:	43a872b7          	lui	t0,0x43a87
     ac2:	ad228293          	addi	t0,t0,-1326 # 43a86ad2 <_sp+0x43885a02>
	li t1, 0x43a84ad2
     ac6:	43a85337          	lui	t1,0x43a85
     aca:	ad230313          	addi	t1,t1,-1326 # 43a84ad2 <_sp+0x43883a02>
	sub t2, t0, t1
     ace:	406283b3          	sub	t2,t0,t1
	sw t2, 4(sp)
     ad2:	c21e                	sw	t2,4(sp)
	li t0, 0xe3c13ab7
     ad4:	e3c142b7          	lui	t0,0xe3c14
     ad8:	ab728293          	addi	t0,t0,-1353 # e3c13ab7 <pulp__FC+0xe3c13ab8>
	li t1, 0xe3e1e532
     adc:	e3e1e337          	lui	t1,0xe3e1e
     ae0:	53230313          	addi	t1,t1,1330 # e3e1e532 <pulp__FC+0xe3e1e533>
	add t2, t0, t1
     ae4:	006283b3          	add	t2,t0,t1
	sw t2, 4(sp)
     ae8:	c21e                	sw	t2,4(sp)
	li t0, 0x37254a19
     aea:	372552b7          	lui	t0,0x37255
     aee:	a1928293          	addi	t0,t0,-1511 # 37254a19 <_sp+0x37053949>
	li t1, 0x3721bddb
     af2:	3721c337          	lui	t1,0x3721c
     af6:	ddb30313          	addi	t1,t1,-549 # 3721bddb <_sp+0x3701ad0b>
	sub t2, t0, t1
     afa:	406283b3          	sub	t2,t0,t1
	sw t2, 4(sp)
     afe:	c21e                	sw	t2,4(sp)
	li t0, 0xb252fc97
     b00:	b25302b7          	lui	t0,0xb2530
     b04:	c9728293          	addi	t0,t0,-873 # b252fc97 <pulp__FC+0xb252fc98>
	li t1, 0xb2128009
     b08:	b2128337          	lui	t1,0xb2128
     b0c:	00930313          	addi	t1,t1,9 # b2128009 <pulp__FC+0xb212800a>
	add t2, t0, t1
     b10:	006283b3          	add	t2,t0,t1
	sw t2, 4(sp)
     b14:	c21e                	sw	t2,4(sp)
	li t0, 0xf6bf7e43
     b16:	f6bf82b7          	lui	t0,0xf6bf8
     b1a:	e4328293          	addi	t0,t0,-445 # f6bf7e43 <pulp__FC+0xf6bf7e44>
	li t1, 0xf6bed004
     b1e:	f6bed337          	lui	t1,0xf6bed
     b22:	00430313          	addi	t1,t1,4 # f6bed004 <pulp__FC+0xf6bed005>
	add t2, t0, t1
     b26:	006283b3          	add	t2,t0,t1
	sw t2, 4(sp)
     b2a:	c21e                	sw	t2,4(sp)
	li t0, 0x3be7c37a
     b2c:	3be7c2b7          	lui	t0,0x3be7c
     b30:	37a28293          	addi	t0,t0,890 # 3be7c37a <_sp+0x3bc7b2aa>
	li t1, 0x3be7c37a
     b34:	3be7c337          	lui	t1,0x3be7c
     b38:	37a30313          	addi	t1,t1,890 # 3be7c37a <_sp+0x3bc7b2aa>
	add t2, t0, t1
     b3c:	006283b3          	add	t2,t0,t1
	sw t2, 4(sp)
     b40:	c21e                	sw	t2,4(sp)
	li t0, 0xc0acf800
     b42:	c0ad02b7          	lui	t0,0xc0ad0
     b46:	80028293          	addi	t0,t0,-2048 # c0acf800 <pulp__FC+0xc0acf801>
	li t1, 0xc0ace800
     b4a:	c0acf337          	lui	t1,0xc0acf
     b4e:	80030313          	addi	t1,t1,-2048 # c0ace800 <pulp__FC+0xc0ace801>
	sub t2, t0, t1
     b52:	406283b3          	sub	t2,t0,t1
	sw t2, 4(sp)
     b56:	c21e                	sw	t2,4(sp)
	li t0, 0x6c9bd2e9
     b58:	6c9bd2b7          	lui	t0,0x6c9bd
     b5c:	2e928293          	addi	t0,t0,745 # 6c9bd2e9 <_sp+0x6c7bc219>
	li t1, 0x6c99334a
     b60:	6c993337          	lui	t1,0x6c993
     b64:	34a30313          	addi	t1,t1,842 # 6c99334a <_sp+0x6c79227a>
	sub t2, t0, t1
     b68:	406283b3          	sub	t2,t0,t1
	sw t2, 4(sp)
     b6c:	c21e                	sw	t2,4(sp)
	li t0, 0xf4c6977
     b6e:	0f4c72b7          	lui	t0,0xf4c7
     b72:	97728293          	addi	t0,t0,-1673 # f4c6977 <_sp+0xf2c58a7>
	li t1, 0xf5c99a5
     b76:	0f5ca337          	lui	t1,0xf5ca
     b7a:	9a530313          	addi	t1,t1,-1627 # f5c99a5 <_sp+0xf3c88d5>
	add t2, t0, t1
     b7e:	006283b3          	add	t2,t0,t1
	sw t2, 4(sp)
     b82:	c21e                	sw	t2,4(sp)
	li t0, 0xffffffff
     b84:	fff00293          	li	t0,-1
	li t1, 0xc6528cd2
     b88:	c6529337          	lui	t1,0xc6529
     b8c:	cd230313          	addi	t1,t1,-814 # c6528cd2 <pulp__FC+0xc6528cd3>
	sub t2, t0, t1
     b90:	406283b3          	sub	t2,t0,t1
	sw t2, 4(sp)
     b94:	c21e                	sw	t2,4(sp)
	li t0, 0xd01e0d39
     b96:	d01e12b7          	lui	t0,0xd01e1
     b9a:	d3928293          	addi	t0,t0,-711 # d01e0d39 <pulp__FC+0xd01e0d3a>
	li t1, 0xd01e0d19
     b9e:	d01e1337          	lui	t1,0xd01e1
     ba2:	d1930313          	addi	t1,t1,-743 # d01e0d19 <pulp__FC+0xd01e0d1a>
	add t2, t0, t1
     ba6:	006283b3          	add	t2,t0,t1
	sw t2, 4(sp)
     baa:	c21e                	sw	t2,4(sp)
	li t0, 0x652517fd
     bac:	652512b7          	lui	t0,0x65251
     bb0:	7fd28293          	addi	t0,t0,2045 # 652517fd <_sp+0x6505072d>
	li t1, 0x652517fc
     bb4:	65251337          	lui	t1,0x65251
     bb8:	7fc30313          	addi	t1,t1,2044 # 652517fc <_sp+0x6505072c>
	add t2, t0, t1
     bbc:	006283b3          	add	t2,t0,t1
	sw t2, 4(sp)
     bc0:	c21e                	sw	t2,4(sp)
	li t0, 0x2f035cf9
     bc2:	2f0362b7          	lui	t0,0x2f036
     bc6:	cf928293          	addi	t0,t0,-775 # 2f035cf9 <_sp+0x2ee34c29>
	li t1, 0xbb838bdc
     bca:	bb839337          	lui	t1,0xbb839
     bce:	bdc30313          	addi	t1,t1,-1060 # bb838bdc <pulp__FC+0xbb838bdd>
	add t2, t0, t1
     bd2:	006283b3          	add	t2,t0,t1
	sw t2, 4(sp)
     bd6:	c21e                	sw	t2,4(sp)
	li t0, 0x2a8ffde7
     bd8:	2a9002b7          	lui	t0,0x2a900
     bdc:	de728293          	addi	t0,t0,-537 # 2a8ffde7 <_sp+0x2a6fed17>
	li t1, 0x404f5962
     be0:	404f6337          	lui	t1,0x404f6
     be4:	96230313          	addi	t1,t1,-1694 # 404f5962 <_sp+0x402f4892>
	add t2, t0, t1
     be8:	006283b3          	add	t2,t0,t1
	sw t2, 4(sp)
     bec:	c21e                	sw	t2,4(sp)
	li t0, 0x1547fe7f
     bee:	154802b7          	lui	t0,0x15480
     bf2:	e7f28293          	addi	t0,t0,-385 # 1547fe7f <_sp+0x1527edaf>
	li t1, 0xd027acf3
     bf6:	d027b337          	lui	t1,0xd027b
     bfa:	cf330313          	addi	t1,t1,-781 # d027acf3 <pulp__FC+0xd027acf4>
	add t2, t0, t1
     bfe:	006283b3          	add	t2,t0,t1
	sw t2, 4(sp)
     c02:	c21e                	sw	t2,4(sp)
	li t0, 0x1708acf2
     c04:	1708b2b7          	lui	t0,0x1708b
     c08:	cf228293          	addi	t0,t0,-782 # 1708acf2 <_sp+0x16e89c22>
	li t1, 0xb51d4abc
     c0c:	b51d5337          	lui	t1,0xb51d5
     c10:	abc30313          	addi	t1,t1,-1348 # b51d4abc <pulp__FC+0xb51d4abd>
	sub t2, t0, t1
     c14:	406283b3          	sub	t2,t0,t1
	sw t2, 4(sp)
     c18:	c21e                	sw	t2,4(sp)
	li t0, 0xdbd6d779
     c1a:	dbd6d2b7          	lui	t0,0xdbd6d
     c1e:	77928293          	addi	t0,t0,1913 # dbd6d779 <pulp__FC+0xdbd6d77a>
	li t1, 0x4acea55e
     c22:	4acea337          	lui	t1,0x4acea
     c26:	55e30313          	addi	t1,t1,1374 # 4acea55e <_sp+0x4aae948e>
	sub t2, t0, t1
     c2a:	406283b3          	sub	t2,t0,t1
	sw t2, 4(sp)
     c2e:	c21e                	sw	t2,4(sp)
	li t0, 0x5a6666fe
     c30:	5a6662b7          	lui	t0,0x5a666
     c34:	6fe28293          	addi	t0,t0,1790 # 5a6666fe <_sp+0x5a46562e>
	li t1, 0x5a6666ff
     c38:	5a666337          	lui	t1,0x5a666
     c3c:	6ff30313          	addi	t1,t1,1791 # 5a6666ff <_sp+0x5a46562f>
	sub t2, t0, t1
     c40:	406283b3          	sub	t2,t0,t1
	sw t2, 4(sp)
     c44:	c21e                	sw	t2,4(sp)
	li t0, 0xe56b12a1
     c46:	e56b12b7          	lui	t0,0xe56b1
     c4a:	2a128293          	addi	t0,t0,673 # e56b12a1 <pulp__FC+0xe56b12a2>
	li t1, 0xe56b12a1
     c4e:	e56b1337          	lui	t1,0xe56b1
     c52:	2a130313          	addi	t1,t1,673 # e56b12a1 <pulp__FC+0xe56b12a2>
	add t2, t0, t1
     c56:	006283b3          	add	t2,t0,t1
	sw t2, 4(sp)
     c5a:	c21e                	sw	t2,4(sp)
	li t0, 0x403ba716
     c5c:	403ba2b7          	lui	t0,0x403ba
     c60:	71628293          	addi	t0,t0,1814 # 403ba716 <_sp+0x401b9646>
	li t1, 0x40bb39c9
     c64:	40bb4337          	lui	t1,0x40bb4
     c68:	9c930313          	addi	t1,t1,-1591 # 40bb39c9 <_sp+0x409b28f9>
	add t2, t0, t1
     c6c:	006283b3          	add	t2,t0,t1
	sw t2, 4(sp)
     c70:	c21e                	sw	t2,4(sp)
	li t0, 0x61ee2bac
     c72:	61ee32b7          	lui	t0,0x61ee3
     c76:	bac28293          	addi	t0,t0,-1108 # 61ee2bac <_sp+0x61ce1adc>
	li t1, 0x61ee3bac
     c7a:	61ee4337          	lui	t1,0x61ee4
     c7e:	bac30313          	addi	t1,t1,-1108 # 61ee3bac <_sp+0x61ce2adc>
	sub t2, t0, t1
     c82:	406283b3          	sub	t2,t0,t1
	sw t2, 4(sp)
     c86:	c21e                	sw	t2,4(sp)
	li t0, 0x41363037
     c88:	413632b7          	lui	t0,0x41363
     c8c:	03728293          	addi	t0,t0,55 # 41363037 <_sp+0x41161f67>
	li t1, 0x41363837
     c90:	41364337          	lui	t1,0x41364
     c94:	83730313          	addi	t1,t1,-1993 # 41363837 <_sp+0x41162767>
	add t2, t0, t1
     c98:	006283b3          	add	t2,t0,t1
	sw t2, 4(sp)
     c9c:	c21e                	sw	t2,4(sp)
	li t0, 0xdb461e79
     c9e:	db4622b7          	lui	t0,0xdb462
     ca2:	e7928293          	addi	t0,t0,-391 # db461e79 <pulp__FC+0xdb461e7a>
	li t1, 0xdb461679
     ca6:	db461337          	lui	t1,0xdb461
     caa:	67930313          	addi	t1,t1,1657 # db461679 <pulp__FC+0xdb46167a>
	sub t2, t0, t1
     cae:	406283b3          	sub	t2,t0,t1
	sw t2, 4(sp)
     cb2:	c21e                	sw	t2,4(sp)
	li t0, 0xd78bb66a
     cb4:	d78bb2b7          	lui	t0,0xd78bb
     cb8:	66a28293          	addi	t0,t0,1642 # d78bb66a <pulp__FC+0xd78bb66b>
	li t1, 0xd78bf66a
     cbc:	d78bf337          	lui	t1,0xd78bf
     cc0:	66a30313          	addi	t1,t1,1642 # d78bf66a <pulp__FC+0xd78bf66b>
	add t2, t0, t1
     cc4:	006283b3          	add	t2,t0,t1
	sw t2, 4(sp)
     cc8:	c21e                	sw	t2,4(sp)
	li t0, 0x51c3ee34
     cca:	51c3f2b7          	lui	t0,0x51c3f
     cce:	e3428293          	addi	t0,t0,-460 # 51c3ee34 <_sp+0x51a3dd64>
	li t1, 0x51c3ee3c
     cd2:	51c3f337          	lui	t1,0x51c3f
     cd6:	e3c30313          	addi	t1,t1,-452 # 51c3ee3c <_sp+0x51a3dd6c>
	add t2, t0, t1
     cda:	006283b3          	add	t2,t0,t1
	sw t2, 4(sp)
     cde:	c21e                	sw	t2,4(sp)
	li t0, 0xcb5138b7
     ce0:	cb5142b7          	lui	t0,0xcb514
     ce4:	8b728293          	addi	t0,t0,-1865 # cb5138b7 <pulp__FC+0xcb5138b8>
	li t1, 0xcb5138b3
     ce8:	cb514337          	lui	t1,0xcb514
     cec:	8b330313          	addi	t1,t1,-1869 # cb5138b3 <pulp__FC+0xcb5138b4>
	add t2, t0, t1
     cf0:	006283b3          	add	t2,t0,t1
	sw t2, 4(sp)
     cf4:	c21e                	sw	t2,4(sp)
	
	//xor and or
	li t0, 0x6695b85a
     cf6:	6695c2b7          	lui	t0,0x6695c
     cfa:	85a28293          	addi	t0,t0,-1958 # 6695b85a <_sp+0x6675a78a>
	li t1, 0x667c9cd8
     cfe:	667ca337          	lui	t1,0x667ca
     d02:	cd830313          	addi	t1,t1,-808 # 667c9cd8 <_sp+0x665c8c08>
	xor t2, t0, t1
     d06:	0062c3b3          	xor	t2,t0,t1
	sw t2, 4(sp)
     d0a:	c21e                	sw	t2,4(sp)
	li t0, 0xdc4757d1
     d0c:	dc4752b7          	lui	t0,0xdc475
     d10:	7d128293          	addi	t0,t0,2001 # dc4757d1 <pulp__FC+0xdc4757d2>
	li t1, 0xd8472014
     d14:	d8472337          	lui	t1,0xd8472
     d18:	01430313          	addi	t1,t1,20 # d8472014 <pulp__FC+0xd8472015>
	or t2, t0, t1
     d1c:	0062e3b3          	or	t2,t0,t1
	sw t2, 4(sp)
     d20:	c21e                	sw	t2,4(sp)
	li t0, 0x43b8fd2c
     d22:	43b902b7          	lui	t0,0x43b90
     d26:	d2c28293          	addi	t0,t0,-724 # 43b8fd2c <_sp+0x4398ec5c>
	li t1, 0xa8015389
     d2a:	a8015337          	lui	t1,0xa8015
     d2e:	38930313          	addi	t1,t1,905 # a8015389 <pulp__FC+0xa801538a>
	or t2, t0, t1
     d32:	0062e3b3          	or	t2,t0,t1
	sw t2, 4(sp)
     d36:	c21e                	sw	t2,4(sp)
	li t0, 0x7eeb218d
     d38:	7eeb22b7          	lui	t0,0x7eeb2
     d3c:	18d28293          	addi	t0,t0,397 # 7eeb218d <_sp+0x7ecb10bd>
	li t1, 0x83f9e0f1
     d40:	83f9e337          	lui	t1,0x83f9e
     d44:	0f130313          	addi	t1,t1,241 # 83f9e0f1 <pulp__FC+0x83f9e0f2>
	xor t2, t0, t1
     d48:	0062c3b3          	xor	t2,t0,t1
	sw t2, 4(sp)
     d4c:	c21e                	sw	t2,4(sp)
	li t0, 0xa0000002
     d4e:	a00002b7          	lui	t0,0xa0000
     d52:	00228293          	addi	t0,t0,2 # a0000002 <pulp__FC+0xa0000003>
	li t1, 0x630a9b8
     d56:	0630b337          	lui	t1,0x630b
     d5a:	9b830313          	addi	t1,t1,-1608 # 630a9b8 <_sp+0x61098e8>
	or t2, t0, t1
     d5e:	0062e3b3          	or	t2,t0,t1
	sw t2, 4(sp)
     d62:	c21e                	sw	t2,4(sp)
	li t0, 0xfdfe8ff7
     d64:	fdfe92b7          	lui	t0,0xfdfe9
     d68:	ff728293          	addi	t0,t0,-9 # fdfe8ff7 <pulp__FC+0xfdfe8ff8>
	li t1, 0xfb3ed796
     d6c:	fb3ed337          	lui	t1,0xfb3ed
     d70:	79630313          	addi	t1,t1,1942 # fb3ed796 <pulp__FC+0xfb3ed797>
	xor t2, t0, t1
     d74:	0062c3b3          	xor	t2,t0,t1
	sw t2, 4(sp)
     d78:	c21e                	sw	t2,4(sp)
	li t0, 0xddea8110
     d7a:	ddea82b7          	lui	t0,0xddea8
     d7e:	11028293          	addi	t0,t0,272 # ddea8110 <pulp__FC+0xddea8111>
	li t1, 0xddea0a01
     d82:	ddea1337          	lui	t1,0xddea1
     d86:	a0130313          	addi	t1,t1,-1535 # ddea0a01 <pulp__FC+0xddea0a02>
	or t2, t0, t1
     d8a:	0062e3b3          	or	t2,t0,t1
	sw t2, 4(sp)
     d8e:	c21e                	sw	t2,4(sp)
	li t0, 0xffe69000
     d90:	ffe692b7          	lui	t0,0xffe69
	li t1, 0xff289442
     d94:	ff289337          	lui	t1,0xff289
     d98:	44230313          	addi	t1,t1,1090 # ff289442 <pulp__FC+0xff289443>
	or t2, t0, t1
     d9c:	0062e3b3          	or	t2,t0,t1
	sw t2, 4(sp)
     da0:	c21e                	sw	t2,4(sp)
	li t0, 0x856a9925
     da2:	856aa2b7          	lui	t0,0x856aa
     da6:	92528293          	addi	t0,t0,-1755 # 856a9925 <pulp__FC+0x856a9926>
	li t1, 0x9a77a727
     daa:	9a77a337          	lui	t1,0x9a77a
     dae:	72730313          	addi	t1,t1,1831 # 9a77a727 <pulp__FC+0x9a77a728>
	xor t2, t0, t1
     db2:	0062c3b3          	xor	t2,t0,t1
	sw t2, 4(sp)
     db6:	c21e                	sw	t2,4(sp)
	li t0, 0xa8b1dcca
     db8:	a8b1e2b7          	lui	t0,0xa8b1e
     dbc:	cca28293          	addi	t0,t0,-822 # a8b1dcca <pulp__FC+0xa8b1dccb>
	li t1, 0xb82edc02
     dc0:	b82ee337          	lui	t1,0xb82ee
     dc4:	c0230313          	addi	t1,t1,-1022 # b82edc02 <pulp__FC+0xb82edc03>
	or t2, t0, t1
     dc8:	0062e3b3          	or	t2,t0,t1
	sw t2, 4(sp)
     dcc:	c21e                	sw	t2,4(sp)
	li t0, 0x2b5ce728
     dce:	2b5ce2b7          	lui	t0,0x2b5ce
     dd2:	72828293          	addi	t0,t0,1832 # 2b5ce728 <_sp+0x2b3cd658>
	li t1, 0x2b5ed728
     dd6:	2b5ed337          	lui	t1,0x2b5ed
     dda:	72830313          	addi	t1,t1,1832 # 2b5ed728 <_sp+0x2b3ec658>
	or t2, t0, t1
     dde:	0062e3b3          	or	t2,t0,t1
	sw t2, 4(sp)
     de2:	c21e                	sw	t2,4(sp)
	li t0, 0xa5302e79
     de4:	a53032b7          	lui	t0,0xa5303
     de8:	e7928293          	addi	t0,t0,-391 # a5302e79 <pulp__FC+0xa5302e7a>
	li t1, 0x25c4d379
     dec:	25c4d337          	lui	t1,0x25c4d
     df0:	37930313          	addi	t1,t1,889 # 25c4d379 <_sp+0x25a4c2a9>
	or t2, t0, t1
     df4:	0062e3b3          	or	t2,t0,t1
	sw t2, 4(sp)
     df8:	c21e                	sw	t2,4(sp)
	li t0, 0xff09d27e
     dfa:	ff09d2b7          	lui	t0,0xff09d
     dfe:	27e28293          	addi	t0,t0,638 # ff09d27e <pulp__FC+0xff09d27f>
	li t1, 0xbf8f112b
     e02:	bf8f1337          	lui	t1,0xbf8f1
     e06:	12b30313          	addi	t1,t1,299 # bf8f112b <pulp__FC+0xbf8f112c>
	xor t2, t0, t1
     e0a:	0062c3b3          	xor	t2,t0,t1
	sw t2, 4(sp)
     e0e:	c21e                	sw	t2,4(sp)
	li t0, 0xea2c30ab
     e10:	ea2c32b7          	lui	t0,0xea2c3
     e14:	0ab28293          	addi	t0,t0,171 # ea2c30ab <pulp__FC+0xea2c30ac>
	li t1, 0xf5f89924
     e18:	f5f8a337          	lui	t1,0xf5f8a
     e1c:	92430313          	addi	t1,t1,-1756 # f5f89924 <pulp__FC+0xf5f89925>
	xor t2, t0, t1
     e20:	0062c3b3          	xor	t2,t0,t1
	sw t2, 4(sp)
     e24:	c21e                	sw	t2,4(sp)
	li t0, 0x472ef06f
     e26:	472ef2b7          	lui	t0,0x472ef
     e2a:	06f28293          	addi	t0,t0,111 # 472ef06f <_sp+0x470edf9f>
	li t1, 0x472ef06f
     e2e:	472ef337          	lui	t1,0x472ef
     e32:	06f30313          	addi	t1,t1,111 # 472ef06f <_sp+0x470edf9f>
	xor t2, t0, t1
     e36:	0062c3b3          	xor	t2,t0,t1
	sw t2, 4(sp)
     e3a:	c21e                	sw	t2,4(sp)
	li t0, 0x74caa722
     e3c:	74caa2b7          	lui	t0,0x74caa
     e40:	72228293          	addi	t0,t0,1826 # 74caa722 <_sp+0x74aa9652>
	li t1, 0x95caa722
     e44:	95caa337          	lui	t1,0x95caa
     e48:	72230313          	addi	t1,t1,1826 # 95caa722 <pulp__FC+0x95caa723>
	or t2, t0, t1
     e4c:	0062e3b3          	or	t2,t0,t1
	sw t2, 4(sp)
     e50:	c21e                	sw	t2,4(sp)
	li t0, 0x862dcc9a
     e52:	862dd2b7          	lui	t0,0x862dd
     e56:	c9a28293          	addi	t0,t0,-870 # 862dcc9a <pulp__FC+0x862dcc9b>
	li t1, 0x862d8c9a
     e5a:	862d9337          	lui	t1,0x862d9
     e5e:	c9a30313          	addi	t1,t1,-870 # 862d8c9a <pulp__FC+0x862d8c9b>
	xor t2, t0, t1
     e62:	0062c3b3          	xor	t2,t0,t1
	sw t2, 4(sp)
     e66:	c21e                	sw	t2,4(sp)
	li t0, 0xfc632765
     e68:	fc6322b7          	lui	t0,0xfc632
     e6c:	76528293          	addi	t0,t0,1893 # fc632765 <pulp__FC+0xfc632766>
	li t1, 0xfc632765
     e70:	fc632337          	lui	t1,0xfc632
     e74:	76530313          	addi	t1,t1,1893 # fc632765 <pulp__FC+0xfc632766>
	xor t2, t0, t1
     e78:	0062c3b3          	xor	t2,t0,t1
	sw t2, 4(sp)
     e7c:	c21e                	sw	t2,4(sp)
	li t0, 0xc4a864d5
     e7e:	c4a862b7          	lui	t0,0xc4a86
     e82:	4d528293          	addi	t0,t0,1237 # c4a864d5 <pulp__FC+0xc4a864d6>
	li t1, 0xc4a865d5
     e86:	c4a86337          	lui	t1,0xc4a86
     e8a:	5d530313          	addi	t1,t1,1493 # c4a865d5 <pulp__FC+0xc4a865d6>
	xor t2, t0, t1
     e8e:	0062c3b3          	xor	t2,t0,t1
	sw t2, 4(sp)
     e92:	c21e                	sw	t2,4(sp)
	li t0, 0x608acd65
     e94:	608ad2b7          	lui	t0,0x608ad
     e98:	d6528293          	addi	t0,t0,-667 # 608acd65 <_sp+0x606abc95>
	li t1, 0x608acf65
     e9c:	608ad337          	lui	t1,0x608ad
     ea0:	f6530313          	addi	t1,t1,-155 # 608acf65 <_sp+0x606abe95>
	or t2, t0, t1
     ea4:	0062e3b3          	or	t2,t0,t1
	sw t2, 4(sp)
     ea8:	c21e                	sw	t2,4(sp)
	li t0, 0x9ca3a16d
     eaa:	9ca3a2b7          	lui	t0,0x9ca3a
     eae:	16d28293          	addi	t0,t0,365 # 9ca3a16d <pulp__FC+0x9ca3a16e>
	li t1, 0x9ca3e16d
     eb2:	9ca3e337          	lui	t1,0x9ca3e
     eb6:	16d30313          	addi	t1,t1,365 # 9ca3e16d <pulp__FC+0x9ca3e16e>
	or t2, t0, t1
     eba:	0062e3b3          	or	t2,t0,t1
	sw t2, 4(sp)
     ebe:	c21e                	sw	t2,4(sp)
	li t0, 0xdbd53e6d
     ec0:	dbd542b7          	lui	t0,0xdbd54
     ec4:	e6d28293          	addi	t0,t0,-403 # dbd53e6d <pulp__FC+0xdbd53e6e>
	li t1, 0xfbd588f5
     ec8:	fbd59337          	lui	t1,0xfbd59
     ecc:	8f530313          	addi	t1,t1,-1803 # fbd588f5 <pulp__FC+0xfbd588f6>
	xor t2, t0, t1
     ed0:	0062c3b3          	xor	t2,t0,t1
	sw t2, 4(sp)
     ed4:	c21e                	sw	t2,4(sp)
	li t0, 0xea994b4c
     ed6:	ea9952b7          	lui	t0,0xea995
     eda:	b4c28293          	addi	t0,t0,-1204 # ea994b4c <pulp__FC+0xea994b4d>
	li t1, 0xeb99148b
     ede:	eb991337          	lui	t1,0xeb991
     ee2:	48b30313          	addi	t1,t1,1163 # eb99148b <pulp__FC+0xeb99148c>
	xor t2, t0, t1
     ee6:	0062c3b3          	xor	t2,t0,t1
	sw t2, 4(sp)
     eea:	c21e                	sw	t2,4(sp)
	li t0, 0xc0280974
     eec:	c02812b7          	lui	t0,0xc0281
     ef0:	97428293          	addi	t0,t0,-1676 # c0280974 <pulp__FC+0xc0280975>
	li t1, 0xc0282974
     ef4:	c0283337          	lui	t1,0xc0283
     ef8:	97430313          	addi	t1,t1,-1676 # c0282974 <pulp__FC+0xc0282975>
	or t2, t0, t1
     efc:	0062e3b3          	or	t2,t0,t1
	sw t2, 4(sp)
     f00:	c21e                	sw	t2,4(sp)
	li t0, 0xf3e7a3e1
     f02:	f3e7a2b7          	lui	t0,0xf3e7a
     f06:	3e128293          	addi	t0,t0,993 # f3e7a3e1 <pulp__FC+0xf3e7a3e2>
	li t1, 0xf3e7a3a1
     f0a:	f3e7a337          	lui	t1,0xf3e7a
     f0e:	3a130313          	addi	t1,t1,929 # f3e7a3a1 <pulp__FC+0xf3e7a3a2>
	xor t2, t0, t1
     f12:	0062c3b3          	xor	t2,t0,t1
	sw t2, 4(sp)
     f16:	c21e                	sw	t2,4(sp)
	li t0, 0x5bc8db03
     f18:	5bc8e2b7          	lui	t0,0x5bc8e
     f1c:	b0328293          	addi	t0,t0,-1277 # 5bc8db03 <_sp+0x5ba8ca33>
	li t1, 0x5bc8db83
     f20:	5bc8e337          	lui	t1,0x5bc8e
     f24:	b8330313          	addi	t1,t1,-1149 # 5bc8db83 <_sp+0x5ba8cab3>
	or t2, t0, t1
     f28:	0062e3b3          	or	t2,t0,t1
	sw t2, 4(sp)
     f2c:	c21e                	sw	t2,4(sp)
	li t0, 0xfd63376b
     f2e:	fd6332b7          	lui	t0,0xfd633
     f32:	76b28293          	addi	t0,t0,1899 # fd63376b <pulp__FC+0xfd63376c>
	li t1, 0xfd63376a
     f36:	fd633337          	lui	t1,0xfd633
     f3a:	76a30313          	addi	t1,t1,1898 # fd63376a <pulp__FC+0xfd63376b>
	or t2, t0, t1
     f3e:	0062e3b3          	or	t2,t0,t1
	sw t2, 4(sp)
     f42:	c21e                	sw	t2,4(sp)
	li t0, 0xd0600352
     f44:	d06002b7          	lui	t0,0xd0600
     f48:	35228293          	addi	t0,t0,850 # d0600352 <pulp__FC+0xd0600353>
	li t1, 0xd0200352
     f4c:	d0200337          	lui	t1,0xd0200
     f50:	35230313          	addi	t1,t1,850 # d0200352 <pulp__FC+0xd0200353>
	xor t2, t0, t1
     f54:	0062c3b3          	xor	t2,t0,t1
	sw t2, 4(sp)
     f58:	c21e                	sw	t2,4(sp)
	li t0, 0x2d7a5db2
     f5a:	2d7a62b7          	lui	t0,0x2d7a6
     f5e:	db228293          	addi	t0,t0,-590 # 2d7a5db2 <_sp+0x2d5a4ce2>
	li t1, 0x2d785db2
     f62:	2d786337          	lui	t1,0x2d786
     f66:	db230313          	addi	t1,t1,-590 # 2d785db2 <_sp+0x2d584ce2>
	xor t2, t0, t1
     f6a:	0062c3b3          	xor	t2,t0,t1
	sw t2, 4(sp)
     f6e:	c21e                	sw	t2,4(sp)
	li t0, 0x38bd26a9
     f70:	38bd22b7          	lui	t0,0x38bd2
     f74:	6a928293          	addi	t0,t0,1705 # 38bd26a9 <_sp+0x389d15d9>
	li t1, 0x28bd26a9
     f78:	28bd2337          	lui	t1,0x28bd2
     f7c:	6a930313          	addi	t1,t1,1705 # 28bd26a9 <_sp+0x289d15d9>
	or t2, t0, t1
     f80:	0062e3b3          	or	t2,t0,t1
	sw t2, 4(sp)
     f84:	c21e                	sw	t2,4(sp)
	li t0, 0x8f096e05
     f86:	8f0972b7          	lui	t0,0x8f097
     f8a:	e0528293          	addi	t0,t0,-507 # 8f096e05 <pulp__FC+0x8f096e06>
	li t1, 0x8f096e15
     f8e:	8f097337          	lui	t1,0x8f097
     f92:	e1530313          	addi	t1,t1,-491 # 8f096e15 <pulp__FC+0x8f096e16>
	or t2, t0, t1
     f96:	0062e3b3          	or	t2,t0,t1
	sw t2, 4(sp)
     f9a:	c21e                	sw	t2,4(sp)
	li t0, 0x2c707362
     f9c:	2c7072b7          	lui	t0,0x2c707
     fa0:	36228293          	addi	t0,t0,866 # 2c707362 <_sp+0x2c506292>
	li t1, 0x28707362
     fa4:	28707337          	lui	t1,0x28707
     fa8:	36230313          	addi	t1,t1,866 # 28707362 <_sp+0x28506292>
	or t2, t0, t1
     fac:	0062e3b3          	or	t2,t0,t1
	sw t2, 4(sp)
     fb0:	c21e                	sw	t2,4(sp)
	li t0, 0x5339e592
     fb2:	5339e2b7          	lui	t0,0x5339e
     fb6:	59228293          	addi	t0,t0,1426 # 5339e592 <_sp+0x5319d4c2>
	li t1, 0x5139e592
     fba:	5139e337          	lui	t1,0x5139e
     fbe:	59230313          	addi	t1,t1,1426 # 5139e592 <_sp+0x5119d4c2>
	or t2, t0, t1
     fc2:	0062e3b3          	or	t2,t0,t1
	sw t2, 4(sp)
     fc6:	c21e                	sw	t2,4(sp)
	li t0, 0x6cb03326
     fc8:	6cb032b7          	lui	t0,0x6cb03
     fcc:	32628293          	addi	t0,t0,806 # 6cb03326 <_sp+0x6c902256>
	li t1, 0x64b03326
     fd0:	64b03337          	lui	t1,0x64b03
     fd4:	32630313          	addi	t1,t1,806 # 64b03326 <_sp+0x64902256>
	xor t2, t0, t1
     fd8:	0062c3b3          	xor	t2,t0,t1
	sw t2, 4(sp)
     fdc:	c21e                	sw	t2,4(sp)
	li t0, 0xd1e3c6f9
     fde:	d1e3c2b7          	lui	t0,0xd1e3c
     fe2:	6f928293          	addi	t0,t0,1785 # d1e3c6f9 <pulp__FC+0xd1e3c6fa>
	li t1, 0xd1c3e367
     fe6:	d1c3e337          	lui	t1,0xd1c3e
     fea:	36730313          	addi	t1,t1,871 # d1c3e367 <pulp__FC+0xd1c3e368>
	xor t2, t0, t1
     fee:	0062c3b3          	xor	t2,t0,t1
	sw t2, 4(sp)
     ff2:	c21e                	sw	t2,4(sp)
	li t0, 0x652b311d
     ff4:	652b32b7          	lui	t0,0x652b3
     ff8:	11d28293          	addi	t0,t0,285 # 652b311d <_sp+0x650b204d>
	li t1, 0x6523f235
     ffc:	6523f337          	lui	t1,0x6523f
    1000:	23530313          	addi	t1,t1,565 # 6523f235 <_sp+0x6503e165>
	xor t2, t0, t1
    1004:	0062c3b3          	xor	t2,t0,t1
	sw t2, 4(sp)
    1008:	c21e                	sw	t2,4(sp)
	li t0, 0x13ab4aef
    100a:	13ab52b7          	lui	t0,0x13ab5
    100e:	aef28293          	addi	t0,t0,-1297 # 13ab4aef <_sp+0x138b3a1f>
	li t1, 0x13af7a9c
    1012:	13af8337          	lui	t1,0x13af8
    1016:	a9c30313          	addi	t1,t1,-1380 # 13af7a9c <_sp+0x138f69cc>
	or t2, t0, t1
    101a:	0062e3b3          	or	t2,t0,t1
	sw t2, 4(sp)
    101e:	c21e                	sw	t2,4(sp)
	li t0, 0xd7d5a577
    1020:	d7d5a2b7          	lui	t0,0xd7d5a
    1024:	57728293          	addi	t0,t0,1399 # d7d5a577 <pulp__FC+0xd7d5a578>
	li t1, 0xd7d43d4e
    1028:	d7d44337          	lui	t1,0xd7d44
    102c:	d4e30313          	addi	t1,t1,-690 # d7d43d4e <pulp__FC+0xd7d43d4f>
	xor t2, t0, t1
    1030:	0062c3b3          	xor	t2,t0,t1
	sw t2, 4(sp)
    1034:	c21e                	sw	t2,4(sp)
	li t0, 0x6f3400da
    1036:	6f3402b7          	lui	t0,0x6f340
    103a:	0da28293          	addi	t0,t0,218 # 6f3400da <_sp+0x6f13f00a>
	li t1, 0x6f749d21
    103e:	6f74a337          	lui	t1,0x6f74a
    1042:	d2130313          	addi	t1,t1,-735 # 6f749d21 <_sp+0x6f548c51>
	or t2, t0, t1
    1046:	0062e3b3          	or	t2,t0,t1
	sw t2, 4(sp)
    104a:	c21e                	sw	t2,4(sp)
	li t0, 0x93e4806d
    104c:	93e482b7          	lui	t0,0x93e48
    1050:	06d28293          	addi	t0,t0,109 # 93e4806d <pulp__FC+0x93e4806e>
	li t1, 0x93f44e90
    1054:	93f45337          	lui	t1,0x93f45
    1058:	e9030313          	addi	t1,t1,-368 # 93f44e90 <pulp__FC+0x93f44e91>
	xor t2, t0, t1
    105c:	0062c3b3          	xor	t2,t0,t1
	sw t2, 4(sp)
    1060:	c21e                	sw	t2,4(sp)
	li t0, 0xffffffff
    1062:	fff00293          	li	t0,-1
	li t1, 0xfffffff7
    1066:	ff700313          	li	t1,-9
	xor t2, t0, t1
    106a:	0062c3b3          	xor	t2,t0,t1
	sw t2, 4(sp)
    106e:	c21e                	sw	t2,4(sp)
	li t0, 0xb879092b
    1070:	b87912b7          	lui	t0,0xb8791
    1074:	92b28293          	addi	t0,t0,-1749 # b879092b <pulp__FC+0xb879092c>
	li t1, 0xb8f95267
    1078:	b8f95337          	lui	t1,0xb8f95
    107c:	26730313          	addi	t1,t1,615 # b8f95267 <pulp__FC+0xb8f95268>
	or t2, t0, t1
    1080:	0062e3b3          	or	t2,t0,t1
	sw t2, 4(sp)
    1084:	c21e                	sw	t2,4(sp)
	li t0, 0xe2c7e52a
    1086:	e2c7e2b7          	lui	t0,0xe2c7e
    108a:	52a28293          	addi	t0,t0,1322 # e2c7e52a <pulp__FC+0xe2c7e52b>
	li t1, 0xe2c7e56a
    108e:	e2c7e337          	lui	t1,0xe2c7e
    1092:	56a30313          	addi	t1,t1,1386 # e2c7e56a <pulp__FC+0xe2c7e56b>
	xor t2, t0, t1
    1096:	0062c3b3          	xor	t2,t0,t1
	sw t2, 4(sp)
    109a:	c21e                	sw	t2,4(sp)
	li t0, 0x1575d861
    109c:	1575e2b7          	lui	t0,0x1575e
    10a0:	86128293          	addi	t0,t0,-1951 # 1575d861 <_sp+0x1555c791>
	li t1, 0x1575d841
    10a4:	1575e337          	lui	t1,0x1575e
    10a8:	84130313          	addi	t1,t1,-1983 # 1575d841 <_sp+0x1555c771>
	or t2, t0, t1
    10ac:	0062e3b3          	or	t2,t0,t1
	sw t2, 4(sp)
    10b0:	c21e                	sw	t2,4(sp)
	li t0, 0xe6ca848e
    10b2:	e6ca82b7          	lui	t0,0xe6ca8
    10b6:	48e28293          	addi	t0,t0,1166 # e6ca848e <pulp__FC+0xe6ca848f>
	li t1, 0xe6ca848a
    10ba:	e6ca8337          	lui	t1,0xe6ca8
    10be:	48a30313          	addi	t1,t1,1162 # e6ca848a <pulp__FC+0xe6ca848b>
	or t2, t0, t1
    10c2:	0062e3b3          	or	t2,t0,t1
	sw t2, 4(sp)
    10c6:	c21e                	sw	t2,4(sp)
	li t0, 0x375288aa
    10c8:	375292b7          	lui	t0,0x37529
    10cc:	8aa28293          	addi	t0,t0,-1878 # 375288aa <_sp+0x373277da>
	li t1, 0x375288a8
    10d0:	37529337          	lui	t1,0x37529
    10d4:	8a830313          	addi	t1,t1,-1880 # 375288a8 <_sp+0x373277d8>
	xor t2, t0, t1
    10d8:	0062c3b3          	xor	t2,t0,t1
	sw t2, 4(sp)
    10dc:	c21e                	sw	t2,4(sp)
	li t0, 0xbffe64fc
    10de:	bffe62b7          	lui	t0,0xbffe6
    10e2:	4fc28293          	addi	t0,t0,1276 # bffe64fc <pulp__FC+0xbffe64fd>
	li t1, 0x5f2e184
    10e6:	05f2e337          	lui	t1,0x5f2e
    10ea:	18430313          	addi	t1,t1,388 # 5f2e184 <_sp+0x5d2d0b4>
	or t2, t0, t1
    10ee:	0062e3b3          	or	t2,t0,t1
	sw t2, 4(sp)
    10f2:	c21e                	sw	t2,4(sp)
	li t0, 0x1bff327e
    10f4:	1bff32b7          	lui	t0,0x1bff3
    10f8:	27e28293          	addi	t0,t0,638 # 1bff327e <_sp+0x1bdf21ae>
	li t1, 0x42f970c2
    10fc:	42f97337          	lui	t1,0x42f97
    1100:	0c230313          	addi	t1,t1,194 # 42f970c2 <_sp+0x42d95ff2>
	or t2, t0, t1
    1104:	0062e3b3          	or	t2,t0,t1
	sw t2, 4(sp)
    1108:	c21e                	sw	t2,4(sp)
	li t0, 0x9944186e
    110a:	994422b7          	lui	t0,0x99442
    110e:	86e28293          	addi	t0,t0,-1938 # 9944186e <pulp__FC+0x9944186f>
	li t1, 0x99441c6e
    1112:	99442337          	lui	t1,0x99442
    1116:	c6e30313          	addi	t1,t1,-914 # 99441c6e <pulp__FC+0x99441c6f>
	xor t2, t0, t1
    111a:	0062c3b3          	xor	t2,t0,t1
	sw t2, 4(sp)
    111e:	c21e                	sw	t2,4(sp)
	li t0, 0x8f19b3aa
    1120:	8f19b2b7          	lui	t0,0x8f19b
    1124:	3aa28293          	addi	t0,t0,938 # 8f19b3aa <pulp__FC+0x8f19b3ab>
	li t1, 0x8f19bbaa
    1128:	8f19c337          	lui	t1,0x8f19c
    112c:	baa30313          	addi	t1,t1,-1110 # 8f19bbaa <pulp__FC+0x8f19bbab>
	xor t2, t0, t1
    1130:	0062c3b3          	xor	t2,t0,t1
	sw t2, 4(sp)
    1134:	c21e                	sw	t2,4(sp)
	li t0, 0x6e0584ef
    1136:	6e0582b7          	lui	t0,0x6e058
    113a:	4ef28293          	addi	t0,t0,1263 # 6e0584ef <_sp+0x6de5741f>
	li t1, 0x6e0594ef
    113e:	6e059337          	lui	t1,0x6e059
    1142:	4ef30313          	addi	t1,t1,1263 # 6e0594ef <_sp+0x6de5841f>
	xor t2, t0, t1
    1146:	0062c3b3          	xor	t2,t0,t1
	sw t2, 4(sp)
    114a:	c21e                	sw	t2,4(sp)

	// AND
	li t0, 0xafeac366
    114c:	afeac2b7          	lui	t0,0xafeac
    1150:	36628293          	addi	t0,t0,870 # afeac366 <pulp__FC+0xafeac367>
	li t1, 0xafeac314
    1154:	afeac337          	lui	t1,0xafeac
    1158:	31430313          	addi	t1,t1,788 # afeac314 <pulp__FC+0xafeac315>
	and t2, t0, t1
    115c:	0062f3b3          	and	t2,t0,t1
	sw t2, 4(sp)
    1160:	c21e                	sw	t2,4(sp)
	li t0, 0x953fedf2
    1162:	953ff2b7          	lui	t0,0x953ff
    1166:	df228293          	addi	t0,t0,-526 # 953fedf2 <pulp__FC+0x953fedf3>
	li t1, 0xda073eed
    116a:	da074337          	lui	t1,0xda074
    116e:	eed30313          	addi	t1,t1,-275 # da073eed <pulp__FC+0xda073eee>
	and t2, t0, t1
    1172:	0062f3b3          	and	t2,t0,t1
	sw t2, 4(sp)
    1176:	c21e                	sw	t2,4(sp)
	li t0, 0x5c0870
    1178:	005c12b7          	lui	t0,0x5c1
    117c:	87028293          	addi	t0,t0,-1936 # 5c0870 <_sp+0x3bf7a0>
	li t1, 0x5c0870
    1180:	005c1337          	lui	t1,0x5c1
    1184:	87030313          	addi	t1,t1,-1936 # 5c0870 <_sp+0x3bf7a0>
	and t2, t0, t1
    1188:	0062f3b3          	and	t2,t0,t1
	sw t2, 4(sp)
    118c:	c21e                	sw	t2,4(sp)
	li t0, 0xf7e29a4f
    118e:	f7e2a2b7          	lui	t0,0xf7e2a
    1192:	a4f28293          	addi	t0,t0,-1457 # f7e29a4f <pulp__FC+0xf7e29a50>
	li t1, 0xc2bd116b
    1196:	c2bd1337          	lui	t1,0xc2bd1
    119a:	16b30313          	addi	t1,t1,363 # c2bd116b <pulp__FC+0xc2bd116c>
	and t2, t0, t1
    119e:	0062f3b3          	and	t2,t0,t1
	sw t2, 4(sp)
    11a2:	c21e                	sw	t2,4(sp)
	li t0, 0x6febdf0d
    11a4:	6febe2b7          	lui	t0,0x6febe
    11a8:	f0d28293          	addi	t0,t0,-243 # 6febdf0d <_sp+0x6fcbce3d>
	li t1, 0x9110a482
    11ac:	9110a337          	lui	t1,0x9110a
    11b0:	48230313          	addi	t1,t1,1154 # 9110a482 <pulp__FC+0x9110a483>
	and t2, t0, t1
    11b4:	0062f3b3          	and	t2,t0,t1
	sw t2, 4(sp)
    11b8:	c21e                	sw	t2,4(sp)
	li t0, 0xda843587
    11ba:	da8432b7          	lui	t0,0xda843
    11be:	58728293          	addi	t0,t0,1415 # da843587 <pulp__FC+0xda843588>
	li t1, 0x2563ca6e
    11c2:	2563d337          	lui	t1,0x2563d
    11c6:	a6e30313          	addi	t1,t1,-1426 # 2563ca6e <_sp+0x2543b99e>
	and t2, t0, t1
    11ca:	0062f3b3          	and	t2,t0,t1
	sw t2, 4(sp)
    11ce:	c21e                	sw	t2,4(sp)
	li t0, 0x17b6faf4
    11d0:	17b702b7          	lui	t0,0x17b70
    11d4:	af428293          	addi	t0,t0,-1292 # 17b6faf4 <_sp+0x1796ea24>
	li t1, 0x17b49d4b
    11d8:	17b4a337          	lui	t1,0x17b4a
    11dc:	d4b30313          	addi	t1,t1,-693 # 17b49d4b <_sp+0x17948c7b>
	and t2, t0, t1
    11e0:	0062f3b3          	and	t2,t0,t1
	sw t2, 4(sp)
    11e4:	c21e                	sw	t2,4(sp)
	li t0, 0xc2d71d7e
    11e6:	c2d722b7          	lui	t0,0xc2d72
    11ea:	d7e28293          	addi	t0,t0,-642 # c2d71d7e <pulp__FC+0xc2d71d7f>
	li t1, 0xd29049a7
    11ee:	d2905337          	lui	t1,0xd2905
    11f2:	9a730313          	addi	t1,t1,-1625 # d29049a7 <pulp__FC+0xd29049a8>
	and t2, t0, t1
    11f6:	0062f3b3          	and	t2,t0,t1
	sw t2, 4(sp)
    11fa:	c21e                	sw	t2,4(sp)
	li t0, 0x63a1e982
    11fc:	63a1f2b7          	lui	t0,0x63a1f
    1200:	98228293          	addi	t0,t0,-1662 # 63a1e982 <_sp+0x6381d8b2>
	li t1, 0x63e10f20
    1204:	63e11337          	lui	t1,0x63e11
    1208:	f2030313          	addi	t1,t1,-224 # 63e10f20 <_sp+0x63c0fe50>
	and t2, t0, t1
    120c:	0062f3b3          	and	t2,t0,t1
	sw t2, 4(sp)
    1210:	c21e                	sw	t2,4(sp)
	li t0, 0x2444fae7
    1212:	244502b7          	lui	t0,0x24450
    1216:	ae728293          	addi	t0,t0,-1305 # 2444fae7 <_sp+0x2424ea17>
	li t1, 0xa44438f7
    121a:	a4444337          	lui	t1,0xa4444
    121e:	8f730313          	addi	t1,t1,-1801 # a44438f7 <pulp__FC+0xa44438f8>
	and t2, t0, t1
    1222:	0062f3b3          	and	t2,t0,t1
	sw t2, 4(sp)
    1226:	c21e                	sw	t2,4(sp)
	li t0, 0xd879fa20
    1228:	d87a02b7          	lui	t0,0xd87a0
    122c:	a2028293          	addi	t0,t0,-1504 # d879fa20 <pulp__FC+0xd879fa21>
	li t1, 0x988b83c8
    1230:	988b8337          	lui	t1,0x988b8
    1234:	3c830313          	addi	t1,t1,968 # 988b83c8 <pulp__FC+0x988b83c9>
	and t2, t0, t1
    1238:	0062f3b3          	and	t2,t0,t1
	sw t2, 4(sp)
    123c:	c21e                	sw	t2,4(sp)
	li t0, 0xd78ec564
    123e:	d78ec2b7          	lui	t0,0xd78ec
    1242:	56428293          	addi	t0,t0,1380 # d78ec564 <pulp__FC+0xd78ec565>
	li t1, 0xd78e8564
    1246:	d78e8337          	lui	t1,0xd78e8
    124a:	56430313          	addi	t1,t1,1380 # d78e8564 <pulp__FC+0xd78e8565>
	and t2, t0, t1
    124e:	0062f3b3          	and	t2,t0,t1
	sw t2, 4(sp)
    1252:	c21e                	sw	t2,4(sp)
	li t0, 0x7601ff4d
    1254:	760202b7          	lui	t0,0x76020
    1258:	f4d28293          	addi	t0,t0,-179 # 7601ff4d <_sp+0x75e1ee7d>
	li t1, 0x7601ff4c
    125c:	76020337          	lui	t1,0x76020
    1260:	f4c30313          	addi	t1,t1,-180 # 7601ff4c <_sp+0x75e1ee7c>
	and t2, t0, t1
    1264:	0062f3b3          	and	t2,t0,t1
	sw t2, 4(sp)
    1268:	c21e                	sw	t2,4(sp)
	li t0, 0xb1d0ec1c
    126a:	b1d0f2b7          	lui	t0,0xb1d0f
    126e:	c1c28293          	addi	t0,t0,-996 # b1d0ec1c <pulp__FC+0xb1d0ec1d>
	li t1, 0xb9d0ec1c
    1272:	b9d0f337          	lui	t1,0xb9d0f
    1276:	c1c30313          	addi	t1,t1,-996 # b9d0ec1c <pulp__FC+0xb9d0ec1d>
	and t2, t0, t1
    127a:	0062f3b3          	and	t2,t0,t1
	sw t2, 4(sp)
    127e:	c21e                	sw	t2,4(sp)
	li t0, 0xeaf62e2d
    1280:	eaf632b7          	lui	t0,0xeaf63
    1284:	e2d28293          	addi	t0,t0,-467 # eaf62e2d <pulp__FC+0xeaf62e2e>
	li t1, 0xeaf62e2d
    1288:	eaf63337          	lui	t1,0xeaf63
    128c:	e2d30313          	addi	t1,t1,-467 # eaf62e2d <pulp__FC+0xeaf62e2e>
	and t2, t0, t1
    1290:	0062f3b3          	and	t2,t0,t1
	sw t2, 4(sp)
    1294:	c21e                	sw	t2,4(sp)
	li t0, 0x5b797f7e
    1296:	5b7982b7          	lui	t0,0x5b798
    129a:	f7e28293          	addi	t0,t0,-130 # 5b797f7e <_sp+0x5b596eae>
	li t1, 0x5b797d7e
    129e:	5b798337          	lui	t1,0x5b798
    12a2:	d7e30313          	addi	t1,t1,-642 # 5b797d7e <_sp+0x5b596cae>
	and t2, t0, t1
    12a6:	0062f3b3          	and	t2,t0,t1
	sw t2, 4(sp)
    12aa:	c21e                	sw	t2,4(sp)
	li t0, 0x9c6932e8
    12ac:	9c6932b7          	lui	t0,0x9c693
    12b0:	2e828293          	addi	t0,t0,744 # 9c6932e8 <pulp__FC+0x9c6932e9>
	li t1, 0x9c26df89
    12b4:	9c26e337          	lui	t1,0x9c26e
    12b8:	f8930313          	addi	t1,t1,-119 # 9c26df89 <pulp__FC+0x9c26df8a>
	and t2, t0, t1
    12bc:	0062f3b3          	and	t2,t0,t1
	sw t2, 4(sp)
    12c0:	c21e                	sw	t2,4(sp)
	li t0, 0xd287f6a4
    12c2:	d287f2b7          	lui	t0,0xd287f
    12c6:	6a428293          	addi	t0,t0,1700 # d287f6a4 <pulp__FC+0xd287f6a5>
	li t1, 0xd287f7a4
    12ca:	d287f337          	lui	t1,0xd287f
    12ce:	7a430313          	addi	t1,t1,1956 # d287f7a4 <pulp__FC+0xd287f7a5>
	and t2, t0, t1
    12d2:	0062f3b3          	and	t2,t0,t1
	sw t2, 4(sp)
    12d6:	c21e                	sw	t2,4(sp)
	li t0, 0x92dea108
    12d8:	92dea2b7          	lui	t0,0x92dea
    12dc:	10828293          	addi	t0,t0,264 # 92dea108 <pulp__FC+0x92dea109>
	li t1, 0x92dea008
    12e0:	92dea337          	lui	t1,0x92dea
    12e4:	00830313          	addi	t1,t1,8 # 92dea008 <pulp__FC+0x92dea009>
	and t2, t0, t1
    12e8:	0062f3b3          	and	t2,t0,t1
	sw t2, 4(sp)
    12ec:	c21e                	sw	t2,4(sp)
	li t0, 0xf61f1d0e
    12ee:	f61f22b7          	lui	t0,0xf61f2
    12f2:	d0e28293          	addi	t0,t0,-754 # f61f1d0e <pulp__FC+0xf61f1d0f>
	li t1, 0xf61f5d0e
    12f6:	f61f6337          	lui	t1,0xf61f6
    12fa:	d0e30313          	addi	t1,t1,-754 # f61f5d0e <pulp__FC+0xf61f5d0f>
	and t2, t0, t1
    12fe:	0062f3b3          	and	t2,t0,t1
	sw t2, 4(sp)
    1302:	c21e                	sw	t2,4(sp)
	li t0, 0xef0f67ac
    1304:	ef0f62b7          	lui	t0,0xef0f6
    1308:	7ac28293          	addi	t0,t0,1964 # ef0f67ac <pulp__FC+0xef0f67ad>
	li t1, 0xcf0f67ac
    130c:	cf0f6337          	lui	t1,0xcf0f6
    1310:	7ac30313          	addi	t1,t1,1964 # cf0f67ac <pulp__FC+0xcf0f67ad>
	and t2, t0, t1
    1314:	0062f3b3          	and	t2,t0,t1
	sw t2, 4(sp)
    1318:	c21e                	sw	t2,4(sp)
	li t0, 0x81829f36
    131a:	8182a2b7          	lui	t0,0x8182a
    131e:	f3628293          	addi	t0,t0,-202 # 81829f36 <pulp__FC+0x81829f37>
	li t1, 0x8082447a
    1322:	80824337          	lui	t1,0x80824
    1326:	47a30313          	addi	t1,t1,1146 # 8082447a <pulp__FC+0x8082447b>
	and t2, t0, t1
    132a:	0062f3b3          	and	t2,t0,t1
	sw t2, 4(sp)
    132e:	c21e                	sw	t2,4(sp)
	li t0, 0x678272f8
    1330:	678272b7          	lui	t0,0x67827
    1334:	2f828293          	addi	t0,t0,760 # 678272f8 <_sp+0x67626228>
	li t1, 0x67827af8
    1338:	67828337          	lui	t1,0x67828
    133c:	af830313          	addi	t1,t1,-1288 # 67827af8 <_sp+0x67626a28>
	and t2, t0, t1
    1340:	0062f3b3          	and	t2,t0,t1
	sw t2, 4(sp)
    1344:	c21e                	sw	t2,4(sp)
	li t0, 0xca84c2c7
    1346:	ca84c2b7          	lui	t0,0xca84c
    134a:	2c728293          	addi	t0,t0,711 # ca84c2c7 <pulp__FC+0xca84c2c8>
	li t1, 0xca84c287
    134e:	ca84c337          	lui	t1,0xca84c
    1352:	28730313          	addi	t1,t1,647 # ca84c287 <pulp__FC+0xca84c288>
	and t2, t0, t1
    1356:	0062f3b3          	and	t2,t0,t1
	sw t2, 4(sp)
    135a:	c21e                	sw	t2,4(sp)
	li t0, 0x57409f42
    135c:	5740a2b7          	lui	t0,0x5740a
    1360:	f4228293          	addi	t0,t0,-190 # 57409f42 <_sp+0x57208e72>
	li t1, 0x57409fc2
    1364:	5740a337          	lui	t1,0x5740a
    1368:	fc230313          	addi	t1,t1,-62 # 57409fc2 <_sp+0x57208ef2>
	and t2, t0, t1
    136c:	0062f3b3          	and	t2,t0,t1
	sw t2, 4(sp)
    1370:	c21e                	sw	t2,4(sp)
	li t0, 0xf2804c02
    1372:	f28052b7          	lui	t0,0xf2805
    1376:	c0228293          	addi	t0,t0,-1022 # f2804c02 <pulp__FC+0xf2804c03>
	li t1, 0xf2004c02
    137a:	f2005337          	lui	t1,0xf2005
    137e:	c0230313          	addi	t1,t1,-1022 # f2004c02 <pulp__FC+0xf2004c03>
	and t2, t0, t1
    1382:	0062f3b3          	and	t2,t0,t1
	sw t2, 4(sp)
    1386:	c21e                	sw	t2,4(sp)
	li t0, 0xd04ba1c3
    1388:	d04ba2b7          	lui	t0,0xd04ba
    138c:	1c328293          	addi	t0,t0,451 # d04ba1c3 <pulp__FC+0xd04ba1c4>
	li t1, 0xd05ba1c3
    1390:	d05ba337          	lui	t1,0xd05ba
    1394:	1c330313          	addi	t1,t1,451 # d05ba1c3 <pulp__FC+0xd05ba1c4>
	and t2, t0, t1
    1398:	0062f3b3          	and	t2,t0,t1
	sw t2, 4(sp)
    139c:	c21e                	sw	t2,4(sp)
	li t0, 0x6c455989
    139e:	6c4562b7          	lui	t0,0x6c456
    13a2:	98928293          	addi	t0,t0,-1655 # 6c455989 <_sp+0x6c2548b9>
	li t1, 0x7c455989
    13a6:	7c456337          	lui	t1,0x7c456
    13aa:	98930313          	addi	t1,t1,-1655 # 7c455989 <_sp+0x7c2548b9>
	and t2, t0, t1
    13ae:	0062f3b3          	and	t2,t0,t1
	sw t2, 4(sp)
    13b2:	c21e                	sw	t2,4(sp)
	li t0, 0x82eb43c8
    13b4:	82eb42b7          	lui	t0,0x82eb4
    13b8:	3c828293          	addi	t0,t0,968 # 82eb43c8 <pulp__FC+0x82eb43c9>
	li t1, 0x82eb43c0
    13bc:	82eb4337          	lui	t1,0x82eb4
    13c0:	3c030313          	addi	t1,t1,960 # 82eb43c0 <pulp__FC+0x82eb43c1>
	and t2, t0, t1
    13c4:	0062f3b3          	and	t2,t0,t1
	sw t2, 4(sp)
    13c8:	c21e                	sw	t2,4(sp)
	li t0, 0xcc3453f0
    13ca:	cc3452b7          	lui	t0,0xcc345
    13ce:	3f028293          	addi	t0,t0,1008 # cc3453f0 <pulp__FC+0xcc3453f1>
	li t1, 0xc83453f0
    13d2:	c8345337          	lui	t1,0xc8345
    13d6:	3f030313          	addi	t1,t1,1008 # c83453f0 <pulp__FC+0xc83453f1>
	and t2, t0, t1
    13da:	0062f3b3          	and	t2,t0,t1
	sw t2, 4(sp)
    13de:	c21e                	sw	t2,4(sp)
	li t0, 0x9bb201c4
    13e0:	9bb202b7          	lui	t0,0x9bb20
    13e4:	1c428293          	addi	t0,t0,452 # 9bb201c4 <pulp__FC+0x9bb201c5>
	li t1, 0x99b201c4
    13e8:	99b20337          	lui	t1,0x99b20
    13ec:	1c430313          	addi	t1,t1,452 # 99b201c4 <pulp__FC+0x99b201c5>
	and t2, t0, t1
    13f0:	0062f3b3          	and	t2,t0,t1
	sw t2, 4(sp)
    13f4:	c21e                	sw	t2,4(sp)
	li t0, 0xdb38aa88
    13f6:	db38b2b7          	lui	t0,0xdb38b
    13fa:	a8828293          	addi	t0,t0,-1400 # db38aa88 <pulp__FC+0xdb38aa89>
	li t1, 0xd338aa88
    13fe:	d338b337          	lui	t1,0xd338b
    1402:	a8830313          	addi	t1,t1,-1400 # d338aa88 <pulp__FC+0xd338aa89>
	and t2, t0, t1
    1406:	0062f3b3          	and	t2,t0,t1
	sw t2, 4(sp)
    140a:	c21e                	sw	t2,4(sp)
	li t0, 0xe29264a8
    140c:	e29262b7          	lui	t0,0xe2926
    1410:	4a828293          	addi	t0,t0,1192 # e29264a8 <pulp__FC+0xe29264a9>
	li t1, 0xe29244a8
    1414:	e2924337          	lui	t1,0xe2924
    1418:	4a830313          	addi	t1,t1,1192 # e29244a8 <pulp__FC+0xe29244a9>
	and t2, t0, t1
    141c:	0062f3b3          	and	t2,t0,t1
	sw t2, 4(sp)
    1420:	c21e                	sw	t2,4(sp)
	li t0, 0x3909740f
    1422:	390972b7          	lui	t0,0x39097
    1426:	40f28293          	addi	t0,t0,1039 # 3909740f <_sp+0x38e9633f>
	li t1, 0x3908f5d5
    142a:	3908f337          	lui	t1,0x3908f
    142e:	5d530313          	addi	t1,t1,1493 # 3908f5d5 <_sp+0x38e8e505>
	and t2, t0, t1
    1432:	0062f3b3          	and	t2,t0,t1
	sw t2, 4(sp)
    1436:	c21e                	sw	t2,4(sp)
	li t0, 0xa713bf28
    1438:	a713c2b7          	lui	t0,0xa713c
    143c:	f2828293          	addi	t0,t0,-216 # a713bf28 <pulp__FC+0xa713bf29>
	li t1, 0xa713bf2a
    1440:	a713c337          	lui	t1,0xa713c
    1444:	f2a30313          	addi	t1,t1,-214 # a713bf2a <pulp__FC+0xa713bf2b>
	and t2, t0, t1
    1448:	0062f3b3          	and	t2,t0,t1
	sw t2, 4(sp)
    144c:	c21e                	sw	t2,4(sp)
	li t0, 0x9ae40112
    144e:	9ae402b7          	lui	t0,0x9ae40
    1452:	11228293          	addi	t0,t0,274 # 9ae40112 <pulp__FC+0x9ae40113>
	li t1, 0x1ae4630a
    1456:	1ae46337          	lui	t1,0x1ae46
    145a:	30a30313          	addi	t1,t1,778 # 1ae4630a <_sp+0x1ac4523a>
	and t2, t0, t1
    145e:	0062f3b3          	and	t2,t0,t1
	sw t2, 4(sp)
    1462:	c21e                	sw	t2,4(sp)
	li t0, 0xef98cfa
    1464:	0ef992b7          	lui	t0,0xef99
    1468:	cfa28293          	addi	t0,t0,-774 # ef98cfa <_sp+0xed97c2a>
	li t1, 0xef98cfa
    146c:	0ef99337          	lui	t1,0xef99
    1470:	cfa30313          	addi	t1,t1,-774 # ef98cfa <_sp+0xed97c2a>
	and t2, t0, t1
    1474:	0062f3b3          	and	t2,t0,t1
	sw t2, 4(sp)
    1478:	c21e                	sw	t2,4(sp)
	li t0, 0xd4061bf3
    147a:	d40622b7          	lui	t0,0xd4062
    147e:	bf328293          	addi	t0,t0,-1037 # d4061bf3 <pulp__FC+0xd4061bf4>
	li t1, 0xd40613f3
    1482:	d4061337          	lui	t1,0xd4061
    1486:	3f330313          	addi	t1,t1,1011 # d40613f3 <pulp__FC+0xd40613f4>
	and t2, t0, t1
    148a:	0062f3b3          	and	t2,t0,t1
	sw t2, 4(sp)
    148e:	c21e                	sw	t2,4(sp)
	li t0, 0xd0d3691d
    1490:	d0d372b7          	lui	t0,0xd0d37
    1494:	91d28293          	addi	t0,t0,-1763 # d0d3691d <pulp__FC+0xd0d3691e>
	li t1, 0xd0db9e90
    1498:	d0dba337          	lui	t1,0xd0dba
    149c:	e9030313          	addi	t1,t1,-368 # d0db9e90 <pulp__FC+0xd0db9e91>
	and t2, t0, t1
    14a0:	0062f3b3          	and	t2,t0,t1
	sw t2, 4(sp)
    14a4:	c21e                	sw	t2,4(sp)
	li t0, 0x975e5c90
    14a6:	975e62b7          	lui	t0,0x975e6
    14aa:	c9028293          	addi	t0,t0,-880 # 975e5c90 <pulp__FC+0x975e5c91>
	li t1, 0x875e24e2
    14ae:	875e2337          	lui	t1,0x875e2
    14b2:	4e230313          	addi	t1,t1,1250 # 875e24e2 <pulp__FC+0x875e24e3>
	and t2, t0, t1
    14b6:	0062f3b3          	and	t2,t0,t1
	sw t2, 4(sp)
    14ba:	c21e                	sw	t2,4(sp)
	li t0, 0xf5cdae48
    14bc:	f5cdb2b7          	lui	t0,0xf5cdb
    14c0:	e4828293          	addi	t0,t0,-440 # f5cdae48 <pulp__FC+0xf5cdae49>
	li t1, 0xf5ed1271
    14c4:	f5ed1337          	lui	t1,0xf5ed1
    14c8:	27130313          	addi	t1,t1,625 # f5ed1271 <pulp__FC+0xf5ed1272>
	and t2, t0, t1
    14cc:	0062f3b3          	and	t2,t0,t1
	sw t2, 4(sp)
    14d0:	c21e                	sw	t2,4(sp)
	li t0, 0xf4f6d724
    14d2:	f4f6d2b7          	lui	t0,0xf4f6d
    14d6:	72428293          	addi	t0,t0,1828 # f4f6d724 <pulp__FC+0xf4f6d725>
	li t1, 0xf4f20938
    14da:	f4f21337          	lui	t1,0xf4f21
    14de:	93830313          	addi	t1,t1,-1736 # f4f20938 <pulp__FC+0xf4f20939>
	and t2, t0, t1
    14e2:	0062f3b3          	and	t2,t0,t1
	sw t2, 4(sp)
    14e6:	c21e                	sw	t2,4(sp)
	li t0, 0x9871038c
    14e8:	987102b7          	lui	t0,0x98710
    14ec:	38c28293          	addi	t0,t0,908 # 9871038c <pulp__FC+0x9871038d>
	li t1, 0x9831ef36
    14f0:	9831f337          	lui	t1,0x9831f
    14f4:	f3630313          	addi	t1,t1,-202 # 9831ef36 <pulp__FC+0x9831ef37>
	and t2, t0, t1
    14f8:	0062f3b3          	and	t2,t0,t1
	sw t2, 4(sp)
    14fc:	c21e                	sw	t2,4(sp)
	li t0, 0x124cb2d3
    14fe:	124cb2b7          	lui	t0,0x124cb
    1502:	2d328293          	addi	t0,t0,723 # 124cb2d3 <_sp+0x122ca203>
	li t1, 0x124cb2d3
    1506:	124cb337          	lui	t1,0x124cb
    150a:	2d330313          	addi	t1,t1,723 # 124cb2d3 <_sp+0x122ca203>
	and t2, t0, t1
    150e:	0062f3b3          	and	t2,t0,t1
	sw t2, 4(sp)
    1512:	c21e                	sw	t2,4(sp)
	li t0, 0xf4725d04
    1514:	f47262b7          	lui	t0,0xf4726
    1518:	d0428293          	addi	t0,t0,-764 # f4725d04 <pulp__FC+0xf4725d05>
	li t1, 0xf4724d04
    151c:	f4725337          	lui	t1,0xf4725
    1520:	d0430313          	addi	t1,t1,-764 # f4724d04 <pulp__FC+0xf4724d05>
	and t2, t0, t1
    1524:	0062f3b3          	and	t2,t0,t1
	sw t2, 4(sp)
    1528:	c21e                	sw	t2,4(sp)
	li t0, 0x8b1d0e93
    152a:	8b1d12b7          	lui	t0,0x8b1d1
    152e:	e9328293          	addi	t0,t0,-365 # 8b1d0e93 <pulp__FC+0x8b1d0e94>
	li t1, 0x8b1d0e13
    1532:	8b1d1337          	lui	t1,0x8b1d1
    1536:	e1330313          	addi	t1,t1,-493 # 8b1d0e13 <pulp__FC+0x8b1d0e14>
	and t2, t0, t1
    153a:	0062f3b3          	and	t2,t0,t1
	sw t2, 4(sp)
    153e:	c21e                	sw	t2,4(sp)
	li t0, 0xffffffff
    1540:	fff00293          	li	t0,-1
	li t1, 0x382d9653
    1544:	382d9337          	lui	t1,0x382d9
    1548:	65330313          	addi	t1,t1,1619 # 382d9653 <_sp+0x380d8583>
	and t2, t0, t1
    154c:	0062f3b3          	and	t2,t0,t1
	sw t2, 4(sp)
    1550:	c21e                	sw	t2,4(sp)
	li t0, 0xfd1c3c84
    1552:	fd1c42b7          	lui	t0,0xfd1c4
    1556:	c8428293          	addi	t0,t0,-892 # fd1c3c84 <pulp__FC+0xfd1c3c85>
	li t1, 0xfd1e2083
    155a:	fd1e2337          	lui	t1,0xfd1e2
    155e:	08330313          	addi	t1,t1,131 # fd1e2083 <pulp__FC+0xfd1e2084>
	and t2, t0, t1
    1562:	0062f3b3          	and	t2,t0,t1
	sw t2, 4(sp)
    1566:	c21e                	sw	t2,4(sp)
	li t0, 0xa5951a0d
    1568:	a59522b7          	lui	t0,0xa5952
    156c:	a0d28293          	addi	t0,t0,-1523 # a5951a0d <pulp__FC+0xa5951a0e>
	li t1, 0xa5951a4d
    1570:	a5952337          	lui	t1,0xa5952
    1574:	a4d30313          	addi	t1,t1,-1459 # a5951a4d <pulp__FC+0xa5951a4e>
	and t2, t0, t1
    1578:	0062f3b3          	and	t2,t0,t1
	sw t2, 4(sp)
    157c:	c21e                	sw	t2,4(sp)
	li t0, 0xe2d5b6a1
    157e:	e2d5b2b7          	lui	t0,0xe2d5b
    1582:	6a128293          	addi	t0,t0,1697 # e2d5b6a1 <pulp__FC+0xe2d5b6a2>
	li t1, 0xe2d5b681
    1586:	e2d5b337          	lui	t1,0xe2d5b
    158a:	68130313          	addi	t1,t1,1665 # e2d5b681 <pulp__FC+0xe2d5b682>
	and t2, t0, t1
    158e:	0062f3b3          	and	t2,t0,t1
	sw t2, 4(sp)
    1592:	c21e                	sw	t2,4(sp)
	li t0, 0xdbb173af
    1594:	dbb172b7          	lui	t0,0xdbb17
    1598:	3af28293          	addi	t0,t0,943 # dbb173af <pulp__FC+0xdbb173b0>
	li t1, 0xdbb173ab
    159c:	dbb17337          	lui	t1,0xdbb17
    15a0:	3ab30313          	addi	t1,t1,939 # dbb173ab <pulp__FC+0xdbb173ac>
	and t2, t0, t1
    15a4:	0062f3b3          	and	t2,t0,t1
	sw t2, 4(sp)
    15a8:	c21e                	sw	t2,4(sp)
	li t0, 0xc9dfedae
    15aa:	c9dff2b7          	lui	t0,0xc9dff
    15ae:	dae28293          	addi	t0,t0,-594 # c9dfedae <pulp__FC+0xc9dfedaf>
	li t1, 0xc9dfedaf
    15b2:	c9dff337          	lui	t1,0xc9dff
    15b6:	daf30313          	addi	t1,t1,-593 # c9dfedaf <pulp__FC+0xc9dfedb0>
	and t2, t0, t1
    15ba:	0062f3b3          	and	t2,t0,t1
	sw t2, 4(sp)
    15be:	c21e                	sw	t2,4(sp)
	li t0, 0x1b85cf65
    15c0:	1b85d2b7          	lui	t0,0x1b85d
    15c4:	f6528293          	addi	t0,t0,-155 # 1b85cf65 <_sp+0x1b65be95>
	li t1, 0x1b85d7be
    15c8:	1b85d337          	lui	t1,0x1b85d
    15cc:	7be30313          	addi	t1,t1,1982 # 1b85d7be <_sp+0x1b65c6ee>
	and t2, t0, t1
    15d0:	0062f3b3          	and	t2,t0,t1
	sw t2, 4(sp)
    15d4:	c21e                	sw	t2,4(sp)
	li t0, 0xbc198fac
    15d6:	bc1992b7          	lui	t0,0xbc199
    15da:	fac28293          	addi	t0,t0,-84 # bc198fac <pulp__FC+0xbc198fad>
	li t1, 0xbc998075
    15de:	bc998337          	lui	t1,0xbc998
    15e2:	07530313          	addi	t1,t1,117 # bc998075 <pulp__FC+0xbc998076>
	and t2, t0, t1
    15e6:	0062f3b3          	and	t2,t0,t1
	sw t2, 4(sp)
    15ea:	c21e                	sw	t2,4(sp)
	li t0, 0x23710c79
    15ec:	237112b7          	lui	t0,0x23711
    15f0:	c7928293          	addi	t0,t0,-903 # 23710c79 <_sp+0x2350fba9>
	li t1, 0x23711c79
    15f4:	23712337          	lui	t1,0x23712
    15f8:	c7930313          	addi	t1,t1,-903 # 23711c79 <_sp+0x23510ba9>
	and t2, t0, t1
    15fc:	0062f3b3          	and	t2,t0,t1
	sw t2, 4(sp)
    1600:	c21e                	sw	t2,4(sp)
	li t0, 0x87781d74
    1602:	877822b7          	lui	t0,0x87782
    1606:	d7428293          	addi	t0,t0,-652 # 87781d74 <pulp__FC+0x87781d75>
	li t1, 0x87783d74
    160a:	87784337          	lui	t1,0x87784
    160e:	d7430313          	addi	t1,t1,-652 # 87783d74 <pulp__FC+0x87783d75>
	and t2, t0, t1
    1612:	0062f3b3          	and	t2,t0,t1
	sw t2, 4(sp)
    1616:	c21e                	sw	t2,4(sp)
	li t0, 0x3d945514
    1618:	3d9452b7          	lui	t0,0x3d945
    161c:	51428293          	addi	t0,t0,1300 # 3d945514 <_sp+0x3d744444>
	li t1, 0x3d945114
    1620:	3d945337          	lui	t1,0x3d945
    1624:	11430313          	addi	t1,t1,276 # 3d945114 <_sp+0x3d744044>
	and t2, t0, t1
    1628:	0062f3b3          	and	t2,t0,t1
	sw t2, 4(sp)
    162c:	c21e                	sw	t2,4(sp)
	li t0, 0xe2f104af
    162e:	e2f102b7          	lui	t0,0xe2f10
    1632:	4af28293          	addi	t0,t0,1199 # e2f104af <pulp__FC+0xe2f104b0>
	li t1, 0xe2f184af
    1636:	e2f18337          	lui	t1,0xe2f18
    163a:	4af30313          	addi	t1,t1,1199 # e2f184af <pulp__FC+0xe2f184b0>
	and t2, t0, t1
    163e:	0062f3b3          	and	t2,t0,t1
	sw t2, 4(sp)
    1642:	c21e                	sw	t2,4(sp)
	li t0, 0x6a5dd9e1
    1644:	6a5de2b7          	lui	t0,0x6a5de
    1648:	9e128293          	addi	t0,t0,-1567 # 6a5dd9e1 <_sp+0x6a3dc911>
	li t1, 0x6a5dd9e1
    164c:	6a5de337          	lui	t1,0x6a5de
    1650:	9e130313          	addi	t1,t1,-1567 # 6a5dd9e1 <_sp+0x6a3dc911>
	and t2, t0, t1
    1654:	0062f3b3          	and	t2,t0,t1
	sw t2, 4(sp)
    1658:	c21e                	sw	t2,4(sp)
	li t0, 0xf7014d84
    165a:	f70152b7          	lui	t0,0xf7015
    165e:	d8428293          	addi	t0,t0,-636 # f7014d84 <pulp__FC+0xf7014d85>
	li t1, 0xf7014d94
    1662:	f7015337          	lui	t1,0xf7015
    1666:	d9430313          	addi	t1,t1,-620 # f7014d94 <pulp__FC+0xf7014d95>
	and t2, t0, t1
    166a:	0062f3b3          	and	t2,t0,t1
	sw t2, 4(sp)
    166e:	c21e                	sw	t2,4(sp)

	//SRA SRL
	li t0, 0x67bae7d3
    1670:	67bae2b7          	lui	t0,0x67bae
    1674:	7d328293          	addi	t0,t0,2003 # 67bae7d3 <_sp+0x679ad703>
	li t1, 0xf7cf59aa
    1678:	f7cf6337          	lui	t1,0xf7cf6
    167c:	9aa30313          	addi	t1,t1,-1622 # f7cf59aa <pulp__FC+0xf7cf59ab>
	srl t2, t0, t1
    1680:	0062d3b3          	srl	t2,t0,t1
	sw t2, 4(sp)
    1684:	c21e                	sw	t2,4(sp)
	li t0, 0x57217189
    1686:	572172b7          	lui	t0,0x57217
    168a:	18928293          	addi	t0,t0,393 # 57217189 <_sp+0x570160b9>
	li t1, 0x572129f4
    168e:	57213337          	lui	t1,0x57213
    1692:	9f430313          	addi	t1,t1,-1548 # 572129f4 <_sp+0x57011924>
	sra t2, t0, t1
    1696:	4062d3b3          	sra	t2,t0,t1
	sw t2, 4(sp)
    169a:	c21e                	sw	t2,4(sp)
	li t0, 0x9e1ed1c7
    169c:	9e1ed2b7          	lui	t0,0x9e1ed
    16a0:	1c728293          	addi	t0,t0,455 # 9e1ed1c7 <pulp__FC+0x9e1ed1c8>
	li t1, 0xe57344f0
    16a4:	e5734337          	lui	t1,0xe5734
    16a8:	4f030313          	addi	t1,t1,1264 # e57344f0 <pulp__FC+0xe57344f1>
	srl t2, t0, t1
    16ac:	0062d3b3          	srl	t2,t0,t1
	sw t2, 4(sp)
    16b0:	c21e                	sw	t2,4(sp)
	li t0, 0x2864983d
    16b2:	2864a2b7          	lui	t0,0x2864a
    16b6:	83d28293          	addi	t0,t0,-1987 # 2864983d <_sp+0x2844876d>
	li t1, 0x2864983d
    16ba:	2864a337          	lui	t1,0x2864a
    16be:	83d30313          	addi	t1,t1,-1987 # 2864983d <_sp+0x2844876d>
	srl t2, t0, t1
    16c2:	0062d3b3          	srl	t2,t0,t1
	sw t2, 4(sp)
    16c6:	c21e                	sw	t2,4(sp)
	li t0, 0xfcfe882a
    16c8:	fcfe92b7          	lui	t0,0xfcfe9
    16cc:	82a28293          	addi	t0,t0,-2006 # fcfe882a <pulp__FC+0xfcfe882b>
	li t1, 0xa025b1a2
    16d0:	a025b337          	lui	t1,0xa025b
    16d4:	1a230313          	addi	t1,t1,418 # a025b1a2 <pulp__FC+0xa025b1a3>
	sra t2, t0, t1
    16d8:	4062d3b3          	sra	t2,t0,t1
	sw t2, 4(sp)
    16dc:	c21e                	sw	t2,4(sp)
	li t0, 0x800106a1
    16de:	800102b7          	lui	t0,0x80010
    16e2:	6a128293          	addi	t0,t0,1697 # 800106a1 <pulp__FC+0x800106a2>
	li t1, 0x531fd2d3
    16e6:	531fd337          	lui	t1,0x531fd
    16ea:	2d330313          	addi	t1,t1,723 # 531fd2d3 <_sp+0x52ffc203>
	sra t2, t0, t1
    16ee:	4062d3b3          	sra	t2,t0,t1
	sw t2, 4(sp)
    16f2:	c21e                	sw	t2,4(sp)
	li t0, 0xafcf7675
    16f4:	afcf72b7          	lui	t0,0xafcf7
    16f8:	67528293          	addi	t0,t0,1653 # afcf7675 <pulp__FC+0xafcf7676>
	li t1, 0x7a420284
    16fc:	7a420337          	lui	t1,0x7a420
    1700:	28430313          	addi	t1,t1,644 # 7a420284 <_sp+0x7a21f1b4>
	sra t2, t0, t1
    1704:	4062d3b3          	sra	t2,t0,t1
	sw t2, 4(sp)
    1708:	c21e                	sw	t2,4(sp)
	li t0, 0x65eeccfe
    170a:	65eed2b7          	lui	t0,0x65eed
    170e:	cfe28293          	addi	t0,t0,-770 # 65eeccfe <_sp+0x65cebc2e>
	li t1, 0xbd239d49
    1712:	bd23a337          	lui	t1,0xbd23a
    1716:	d4930313          	addi	t1,t1,-695 # bd239d49 <pulp__FC+0xbd239d4a>
	sra t2, t0, t1
    171a:	4062d3b3          	sra	t2,t0,t1
	sw t2, 4(sp)
    171e:	c21e                	sw	t2,4(sp)
	li t0, 0xc38d06c8
    1720:	c38d02b7          	lui	t0,0xc38d0
    1724:	6c828293          	addi	t0,t0,1736 # c38d06c8 <pulp__FC+0xc38d06c9>
	li t1, 0xc3a83b40
    1728:	c3a84337          	lui	t1,0xc3a84
    172c:	b4030313          	addi	t1,t1,-1216 # c3a83b40 <pulp__FC+0xc3a83b41>
	sra t2, t0, t1
    1730:	4062d3b3          	sra	t2,t0,t1
	sw t2, 4(sp)
    1734:	c21e                	sw	t2,4(sp)
	li t0, 0x81edbd52
    1736:	81edc2b7          	lui	t0,0x81edc
    173a:	d5228293          	addi	t0,t0,-686 # 81edbd52 <pulp__FC+0x81edbd53>
	li t1, 0x8129096e
    173e:	81291337          	lui	t1,0x81291
    1742:	96e30313          	addi	t1,t1,-1682 # 8129096e <pulp__FC+0x8129096f>
	sra t2, t0, t1
    1746:	4062d3b3          	sra	t2,t0,t1
	sw t2, 4(sp)
    174a:	c21e                	sw	t2,4(sp)
	li t0, 0xbc4eb967
    174c:	bc4ec2b7          	lui	t0,0xbc4ec
    1750:	96728293          	addi	t0,t0,-1689 # bc4eb967 <pulp__FC+0xbc4eb968>
	li t1, 0xbc4eb967
    1754:	bc4ec337          	lui	t1,0xbc4ec
    1758:	96730313          	addi	t1,t1,-1689 # bc4eb967 <pulp__FC+0xbc4eb968>
	srl t2, t0, t1
    175c:	0062d3b3          	srl	t2,t0,t1
	sw t2, 4(sp)
    1760:	c21e                	sw	t2,4(sp)
	li t0, 0xd1a83362
    1762:	d1a832b7          	lui	t0,0xd1a83
    1766:	36228293          	addi	t0,t0,866 # d1a83362 <pulp__FC+0xd1a83363>
	li t1, 0xf1a83362
    176a:	f1a83337          	lui	t1,0xf1a83
    176e:	36230313          	addi	t1,t1,866 # f1a83362 <pulp__FC+0xf1a83363>
	sra t2, t0, t1
    1772:	4062d3b3          	sra	t2,t0,t1
	sw t2, 4(sp)
    1776:	c21e                	sw	t2,4(sp)
	li t0, 0x6858b25d
    1778:	6858b2b7          	lui	t0,0x6858b
    177c:	25d28293          	addi	t0,t0,605 # 6858b25d <_sp+0x6838a18d>
	li t1, 0x697cb869
    1780:	697cc337          	lui	t1,0x697cc
    1784:	86930313          	addi	t1,t1,-1943 # 697cb869 <_sp+0x695ca799>
	sra t2, t0, t1
    1788:	4062d3b3          	sra	t2,t0,t1
	sw t2, 4(sp)
    178c:	c21e                	sw	t2,4(sp)
	li t0, 0xc9d1b58c
    178e:	c9d1b2b7          	lui	t0,0xc9d1b
    1792:	58c28293          	addi	t0,t0,1420 # c9d1b58c <pulp__FC+0xc9d1b58d>
	li t1, 0xc951b58c
    1796:	c951b337          	lui	t1,0xc951b
    179a:	58c30313          	addi	t1,t1,1420 # c951b58c <pulp__FC+0xc951b58d>
	sra t2, t0, t1
    179e:	4062d3b3          	sra	t2,t0,t1
	sw t2, 4(sp)
    17a2:	c21e                	sw	t2,4(sp)
	li t0, 0x2702ca67
    17a4:	2702d2b7          	lui	t0,0x2702d
    17a8:	a6728293          	addi	t0,t0,-1433 # 2702ca67 <_sp+0x26e2b997>
	li t1, 0x2700ca67
    17ac:	2700d337          	lui	t1,0x2700d
    17b0:	a6730313          	addi	t1,t1,-1433 # 2700ca67 <_sp+0x26e0b997>
	sra t2, t0, t1
    17b4:	4062d3b3          	sra	t2,t0,t1
	sw t2, 4(sp)
    17b8:	c21e                	sw	t2,4(sp)
	li t0, 0x3b8769b7
    17ba:	3b8772b7          	lui	t0,0x3b877
    17be:	9b728293          	addi	t0,t0,-1609 # 3b8769b7 <_sp+0x3b6758e7>
	li t1, 0x7b87d854
    17c2:	7b87e337          	lui	t1,0x7b87e
    17c6:	85430313          	addi	t1,t1,-1964 # 7b87d854 <_sp+0x7b67c784>
	srl t2, t0, t1
    17ca:	0062d3b3          	srl	t2,t0,t1
	sw t2, 4(sp)
    17ce:	c21e                	sw	t2,4(sp)
	li t0, 0x7144691
    17d0:	071442b7          	lui	t0,0x7144
    17d4:	69128293          	addi	t0,t0,1681 # 7144691 <_sp+0x6f435c1>
	li t1, 0x716fd54
    17d8:	07170337          	lui	t1,0x7170
    17dc:	d5430313          	addi	t1,t1,-684 # 716fd54 <_sp+0x6f6ec84>
	sra t2, t0, t1
    17e0:	4062d3b3          	sra	t2,t0,t1
	sw t2, 4(sp)
    17e4:	c21e                	sw	t2,4(sp)
	li t0, 0x42dea43a
    17e6:	42dea2b7          	lui	t0,0x42dea
    17ea:	43a28293          	addi	t0,t0,1082 # 42dea43a <_sp+0x42be936a>
	li t1, 0x42deb43a
    17ee:	42deb337          	lui	t1,0x42deb
    17f2:	43a30313          	addi	t1,t1,1082 # 42deb43a <_sp+0x42bea36a>
	sra t2, t0, t1
    17f6:	4062d3b3          	sra	t2,t0,t1
	sw t2, 4(sp)
    17fa:	c21e                	sw	t2,4(sp)
	li t0, 0xb2a7b617
    17fc:	b2a7b2b7          	lui	t0,0xb2a7b
    1800:	61728293          	addi	t0,t0,1559 # b2a7b617 <pulp__FC+0xb2a7b618>
	li t1, 0xb2a7b617
    1804:	b2a7b337          	lui	t1,0xb2a7b
    1808:	61730313          	addi	t1,t1,1559 # b2a7b617 <pulp__FC+0xb2a7b618>
	sra t2, t0, t1
    180c:	4062d3b3          	sra	t2,t0,t1
	sw t2, 4(sp)
    1810:	c21e                	sw	t2,4(sp)
	li t0, 0x5c381689
    1812:	5c3812b7          	lui	t0,0x5c381
    1816:	68928293          	addi	t0,t0,1673 # 5c381689 <_sp+0x5c1805b9>
	li t1, 0x5cb81689
    181a:	5cb81337          	lui	t1,0x5cb81
    181e:	68930313          	addi	t1,t1,1673 # 5cb81689 <_sp+0x5c9805b9>
	sra t2, t0, t1
    1822:	4062d3b3          	sra	t2,t0,t1
	sw t2, 4(sp)
    1826:	c21e                	sw	t2,4(sp)
	li t0, 0x4085addd
    1828:	4085b2b7          	lui	t0,0x4085b
    182c:	ddd28293          	addi	t0,t0,-547 # 4085addd <_sp+0x40659d0d>
	li t1, 0xc0d804e8
    1830:	c0d80337          	lui	t1,0xc0d80
    1834:	4e830313          	addi	t1,t1,1256 # c0d804e8 <pulp__FC+0xc0d804e9>
	srl t2, t0, t1
    1838:	0062d3b3          	srl	t2,t0,t1
	sw t2, 4(sp)
    183c:	c21e                	sw	t2,4(sp)
	li t0, 0x9b37402a
    183e:	9b3742b7          	lui	t0,0x9b374
    1842:	02a28293          	addi	t0,t0,42 # 9b37402a <pulp__FC+0x9b37402b>
	li t1, 0x9b37402a
    1846:	9b374337          	lui	t1,0x9b374
    184a:	02a30313          	addi	t1,t1,42 # 9b37402a <pulp__FC+0x9b37402b>
	sra t2, t0, t1
    184e:	4062d3b3          	sra	t2,t0,t1
	sw t2, 4(sp)
    1852:	c21e                	sw	t2,4(sp)
	li t0, 0xc9188acc
    1854:	c91892b7          	lui	t0,0xc9189
    1858:	acc28293          	addi	t0,t0,-1332 # c9188acc <pulp__FC+0xc9188acd>
	li t1, 0xc9181486
    185c:	c9181337          	lui	t1,0xc9181
    1860:	48630313          	addi	t1,t1,1158 # c9181486 <pulp__FC+0xc9181487>
	sra t2, t0, t1
    1864:	4062d3b3          	sra	t2,t0,t1
	sw t2, 4(sp)
    1868:	c21e                	sw	t2,4(sp)
	li t0, 0xc31744d6
    186a:	c31742b7          	lui	t0,0xc3174
    186e:	4d628293          	addi	t0,t0,1238 # c31744d6 <pulp__FC+0xc31744d7>
	li t1, 0xc31744d6
    1872:	c3174337          	lui	t1,0xc3174
    1876:	4d630313          	addi	t1,t1,1238 # c31744d6 <pulp__FC+0xc31744d7>
	srl t2, t0, t1
    187a:	0062d3b3          	srl	t2,t0,t1
	sw t2, 4(sp)
    187e:	c21e                	sw	t2,4(sp)
	li t0, 0x9f6e6bb9
    1880:	9f6e72b7          	lui	t0,0x9f6e7
    1884:	bb928293          	addi	t0,t0,-1095 # 9f6e6bb9 <pulp__FC+0x9f6e6bba>
	li t1, 0x9f6a6bb9
    1888:	9f6a7337          	lui	t1,0x9f6a7
    188c:	bb930313          	addi	t1,t1,-1095 # 9f6a6bb9 <pulp__FC+0x9f6a6bba>
	sra t2, t0, t1
    1890:	4062d3b3          	sra	t2,t0,t1
	sw t2, 4(sp)
    1894:	c21e                	sw	t2,4(sp)
	li t0, 0xd017d64a
    1896:	d017d2b7          	lui	t0,0xd017d
    189a:	64a28293          	addi	t0,t0,1610 # d017d64a <pulp__FC+0xd017d64b>
	li t1, 0xd4d15dd7
    189e:	d4d16337          	lui	t1,0xd4d16
    18a2:	dd730313          	addi	t1,t1,-553 # d4d15dd7 <pulp__FC+0xd4d15dd8>
	sra t2, t0, t1
    18a6:	4062d3b3          	sra	t2,t0,t1
	sw t2, 4(sp)
    18aa:	c21e                	sw	t2,4(sp)
	li t0, 0xc77597f7
    18ac:	c77592b7          	lui	t0,0xc7759
    18b0:	7f728293          	addi	t0,t0,2039 # c77597f7 <pulp__FC+0xc77597f8>
	li t1, 0xc73597f7
    18b4:	c7359337          	lui	t1,0xc7359
    18b8:	7f730313          	addi	t1,t1,2039 # c73597f7 <pulp__FC+0xc73597f8>
	srl t2, t0, t1
    18bc:	0062d3b3          	srl	t2,t0,t1
	sw t2, 4(sp)
    18c0:	c21e                	sw	t2,4(sp)
	li t0, 0xc80cced7
    18c2:	c80cd2b7          	lui	t0,0xc80cd
    18c6:	ed728293          	addi	t0,t0,-297 # c80cced7 <pulp__FC+0xc80cced8>
	li t1, 0xc80cced5
    18ca:	c80cd337          	lui	t1,0xc80cd
    18ce:	ed530313          	addi	t1,t1,-299 # c80cced5 <pulp__FC+0xc80cced6>
	sra t2, t0, t1
    18d2:	4062d3b3          	sra	t2,t0,t1
	sw t2, 4(sp)
    18d6:	c21e                	sw	t2,4(sp)
	li t0, 0x37d2b235
    18d8:	37d2b2b7          	lui	t0,0x37d2b
    18dc:	23528293          	addi	t0,t0,565 # 37d2b235 <_sp+0x37b2a165>
	li t1, 0x37f2b235
    18e0:	37f2b337          	lui	t1,0x37f2b
    18e4:	23530313          	addi	t1,t1,565 # 37f2b235 <_sp+0x37d2a165>
	srl t2, t0, t1
    18e8:	0062d3b3          	srl	t2,t0,t1
	sw t2, 4(sp)
    18ec:	c21e                	sw	t2,4(sp)
	li t0, 0xdb8c6a1c
    18ee:	db8c72b7          	lui	t0,0xdb8c7
    18f2:	a1c28293          	addi	t0,t0,-1508 # db8c6a1c <pulp__FC+0xdb8c6a1d>
	li t1, 0xdbcc6a1c
    18f6:	dbcc7337          	lui	t1,0xdbcc7
    18fa:	a1c30313          	addi	t1,t1,-1508 # dbcc6a1c <pulp__FC+0xdbcc6a1d>
	sra t2, t0, t1
    18fe:	4062d3b3          	sra	t2,t0,t1
	sw t2, 4(sp)
    1902:	c21e                	sw	t2,4(sp)
	li t0, 0x68f78d2a
    1904:	68f792b7          	lui	t0,0x68f79
    1908:	d2a28293          	addi	t0,t0,-726 # 68f78d2a <_sp+0x68d77c5a>
	li t1, 0x68f7cd2a
    190c:	68f7d337          	lui	t1,0x68f7d
    1910:	d2a30313          	addi	t1,t1,-726 # 68f7cd2a <_sp+0x68d7bc5a>
	sra t2, t0, t1
    1914:	4062d3b3          	sra	t2,t0,t1
	sw t2, 4(sp)
    1918:	c21e                	sw	t2,4(sp)
	li t0, 0xf625fdb
    191a:	0f6262b7          	lui	t0,0xf626
    191e:	fdb28293          	addi	t0,t0,-37 # f625fdb <_sp+0xf424f0b>
	li t1, 0xf625fdb
    1922:	0f626337          	lui	t1,0xf626
    1926:	fdb30313          	addi	t1,t1,-37 # f625fdb <_sp+0xf424f0b>
	sra t2, t0, t1
    192a:	4062d3b3          	sra	t2,t0,t1
	sw t2, 4(sp)
    192e:	c21e                	sw	t2,4(sp)
	li t0, 0x617965f3
    1930:	617962b7          	lui	t0,0x61796
    1934:	5f328293          	addi	t0,t0,1523 # 617965f3 <_sp+0x61595523>
	li t1, 0x617964f3
    1938:	61796337          	lui	t1,0x61796
    193c:	4f330313          	addi	t1,t1,1267 # 617964f3 <_sp+0x61595423>
	sra t2, t0, t1
    1940:	4062d3b3          	sra	t2,t0,t1
	sw t2, 4(sp)
    1944:	c21e                	sw	t2,4(sp)
	li t0, 0x67c750e5
    1946:	67c752b7          	lui	t0,0x67c75
    194a:	0e528293          	addi	t0,t0,229 # 67c750e5 <_sp+0x67a74015>
	li t1, 0x67c750e1
    194e:	67c75337          	lui	t1,0x67c75
    1952:	0e130313          	addi	t1,t1,225 # 67c750e1 <_sp+0x67a74011>
	sra t2, t0, t1
    1956:	4062d3b3          	sra	t2,t0,t1
	sw t2, 4(sp)
    195a:	c21e                	sw	t2,4(sp)
	li t0, 0x9b763d49
    195c:	9b7642b7          	lui	t0,0x9b764
    1960:	d4928293          	addi	t0,t0,-695 # 9b763d49 <pulp__FC+0x9b763d4a>
	li t1, 0x9b761d49
    1964:	9b762337          	lui	t1,0x9b762
    1968:	d4930313          	addi	t1,t1,-695 # 9b761d49 <pulp__FC+0x9b761d4a>
	srl t2, t0, t1
    196c:	0062d3b3          	srl	t2,t0,t1
	sw t2, 4(sp)
    1970:	c21e                	sw	t2,4(sp)
	li t0, 0xb0037e84
    1972:	b00382b7          	lui	t0,0xb0038
    1976:	e8428293          	addi	t0,t0,-380 # b0037e84 <pulp__FC+0xb0037e85>
	li t1, 0xb8037e84
    197a:	b8038337          	lui	t1,0xb8038
    197e:	e8430313          	addi	t1,t1,-380 # b8037e84 <pulp__FC+0xb8037e85>
	sra t2, t0, t1
    1982:	4062d3b3          	sra	t2,t0,t1
	sw t2, 4(sp)
    1986:	c21e                	sw	t2,4(sp)
	li t0, 0x99b7c755
    1988:	99b7c2b7          	lui	t0,0x99b7c
    198c:	75528293          	addi	t0,t0,1877 # 99b7c755 <pulp__FC+0x99b7c756>
	li t1, 0x99b7c355
    1990:	99b7c337          	lui	t1,0x99b7c
    1994:	35530313          	addi	t1,t1,853 # 99b7c355 <pulp__FC+0x99b7c356>
	sra t2, t0, t1
    1998:	4062d3b3          	sra	t2,t0,t1
	sw t2, 4(sp)
    199c:	c21e                	sw	t2,4(sp)
	li t0, 0x1b9c9994
    199e:	1b9ca2b7          	lui	t0,0x1b9ca
    19a2:	99428293          	addi	t0,t0,-1644 # 1b9c9994 <_sp+0x1b7c88c4>
	li t1, 0x1b9c9b94
    19a6:	1b9ca337          	lui	t1,0x1b9ca
    19aa:	b9430313          	addi	t1,t1,-1132 # 1b9c9b94 <_sp+0x1b7c8ac4>
	srl t2, t0, t1
    19ae:	0062d3b3          	srl	t2,t0,t1
	sw t2, 4(sp)
    19b2:	c21e                	sw	t2,4(sp)
	li t0, 0xde2d53a7
    19b4:	de2d52b7          	lui	t0,0xde2d5
    19b8:	3a728293          	addi	t0,t0,935 # de2d53a7 <pulp__FC+0xde2d53a8>
	li t1, 0xde2d13a7
    19bc:	de2d1337          	lui	t1,0xde2d1
    19c0:	3a730313          	addi	t1,t1,935 # de2d13a7 <pulp__FC+0xde2d13a8>
	srl t2, t0, t1
    19c4:	0062d3b3          	srl	t2,t0,t1
	sw t2, 4(sp)
    19c8:	c21e                	sw	t2,4(sp)
	li t0, 0xfdd139e6
    19ca:	fdd142b7          	lui	t0,0xfdd14
    19ce:	9e628293          	addi	t0,t0,-1562 # fdd139e6 <pulp__FC+0xfdd139e7>
	li t1, 0xfdd13966
    19d2:	fdd14337          	lui	t1,0xfdd14
    19d6:	96630313          	addi	t1,t1,-1690 # fdd13966 <pulp__FC+0xfdd13967>
	srl t2, t0, t1
    19da:	0062d3b3          	srl	t2,t0,t1
	sw t2, 4(sp)
    19de:	c21e                	sw	t2,4(sp)
	li t0, 0xf1d14ef6
    19e0:	f1d152b7          	lui	t0,0xf1d15
    19e4:	ef628293          	addi	t0,t0,-266 # f1d14ef6 <pulp__FC+0xf1d14ef7>
	li t1, 0xf1d14eb6
    19e8:	f1d15337          	lui	t1,0xf1d15
    19ec:	eb630313          	addi	t1,t1,-330 # f1d14eb6 <pulp__FC+0xf1d14eb7>
	sra t2, t0, t1
    19f0:	4062d3b3          	sra	t2,t0,t1
	sw t2, 4(sp)
    19f4:	c21e                	sw	t2,4(sp)
	li t0, 0x28606ad
    19f6:	028602b7          	lui	t0,0x2860
    19fa:	6ad28293          	addi	t0,t0,1709 # 28606ad <_sp+0x265f5dd>
	li t1, 0x128606ad
    19fe:	12860337          	lui	t1,0x12860
    1a02:	6ad30313          	addi	t1,t1,1709 # 128606ad <_sp+0x1265f5dd>
	sra t2, t0, t1
    1a06:	4062d3b3          	sra	t2,t0,t1
	sw t2, 4(sp)
    1a0a:	c21e                	sw	t2,4(sp)
	li t0, 0xd9a75c22
    1a0c:	d9a762b7          	lui	t0,0xd9a76
    1a10:	c2228293          	addi	t0,t0,-990 # d9a75c22 <pulp__FC+0xd9a75c23>
	li t1, 0xd9a75c2a
    1a14:	d9a76337          	lui	t1,0xd9a76
    1a18:	c2a30313          	addi	t1,t1,-982 # d9a75c2a <pulp__FC+0xd9a75c2b>
	sra t2, t0, t1
    1a1c:	4062d3b3          	sra	t2,t0,t1
	sw t2, 4(sp)
    1a20:	c21e                	sw	t2,4(sp)
	li t0, 0x759e04f3
    1a22:	759e02b7          	lui	t0,0x759e0
    1a26:	4f328293          	addi	t0,t0,1267 # 759e04f3 <_sp+0x757df423>
	li t1, 0x719e04f3
    1a2a:	719e0337          	lui	t1,0x719e0
    1a2e:	4f330313          	addi	t1,t1,1267 # 719e04f3 <_sp+0x717df423>
	sra t2, t0, t1
    1a32:	4062d3b3          	sra	t2,t0,t1
	sw t2, 4(sp)
    1a36:	c21e                	sw	t2,4(sp)
	li t0, 0xfcbd0ba5
    1a38:	fcbd12b7          	lui	t0,0xfcbd1
    1a3c:	ba528293          	addi	t0,t0,-1115 # fcbd0ba5 <pulp__FC+0xfcbd0ba6>
	li t1, 0xfebd0ba5
    1a40:	febd1337          	lui	t1,0xfebd1
    1a44:	ba530313          	addi	t1,t1,-1115 # febd0ba5 <pulp__FC+0xfebd0ba6>
	srl t2, t0, t1
    1a48:	0062d3b3          	srl	t2,t0,t1
	sw t2, 4(sp)
    1a4c:	c21e                	sw	t2,4(sp)
	li t0, 0xdaa65f6b
    1a4e:	daa662b7          	lui	t0,0xdaa66
    1a52:	f6b28293          	addi	t0,t0,-149 # daa65f6b <pulp__FC+0xdaa65f6c>
	li t1, 0xcaa60761
    1a56:	caa60337          	lui	t1,0xcaa60
    1a5a:	76130313          	addi	t1,t1,1889 # caa60761 <pulp__FC+0xcaa60762>
	sra t2, t0, t1
    1a5e:	4062d3b3          	sra	t2,t0,t1
	sw t2, 4(sp)
    1a62:	c21e                	sw	t2,4(sp)
	li t0, 0x6862998
    1a64:	068632b7          	lui	t0,0x6863
    1a68:	99828293          	addi	t0,t0,-1640 # 6862998 <_sp+0x66618c8>
	li t1, 0x686a998
    1a6c:	0686b337          	lui	t1,0x686b
    1a70:	99830313          	addi	t1,t1,-1640 # 686a998 <_sp+0x66698c8>
	srl t2, t0, t1
    1a74:	0062d3b3          	srl	t2,t0,t1
	sw t2, 4(sp)
    1a78:	c21e                	sw	t2,4(sp)
	li t0, 0xc346a631
    1a7a:	c346a2b7          	lui	t0,0xc346a
    1a7e:	63128293          	addi	t0,t0,1585 # c346a631 <pulp__FC+0xc346a632>
	li t1, 0xc346a671
    1a82:	c346a337          	lui	t1,0xc346a
    1a86:	67130313          	addi	t1,t1,1649 # c346a671 <pulp__FC+0xc346a672>
	sra t2, t0, t1
    1a8a:	4062d3b3          	sra	t2,t0,t1
	sw t2, 4(sp)
    1a8e:	c21e                	sw	t2,4(sp)
	li t0, 0x7e94ae68
    1a90:	7e94b2b7          	lui	t0,0x7e94b
    1a94:	e6828293          	addi	t0,t0,-408 # 7e94ae68 <_sp+0x7e749d98>
	li t1, 0x7e84d8e0
    1a98:	7e84e337          	lui	t1,0x7e84e
    1a9c:	8e030313          	addi	t1,t1,-1824 # 7e84d8e0 <_sp+0x7e64c810>
	sra t2, t0, t1
    1aa0:	4062d3b3          	sra	t2,t0,t1
	sw t2, 4(sp)
    1aa4:	c21e                	sw	t2,4(sp)
	li t0, 0xe095191a
    1aa6:	e09522b7          	lui	t0,0xe0952
    1aaa:	91a28293          	addi	t0,t0,-1766 # e095191a <pulp__FC+0xe095191b>
	li t1, 0x6095d92d
    1aae:	6095e337          	lui	t1,0x6095e
    1ab2:	92d30313          	addi	t1,t1,-1747 # 6095d92d <_sp+0x6075c85d>
	sra t2, t0, t1
    1ab6:	4062d3b3          	sra	t2,t0,t1
	sw t2, 4(sp)
    1aba:	c21e                	sw	t2,4(sp)
	li t0, 0x5b005405
    1abc:	5b0052b7          	lui	t0,0x5b005
    1ac0:	40528293          	addi	t0,t0,1029 # 5b005405 <_sp+0x5ae04335>
	li t1, 0x5b005404
    1ac4:	5b005337          	lui	t1,0x5b005
    1ac8:	40430313          	addi	t1,t1,1028 # 5b005404 <_sp+0x5ae04334>
	srl t2, t0, t1
    1acc:	0062d3b3          	srl	t2,t0,t1
	sw t2, 4(sp)
    1ad0:	c21e                	sw	t2,4(sp)
	li t0, 0xa5ba8421
    1ad2:	a5ba82b7          	lui	t0,0xa5ba8
    1ad6:	42128293          	addi	t0,t0,1057 # a5ba8421 <pulp__FC+0xa5ba8422>
	li t1, 0xa5ba84a1
    1ada:	a5ba8337          	lui	t1,0xa5ba8
    1ade:	4a130313          	addi	t1,t1,1185 # a5ba84a1 <pulp__FC+0xa5ba84a2>
	sra t2, t0, t1
    1ae2:	4062d3b3          	sra	t2,t0,t1
	sw t2, 4(sp)
    1ae6:	c21e                	sw	t2,4(sp)
	li t0, 0x7ac39d7f
    1ae8:	7ac3a2b7          	lui	t0,0x7ac3a
    1aec:	d7f28293          	addi	t0,t0,-641 # 7ac39d7f <_sp+0x7aa38caf>
	li t1, 0x72c39d7f
    1af0:	72c3a337          	lui	t1,0x72c3a
    1af4:	d7f30313          	addi	t1,t1,-641 # 72c39d7f <_sp+0x72a38caf>
	sra t2, t0, t1
    1af8:	4062d3b3          	sra	t2,t0,t1
	sw t2, 4(sp)
    1afc:	c21e                	sw	t2,4(sp)
	li t0, 0xffffffff
    1afe:	fff00293          	li	t0,-1
	li t1, 0xa8a29a93
    1b02:	a8a2a337          	lui	t1,0xa8a2a
    1b06:	a9330313          	addi	t1,t1,-1389 # a8a29a93 <pulp__FC+0xa8a29a94>
	srl t2, t0, t1
    1b0a:	0062d3b3          	srl	t2,t0,t1
	sw t2, 4(sp)
    1b0e:	c21e                	sw	t2,4(sp)
	li t0, 0xf2e9d6e6
    1b10:	f2e9d2b7          	lui	t0,0xf2e9d
    1b14:	6e628293          	addi	t0,t0,1766 # f2e9d6e6 <pulp__FC+0xf2e9d6e7>
	li t1, 0x3d8ff98
    1b18:	03d90337          	lui	t1,0x3d90
    1b1c:	f9830313          	addi	t1,t1,-104 # 3d8ff98 <_sp+0x3b8eec8>
	srl t2, t0, t1
    1b20:	0062d3b3          	srl	t2,t0,t1
	sw t2, 4(sp)
    1b24:	c21e                	sw	t2,4(sp)
	li t0, 0xe708b55d
    1b26:	e708b2b7          	lui	t0,0xe708b
    1b2a:	55d28293          	addi	t0,t0,1373 # e708b55d <pulp__FC+0xe708b55e>
	li t1, 0xe700c89e
    1b2e:	e700d337          	lui	t1,0xe700d
    1b32:	89e30313          	addi	t1,t1,-1890 # e700c89e <pulp__FC+0xe700c89f>
	srl t2, t0, t1
    1b36:	0062d3b3          	srl	t2,t0,t1
	sw t2, 4(sp)
    1b3a:	c21e                	sw	t2,4(sp)
	li t0, 0x9ac91f88
    1b3c:	9ac922b7          	lui	t0,0x9ac92
    1b40:	f8828293          	addi	t0,t0,-120 # 9ac91f88 <pulp__FC+0x9ac91f89>
	li t1, 0x9ac91f80
    1b44:	9ac92337          	lui	t1,0x9ac92
    1b48:	f8030313          	addi	t1,t1,-128 # 9ac91f80 <pulp__FC+0x9ac91f81>
	srl t2, t0, t1
    1b4c:	0062d3b3          	srl	t2,t0,t1
	sw t2, 4(sp)
    1b50:	c21e                	sw	t2,4(sp)
	li t0, 0x862e218c
    1b52:	862e22b7          	lui	t0,0x862e2
    1b56:	18c28293          	addi	t0,t0,396 # 862e218c <pulp__FC+0x862e218d>
	li t1, 0x862e21ac
    1b5a:	862e2337          	lui	t1,0x862e2
    1b5e:	1ac30313          	addi	t1,t1,428 # 862e21ac <pulp__FC+0x862e21ad>
	sra t2, t0, t1
    1b62:	4062d3b3          	sra	t2,t0,t1
	sw t2, 4(sp)
    1b66:	c21e                	sw	t2,4(sp)
	li t0, 0x44f2360e
    1b68:	44f232b7          	lui	t0,0x44f23
    1b6c:	60e28293          	addi	t0,t0,1550 # 44f2360e <_sp+0x44d2253e>
	li t1, 0x44f38113
    1b70:	44f38337          	lui	t1,0x44f38
    1b74:	11330313          	addi	t1,t1,275 # 44f38113 <_sp+0x44d37043>
	srl t2, t0, t1
    1b78:	0062d3b3          	srl	t2,t0,t1
	sw t2, 4(sp)
    1b7c:	c21e                	sw	t2,4(sp)
	li t0, 0xc5145e80
    1b7e:	c51462b7          	lui	t0,0xc5146
    1b82:	e8028293          	addi	t0,t0,-384 # c5145e80 <pulp__FC+0xc5145e81>
	li t1, 0xc5144e80
    1b86:	c5145337          	lui	t1,0xc5145
    1b8a:	e8030313          	addi	t1,t1,-384 # c5144e80 <pulp__FC+0xc5144e81>
	srl t2, t0, t1
    1b8e:	0062d3b3          	srl	t2,t0,t1
	sw t2, 4(sp)
    1b92:	c21e                	sw	t2,4(sp)
	li t0, 0xbc9dca97
    1b94:	bc9dd2b7          	lui	t0,0xbc9dd
    1b98:	a9728293          	addi	t0,t0,-1385 # bc9dca97 <pulp__FC+0xbc9dca98>
	li t1, 0xbc9dca87
    1b9c:	bc9dd337          	lui	t1,0xbc9dd
    1ba0:	a8730313          	addi	t1,t1,-1401 # bc9dca87 <pulp__FC+0xbc9dca88>
	sra t2, t0, t1
    1ba4:	4062d3b3          	sra	t2,t0,t1
	sw t2, 4(sp)
    1ba8:	c21e                	sw	t2,4(sp)
	li t0, 0x16c17176
    1baa:	16c172b7          	lui	t0,0x16c17
    1bae:	17628293          	addi	t0,t0,374 # 16c17176 <_sp+0x16a160a6>
	li t1, 0xb021aa89
    1bb2:	b021b337          	lui	t1,0xb021b
    1bb6:	a8930313          	addi	t1,t1,-1399 # b021aa89 <pulp__FC+0xb021aa8a>
	sra t2, t0, t1
    1bba:	4062d3b3          	sra	t2,t0,t1
	sw t2, 4(sp)
    1bbe:	c21e                	sw	t2,4(sp)
	li t0, 0x214078bb
    1bc0:	214082b7          	lui	t0,0x21408
    1bc4:	8bb28293          	addi	t0,t0,-1861 # 214078bb <_sp+0x212067eb>
	li t1, 0x5812d548
    1bc8:	5812d337          	lui	t1,0x5812d
    1bcc:	54830313          	addi	t1,t1,1352 # 5812d548 <_sp+0x57f2c478>
	srl t2, t0, t1
    1bd0:	0062d3b3          	srl	t2,t0,t1
	sw t2, 4(sp)
    1bd4:	c21e                	sw	t2,4(sp)
	li t0, 0x80b0dc9d
    1bd6:	80b0e2b7          	lui	t0,0x80b0e
    1bda:	c9d28293          	addi	t0,t0,-867 # 80b0dc9d <pulp__FC+0x80b0dc9e>
	li t1, 0xae086ea6
    1bde:	ae087337          	lui	t1,0xae087
    1be2:	ea630313          	addi	t1,t1,-346 # ae086ea6 <pulp__FC+0xae086ea7>
	sra t2, t0, t1
    1be6:	4062d3b3          	sra	t2,t0,t1
	sw t2, 4(sp)
    1bea:	c21e                	sw	t2,4(sp)
	li t0, 0xb581627b
    1bec:	b58162b7          	lui	t0,0xb5816
    1bf0:	27b28293          	addi	t0,t0,635 # b581627b <pulp__FC+0xb581627c>
	li t1, 0x983b51ac
    1bf4:	983b5337          	lui	t1,0x983b5
    1bf8:	1ac30313          	addi	t1,t1,428 # 983b51ac <pulp__FC+0x983b51ad>
	sra t2, t0, t1
    1bfc:	4062d3b3          	sra	t2,t0,t1
	sw t2, 4(sp)
    1c00:	c21e                	sw	t2,4(sp)
	li t0, 0xa6452b5a
    1c02:	a64532b7          	lui	t0,0xa6453
    1c06:	b5a28293          	addi	t0,t0,-1190 # a6452b5a <pulp__FC+0xa6452b5b>
	li t1, 0xa6452b5b
    1c0a:	a6453337          	lui	t1,0xa6453
    1c0e:	b5b30313          	addi	t1,t1,-1189 # a6452b5b <pulp__FC+0xa6452b5c>
	sra t2, t0, t1
    1c12:	4062d3b3          	sra	t2,t0,t1
	sw t2, 4(sp)
    1c16:	c21e                	sw	t2,4(sp)
	li t0, 0xa0a13ae5
    1c18:	a0a142b7          	lui	t0,0xa0a14
    1c1c:	ae528293          	addi	t0,t0,-1307 # a0a13ae5 <pulp__FC+0xa0a13ae6>
	li t1, 0x78f200c7
    1c20:	78f20337          	lui	t1,0x78f20
    1c24:	0c730313          	addi	t1,t1,199 # 78f200c7 <_sp+0x78d1eff7>
	srl t2, t0, t1
    1c28:	0062d3b3          	srl	t2,t0,t1
	sw t2, 4(sp)
    1c2c:	c21e                	sw	t2,4(sp)
	li t0, 0x3c7d4bad
    1c2e:	3c7d52b7          	lui	t0,0x3c7d5
    1c32:	bad28293          	addi	t0,t0,-1107 # 3c7d4bad <_sp+0x3c5d3add>
	li t1, 0x3c7d43ad
    1c36:	3c7d4337          	lui	t1,0x3c7d4
    1c3a:	3ad30313          	addi	t1,t1,941 # 3c7d43ad <_sp+0x3c5d32dd>
	srl t2, t0, t1
    1c3e:	0062d3b3          	srl	t2,t0,t1
	sw t2, 4(sp)
    1c42:	c21e                	sw	t2,4(sp)
	li t0, 0xd7a199ff
    1c44:	d7a1a2b7          	lui	t0,0xd7a1a
    1c48:	9ff28293          	addi	t0,t0,-1537 # d7a199ff <pulp__FC+0xd7a19a00>
	li t1, 0x99c7a4b
    1c4c:	099c8337          	lui	t1,0x99c8
    1c50:	a4b30313          	addi	t1,t1,-1461 # 99c7a4b <_sp+0x97c697b>
	srl t2, t0, t1
    1c54:	0062d3b3          	srl	t2,t0,t1
	sw t2, 4(sp)
    1c58:	c21e                	sw	t2,4(sp)
	li t0, 0x57d1c36f
    1c5a:	57d1c2b7          	lui	t0,0x57d1c
    1c5e:	36f28293          	addi	t0,t0,879 # 57d1c36f <_sp+0x57b1b29f>
	li t1, 0x57d1e36f
    1c62:	57d1e337          	lui	t1,0x57d1e
    1c66:	36f30313          	addi	t1,t1,879 # 57d1e36f <_sp+0x57b1d29f>
	sra t2, t0, t1
    1c6a:	4062d3b3          	sra	t2,t0,t1
	sw t2, 4(sp)
    1c6e:	c21e                	sw	t2,4(sp)
	li t0, 0xbfc90504
    1c70:	bfc902b7          	lui	t0,0xbfc90
    1c74:	50428293          	addi	t0,t0,1284 # bfc90504 <pulp__FC+0xbfc90505>
	li t1, 0x5c9f8a7b
    1c78:	5c9f9337          	lui	t1,0x5c9f9
    1c7c:	a7b30313          	addi	t1,t1,-1413 # 5c9f8a7b <_sp+0x5c7f79ab>
	sra t2, t0, t1
    1c80:	4062d3b3          	sra	t2,t0,t1
	sw t2, 4(sp)
    1c84:	c21e                	sw	t2,4(sp)
	li t0, 0xa7e48282
    1c86:	a7e482b7          	lui	t0,0xa7e48
    1c8a:	28228293          	addi	t0,t0,642 # a7e48282 <pulp__FC+0xa7e48283>
	li t1, 0x2e4b453f
    1c8e:	2e4b4337          	lui	t1,0x2e4b4
    1c92:	53f30313          	addi	t1,t1,1343 # 2e4b453f <_sp+0x2e2b346f>
	sra t2, t0, t1
    1c96:	4062d3b3          	sra	t2,t0,t1
	sw t2, 4(sp)
    1c9a:	c21e                	sw	t2,4(sp)
	li t0, 0x43fac227
    1c9c:	43fac2b7          	lui	t0,0x43fac
    1ca0:	22728293          	addi	t0,t0,551 # 43fac227 <_sp+0x43dab157>
	li t1, 0x43faca27
    1ca4:	43fad337          	lui	t1,0x43fad
    1ca8:	a2730313          	addi	t1,t1,-1497 # 43faca27 <_sp+0x43dab957>
	srl t2, t0, t1
    1cac:	0062d3b3          	srl	t2,t0,t1
	sw t2, 4(sp)
    1cb0:	c21e                	sw	t2,4(sp)
	li t0, 0x4b7cc8ce
    1cb2:	4b7cd2b7          	lui	t0,0x4b7cd
    1cb6:	8ce28293          	addi	t0,t0,-1842 # 4b7cc8ce <_sp+0x4b5cb7fe>
	li t1, 0xa206fddd
    1cba:	a2070337          	lui	t1,0xa2070
    1cbe:	ddd30313          	addi	t1,t1,-547 # a206fddd <pulp__FC+0xa206fdde>
	sra t2, t0, t1
    1cc2:	4062d3b3          	sra	t2,t0,t1
	sw t2, 4(sp)
    1cc6:	c21e                	sw	t2,4(sp)
	li t0, 0xcfbb061c
    1cc8:	cfbb02b7          	lui	t0,0xcfbb0
    1ccc:	61c28293          	addi	t0,t0,1564 # cfbb061c <pulp__FC+0xcfbb061d>
	li t1, 0xce3e2b4d
    1cd0:	ce3e3337          	lui	t1,0xce3e3
    1cd4:	b4d30313          	addi	t1,t1,-1203 # ce3e2b4d <pulp__FC+0xce3e2b4e>
	sra t2, t0, t1
    1cd8:	4062d3b3          	sra	t2,t0,t1
	sw t2, 4(sp)
    1cdc:	c21e                	sw	t2,4(sp)

	// slt stlu
	li t0, 0x84b5168b
    1cde:	84b512b7          	lui	t0,0x84b51
    1ce2:	68b28293          	addi	t0,t0,1675 # 84b5168b <pulp__FC+0x84b5168c>
	li t1, 0x84b5168b
    1ce6:	84b51337          	lui	t1,0x84b51
    1cea:	68b30313          	addi	t1,t1,1675 # 84b5168b <pulp__FC+0x84b5168c>
	slt t2, t0, t1
    1cee:	0062a3b3          	slt	t2,t0,t1
	sw t2, 4(sp)
    1cf2:	c21e                	sw	t2,4(sp)
	li t0, 0xe347efaf
    1cf4:	e347f2b7          	lui	t0,0xe347f
    1cf8:	faf28293          	addi	t0,t0,-81 # e347efaf <pulp__FC+0xe347efb0>
	li t1, 0xe347efaf
    1cfc:	e347f337          	lui	t1,0xe347f
    1d00:	faf30313          	addi	t1,t1,-81 # e347efaf <pulp__FC+0xe347efb0>
	slt t2, t0, t1
    1d04:	0062a3b3          	slt	t2,t0,t1
	sw t2, 4(sp)
    1d08:	c21e                	sw	t2,4(sp)
	li t0, 0xa73bca45
    1d0a:	a73bd2b7          	lui	t0,0xa73bd
    1d0e:	a4528293          	addi	t0,t0,-1467 # a73bca45 <pulp__FC+0xa73bca46>
	li t1, 0xa73bca4d
    1d12:	a73bd337          	lui	t1,0xa73bd
    1d16:	a4d30313          	addi	t1,t1,-1459 # a73bca4d <pulp__FC+0xa73bca4e>
	slt t2, t0, t1
    1d1a:	0062a3b3          	slt	t2,t0,t1
	sw t2, 4(sp)
    1d1e:	c21e                	sw	t2,4(sp)
	li t0, 0xffdfbd08
    1d20:	ffdfc2b7          	lui	t0,0xffdfc
    1d24:	d0828293          	addi	t0,t0,-760 # ffdfbd08 <pulp__FC+0xffdfbd09>
	li t1, 0x2f0f2bf
    1d28:	02f0f337          	lui	t1,0x2f0f
    1d2c:	2bf30313          	addi	t1,t1,703 # 2f0f2bf <_sp+0x2d0e1ef>
	sltu t2, t0, t1
    1d30:	0062b3b3          	sltu	t2,t0,t1
	sw t2, 4(sp)
    1d34:	c21e                	sw	t2,4(sp)
	li t0, 0x56ec83fe
    1d36:	56ec82b7          	lui	t0,0x56ec8
    1d3a:	3fe28293          	addi	t0,t0,1022 # 56ec83fe <_sp+0x56cc732e>
	li t1, 0x56ecaffe
    1d3e:	56ecb337          	lui	t1,0x56ecb
    1d42:	ffe30313          	addi	t1,t1,-2 # 56ecaffe <_sp+0x56cc9f2e>
	slt t2, t0, t1
    1d46:	0062a3b3          	slt	t2,t0,t1
	sw t2, 4(sp)
    1d4a:	c21e                	sw	t2,4(sp)
	li t0, 0x84a8d947
    1d4c:	84a8e2b7          	lui	t0,0x84a8e
    1d50:	94728293          	addi	t0,t0,-1721 # 84a8d947 <pulp__FC+0x84a8d948>
	li t1, 0x851bc185
    1d54:	851bc337          	lui	t1,0x851bc
    1d58:	18530313          	addi	t1,t1,389 # 851bc185 <pulp__FC+0x851bc186>
	slt t2, t0, t1
    1d5c:	0062a3b3          	slt	t2,t0,t1
	sw t2, 4(sp)
    1d60:	c21e                	sw	t2,4(sp)
	li t0, 0xf21ade95
    1d62:	f21ae2b7          	lui	t0,0xf21ae
    1d66:	e9528293          	addi	t0,t0,-363 # f21ade95 <pulp__FC+0xf21ade96>
	li t1, 0xfa1ade95
    1d6a:	fa1ae337          	lui	t1,0xfa1ae
    1d6e:	e9530313          	addi	t1,t1,-363 # fa1ade95 <pulp__FC+0xfa1ade96>
	sltu t2, t0, t1
    1d72:	0062b3b3          	sltu	t2,t0,t1
	sw t2, 4(sp)
    1d76:	c21e                	sw	t2,4(sp)
	li t0, 0x6acc501
    1d78:	06acc2b7          	lui	t0,0x6acc
    1d7c:	50128293          	addi	t0,t0,1281 # 6acc501 <_sp+0x68cb431>
	li t1, 0x6acc4d2
    1d80:	06acc337          	lui	t1,0x6acc
    1d84:	4d230313          	addi	t1,t1,1234 # 6acc4d2 <_sp+0x68cb402>
	slt t2, t0, t1
    1d88:	0062a3b3          	slt	t2,t0,t1
	sw t2, 4(sp)
    1d8c:	c21e                	sw	t2,4(sp)
	li t0, 0xf2567974
    1d8e:	f25682b7          	lui	t0,0xf2568
    1d92:	97428293          	addi	t0,t0,-1676 # f2567974 <pulp__FC+0xf2567975>
	li t1, 0xf6561653
    1d96:	f6561337          	lui	t1,0xf6561
    1d9a:	65330313          	addi	t1,t1,1619 # f6561653 <pulp__FC+0xf6561654>
	sltu t2, t0, t1
    1d9e:	0062b3b3          	sltu	t2,t0,t1
	sw t2, 4(sp)
    1da2:	c21e                	sw	t2,4(sp)
	li t0, 0xd6776892
    1da4:	d67772b7          	lui	t0,0xd6777
    1da8:	89228293          	addi	t0,t0,-1902 # d6776892 <pulp__FC+0xd6776893>
	li t1, 0xd6028f24
    1dac:	d6029337          	lui	t1,0xd6029
    1db0:	f2430313          	addi	t1,t1,-220 # d6028f24 <pulp__FC+0xd6028f25>
	slt t2, t0, t1
    1db4:	0062a3b3          	slt	t2,t0,t1
	sw t2, 4(sp)
    1db8:	c21e                	sw	t2,4(sp)
	li t0, 0xd273f441
    1dba:	d273f2b7          	lui	t0,0xd273f
    1dbe:	44128293          	addi	t0,t0,1089 # d273f441 <pulp__FC+0xd273f442>
	li t1, 0xc8170795
    1dc2:	c8170337          	lui	t1,0xc8170
    1dc6:	79530313          	addi	t1,t1,1941 # c8170795 <pulp__FC+0xc8170796>
	sltu t2, t0, t1
    1dca:	0062b3b3          	sltu	t2,t0,t1
	sw t2, 4(sp)
    1dce:	c21e                	sw	t2,4(sp)
	li t0, 0x98a12e5a
    1dd0:	98a132b7          	lui	t0,0x98a13
    1dd4:	e5a28293          	addi	t0,t0,-422 # 98a12e5a <pulp__FC+0x98a12e5b>
	li t1, 0x9f47d33b
    1dd8:	9f47d337          	lui	t1,0x9f47d
    1ddc:	33b30313          	addi	t1,t1,827 # 9f47d33b <pulp__FC+0x9f47d33c>
	slt t2, t0, t1
    1de0:	0062a3b3          	slt	t2,t0,t1
	sw t2, 4(sp)
    1de4:	c21e                	sw	t2,4(sp)
	li t0, 0xc423a77c
    1de6:	c423a2b7          	lui	t0,0xc423a
    1dea:	77c28293          	addi	t0,t0,1916 # c423a77c <pulp__FC+0xc423a77d>
	li t1, 0xc423a77c
    1dee:	c423a337          	lui	t1,0xc423a
    1df2:	77c30313          	addi	t1,t1,1916 # c423a77c <pulp__FC+0xc423a77d>
	sltu t2, t0, t1
    1df6:	0062b3b3          	sltu	t2,t0,t1
	sw t2, 4(sp)
    1dfa:	c21e                	sw	t2,4(sp)
	li t0, 0x80de215a
    1dfc:	80de22b7          	lui	t0,0x80de2
    1e00:	15a28293          	addi	t0,t0,346 # 80de215a <pulp__FC+0x80de215b>
	li t1, 0x82dedc5a
    1e04:	82dee337          	lui	t1,0x82dee
    1e08:	c5a30313          	addi	t1,t1,-934 # 82dedc5a <pulp__FC+0x82dedc5b>
	sltu t2, t0, t1
    1e0c:	0062b3b3          	sltu	t2,t0,t1
	sw t2, 4(sp)
    1e10:	c21e                	sw	t2,4(sp)
	li t0, 0x84dc4522
    1e12:	84dc42b7          	lui	t0,0x84dc4
    1e16:	52228293          	addi	t0,t0,1314 # 84dc4522 <pulp__FC+0x84dc4523>
	li t1, 0x84dc4523
    1e1a:	84dc4337          	lui	t1,0x84dc4
    1e1e:	52330313          	addi	t1,t1,1315 # 84dc4523 <pulp__FC+0x84dc4524>
	slt t2, t0, t1
    1e22:	0062a3b3          	slt	t2,t0,t1
	sw t2, 4(sp)
    1e26:	c21e                	sw	t2,4(sp)
	li t0, 0x70fe6551
    1e28:	70fe62b7          	lui	t0,0x70fe6
    1e2c:	55128293          	addi	t0,t0,1361 # 70fe6551 <_sp+0x70de5481>
	li t1, 0x70feff9b
    1e30:	70ff0337          	lui	t1,0x70ff0
    1e34:	f9b30313          	addi	t1,t1,-101 # 70feff9b <_sp+0x70deeecb>
	sltu t2, t0, t1
    1e38:	0062b3b3          	sltu	t2,t0,t1
	sw t2, 4(sp)
    1e3c:	c21e                	sw	t2,4(sp)
	li t0, 0x1c73e6d2
    1e3e:	1c73e2b7          	lui	t0,0x1c73e
    1e42:	6d228293          	addi	t0,t0,1746 # 1c73e6d2 <_sp+0x1c53d602>
	li t1, 0xdee88f5c
    1e46:	dee89337          	lui	t1,0xdee89
    1e4a:	f5c30313          	addi	t1,t1,-164 # dee88f5c <pulp__FC+0xdee88f5d>
	slt t2, t0, t1
    1e4e:	0062a3b3          	slt	t2,t0,t1
	sw t2, 4(sp)
    1e52:	c21e                	sw	t2,4(sp)
	li t0, 0xb39f369
    1e54:	0b39f2b7          	lui	t0,0xb39f
    1e58:	36928293          	addi	t0,t0,873 # b39f369 <_sp+0xb19e299>
	li t1, 0xa7447ae
    1e5c:	0a744337          	lui	t1,0xa744
    1e60:	7ae30313          	addi	t1,t1,1966 # a7447ae <_sp+0xa5436de>
	sltu t2, t0, t1
    1e64:	0062b3b3          	sltu	t2,t0,t1
	sw t2, 4(sp)
    1e68:	c21e                	sw	t2,4(sp)
	li t0, 0xbfe5f9b4
    1e6a:	bfe602b7          	lui	t0,0xbfe60
    1e6e:	9b428293          	addi	t0,t0,-1612 # bfe5f9b4 <pulp__FC+0xbfe5f9b5>
	li t1, 0xbfed23d7
    1e72:	bfed2337          	lui	t1,0xbfed2
    1e76:	3d730313          	addi	t1,t1,983 # bfed23d7 <pulp__FC+0xbfed23d8>
	slt t2, t0, t1
    1e7a:	0062a3b3          	slt	t2,t0,t1
	sw t2, 4(sp)
    1e7e:	c21e                	sw	t2,4(sp)
	li t0, 0x301571da
    1e80:	301572b7          	lui	t0,0x30157
    1e84:	1da28293          	addi	t0,t0,474 # 301571da <_sp+0x2ff5610a>
	li t1, 0x3015716b
    1e88:	30157337          	lui	t1,0x30157
    1e8c:	16b30313          	addi	t1,t1,363 # 3015716b <_sp+0x2ff5609b>
	slt t2, t0, t1
    1e90:	0062a3b3          	slt	t2,t0,t1
	sw t2, 4(sp)
    1e94:	c21e                	sw	t2,4(sp)
	li t0, 0xb8198f0c
    1e96:	b81992b7          	lui	t0,0xb8199
    1e9a:	f0c28293          	addi	t0,t0,-244 # b8198f0c <pulp__FC+0xb8198f0d>
	li t1, 0xb8198f0e
    1e9e:	b8199337          	lui	t1,0xb8199
    1ea2:	f0e30313          	addi	t1,t1,-242 # b8198f0e <pulp__FC+0xb8198f0f>
	slt t2, t0, t1
    1ea6:	0062a3b3          	slt	t2,t0,t1
	sw t2, 4(sp)
    1eaa:	c21e                	sw	t2,4(sp)
	li t0, 0xdfc814cc
    1eac:	dfc812b7          	lui	t0,0xdfc81
    1eb0:	4cc28293          	addi	t0,t0,1228 # dfc814cc <pulp__FC+0xdfc814cd>
	li t1, 0xdfc8340b
    1eb4:	dfc83337          	lui	t1,0xdfc83
    1eb8:	40b30313          	addi	t1,t1,1035 # dfc8340b <pulp__FC+0xdfc8340c>
	sltu t2, t0, t1
    1ebc:	0062b3b3          	sltu	t2,t0,t1
	sw t2, 4(sp)
    1ec0:	c21e                	sw	t2,4(sp)
	li t0, 0x30e7f7dc
    1ec2:	30e7f2b7          	lui	t0,0x30e7f
    1ec6:	7dc28293          	addi	t0,t0,2012 # 30e7f7dc <_sp+0x30c7e70c>
	li t1, 0x30e7f8b5
    1eca:	30e80337          	lui	t1,0x30e80
    1ece:	8b530313          	addi	t1,t1,-1867 # 30e7f8b5 <_sp+0x30c7e7e5>
	slt t2, t0, t1
    1ed2:	0062a3b3          	slt	t2,t0,t1
	sw t2, 4(sp)
    1ed6:	c21e                	sw	t2,4(sp)
	li t0, 0xa287d9b4
    1ed8:	a287e2b7          	lui	t0,0xa287e
    1edc:	9b428293          	addi	t0,t0,-1612 # a287d9b4 <pulp__FC+0xa287d9b5>
	li t1, 0xa287d9ca
    1ee0:	a287e337          	lui	t1,0xa287e
    1ee4:	9ca30313          	addi	t1,t1,-1590 # a287d9ca <pulp__FC+0xa287d9cb>
	sltu t2, t0, t1
    1ee8:	0062b3b3          	sltu	t2,t0,t1
	sw t2, 4(sp)
    1eec:	c21e                	sw	t2,4(sp)
	li t0, 0x3a33580e
    1eee:	3a3362b7          	lui	t0,0x3a336
    1ef2:	80e28293          	addi	t0,t0,-2034 # 3a33580e <_sp+0x3a13473e>
	li t1, 0x3a33580e
    1ef6:	3a336337          	lui	t1,0x3a336
    1efa:	80e30313          	addi	t1,t1,-2034 # 3a33580e <_sp+0x3a13473e>
	slt t2, t0, t1
    1efe:	0062a3b3          	slt	t2,t0,t1
	sw t2, 4(sp)
    1f02:	c21e                	sw	t2,4(sp)
	li t0, 0x1c897669
    1f04:	1c8972b7          	lui	t0,0x1c897
    1f08:	66928293          	addi	t0,t0,1641 # 1c897669 <_sp+0x1c696599>
	li t1, 0x1c897679
    1f0c:	1c897337          	lui	t1,0x1c897
    1f10:	67930313          	addi	t1,t1,1657 # 1c897679 <_sp+0x1c6965a9>
	slt t2, t0, t1
    1f14:	0062a3b3          	slt	t2,t0,t1
	sw t2, 4(sp)
    1f18:	c21e                	sw	t2,4(sp)
	li t0, 0xf06b6015
    1f1a:	f06b62b7          	lui	t0,0xf06b6
    1f1e:	01528293          	addi	t0,t0,21 # f06b6015 <pulp__FC+0xf06b6016>
	li t1, 0xf06b6015
    1f22:	f06b6337          	lui	t1,0xf06b6
    1f26:	01530313          	addi	t1,t1,21 # f06b6015 <pulp__FC+0xf06b6016>
	slt t2, t0, t1
    1f2a:	0062a3b3          	slt	t2,t0,t1
	sw t2, 4(sp)
    1f2e:	c21e                	sw	t2,4(sp)
	li t0, 0x40273012
    1f30:	402732b7          	lui	t0,0x40273
    1f34:	01228293          	addi	t0,t0,18 # 40273012 <_sp+0x40071f42>
	li t1, 0x40273016
    1f38:	40273337          	lui	t1,0x40273
    1f3c:	01630313          	addi	t1,t1,22 # 40273016 <_sp+0x40071f46>
	sltu t2, t0, t1
    1f40:	0062b3b3          	sltu	t2,t0,t1
	sw t2, 4(sp)
    1f44:	c21e                	sw	t2,4(sp)
	li t0, 0xe6255d92
    1f46:	e62562b7          	lui	t0,0xe6256
    1f4a:	d9228293          	addi	t0,t0,-622 # e6255d92 <pulp__FC+0xe6255d93>
	li t1, 0xe6255d92
    1f4e:	e6256337          	lui	t1,0xe6256
    1f52:	d9230313          	addi	t1,t1,-622 # e6255d92 <pulp__FC+0xe6255d93>
	slt t2, t0, t1
    1f56:	0062a3b3          	slt	t2,t0,t1
	sw t2, 4(sp)
    1f5a:	c21e                	sw	t2,4(sp)
	li t0, 0xde6b11eb
    1f5c:	de6b12b7          	lui	t0,0xde6b1
    1f60:	1eb28293          	addi	t0,t0,491 # de6b11eb <pulp__FC+0xde6b11ec>
	li t1, 0xdeb143c5
    1f64:	deb14337          	lui	t1,0xdeb14
    1f68:	3c530313          	addi	t1,t1,965 # deb143c5 <pulp__FC+0xdeb143c6>
	slt t2, t0, t1
    1f6c:	0062a3b3          	slt	t2,t0,t1
	sw t2, 4(sp)
    1f70:	c21e                	sw	t2,4(sp)
	li t0, 0x580526f5
    1f72:	580522b7          	lui	t0,0x58052
    1f76:	6f528293          	addi	t0,t0,1781 # 580526f5 <_sp+0x57e51625>
	li t1, 0x5805a562
    1f7a:	5805a337          	lui	t1,0x5805a
    1f7e:	56230313          	addi	t1,t1,1378 # 5805a562 <_sp+0x57e59492>
	slt t2, t0, t1
    1f82:	0062a3b3          	slt	t2,t0,t1
	sw t2, 4(sp)
    1f86:	c21e                	sw	t2,4(sp)
	li t0, 0xff68b2b7
    1f88:	ff68b2b7          	lui	t0,0xff68b
    1f8c:	2b728293          	addi	t0,t0,695 # ff68b2b7 <pulp__FC+0xff68b2b8>
	li t1, 0xff68b338
    1f90:	ff68b337          	lui	t1,0xff68b
    1f94:	33830313          	addi	t1,t1,824 # ff68b338 <pulp__FC+0xff68b339>
	slt t2, t0, t1
    1f98:	0062a3b3          	slt	t2,t0,t1
	sw t2, 4(sp)
    1f9c:	c21e                	sw	t2,4(sp)
	li t0, 0x6337bd67
    1f9e:	6337c2b7          	lui	t0,0x6337c
    1fa2:	d6728293          	addi	t0,t0,-665 # 6337bd67 <_sp+0x6317ac97>
	li t1, 0x7337bd67
    1fa6:	7337c337          	lui	t1,0x7337c
    1faa:	d6730313          	addi	t1,t1,-665 # 7337bd67 <_sp+0x7317ac97>
	slt t2, t0, t1
    1fae:	0062a3b3          	slt	t2,t0,t1
	sw t2, 4(sp)
    1fb2:	c21e                	sw	t2,4(sp)
	li t0, 0x86bd9344
    1fb4:	86bd92b7          	lui	t0,0x86bd9
    1fb8:	34428293          	addi	t0,t0,836 # 86bd9344 <pulp__FC+0x86bd9345>
	li t1, 0x8da09344
    1fbc:	8da09337          	lui	t1,0x8da09
    1fc0:	34430313          	addi	t1,t1,836 # 8da09344 <pulp__FC+0x8da09345>
	slt t2, t0, t1
    1fc4:	0062a3b3          	slt	t2,t0,t1
	sw t2, 4(sp)
    1fc8:	c21e                	sw	t2,4(sp)
	li t0, 0xe2fe6a1a
    1fca:	e2fe72b7          	lui	t0,0xe2fe7
    1fce:	a1a28293          	addi	t0,t0,-1510 # e2fe6a1a <pulp__FC+0xe2fe6a1b>
	li t1, 0x7a06da13
    1fd2:	7a06e337          	lui	t1,0x7a06e
    1fd6:	a1330313          	addi	t1,t1,-1517 # 7a06da13 <_sp+0x79e6c943>
	sltu t2, t0, t1
    1fda:	0062b3b3          	sltu	t2,t0,t1
	sw t2, 4(sp)
    1fde:	c21e                	sw	t2,4(sp)
	li t0, 0xff2f76ba
    1fe0:	ff2f72b7          	lui	t0,0xff2f7
    1fe4:	6ba28293          	addi	t0,t0,1722 # ff2f76ba <pulp__FC+0xff2f76bb>
	li t1, 0xff2daeb1
    1fe8:	ff2db337          	lui	t1,0xff2db
    1fec:	eb130313          	addi	t1,t1,-335 # ff2daeb1 <pulp__FC+0xff2daeb2>
	slt t2, t0, t1
    1ff0:	0062a3b3          	slt	t2,t0,t1
	sw t2, 4(sp)
    1ff4:	c21e                	sw	t2,4(sp)
	li t0, 0xd35bb5d
    1ff6:	0d35c2b7          	lui	t0,0xd35c
    1ffa:	b5d28293          	addi	t0,t0,-1187 # d35bb5d <_sp+0xd15aa8d>
	li t1, 0xd355758
    1ffe:	0d355337          	lui	t1,0xd355
    2002:	75830313          	addi	t1,t1,1880 # d355758 <_sp+0xd154688>
	slt t2, t0, t1
    2006:	0062a3b3          	slt	t2,t0,t1
	sw t2, 4(sp)
    200a:	c21e                	sw	t2,4(sp)
	li t0, 0xade54659
    200c:	ade542b7          	lui	t0,0xade54
    2010:	65928293          	addi	t0,t0,1625 # ade54659 <pulp__FC+0xade5465a>
	li t1, 0xade54634
    2014:	ade54337          	lui	t1,0xade54
    2018:	63430313          	addi	t1,t1,1588 # ade54634 <pulp__FC+0xade54635>
	sltu t2, t0, t1
    201c:	0062b3b3          	sltu	t2,t0,t1
	sw t2, 4(sp)
    2020:	c21e                	sw	t2,4(sp)
	li t0, 0xd009cf0c
    2022:	d009d2b7          	lui	t0,0xd009d
    2026:	f0c28293          	addi	t0,t0,-244 # d009cf0c <pulp__FC+0xd009cf0d>
	li t1, 0xd003740a
    202a:	d0037337          	lui	t1,0xd0037
    202e:	40a30313          	addi	t1,t1,1034 # d003740a <pulp__FC+0xd003740b>
	sltu t2, t0, t1
    2032:	0062b3b3          	sltu	t2,t0,t1
	sw t2, 4(sp)
    2036:	c21e                	sw	t2,4(sp)
	li t0, 0x1454a430
    2038:	1454a2b7          	lui	t0,0x1454a
    203c:	43028293          	addi	t0,t0,1072 # 1454a430 <_sp+0x14349360>
	li t1, 0x345479bd
    2040:	34548337          	lui	t1,0x34548
    2044:	9bd30313          	addi	t1,t1,-1603 # 345479bd <_sp+0x343468ed>
	slt t2, t0, t1
    2048:	0062a3b3          	slt	t2,t0,t1
	sw t2, 4(sp)
    204c:	c21e                	sw	t2,4(sp)
	li t0, 0x273bad68
    204e:	273bb2b7          	lui	t0,0x273bb
    2052:	d6828293          	addi	t0,t0,-664 # 273bad68 <_sp+0x271b9c98>
	li t1, 0x273bad77
    2056:	273bb337          	lui	t1,0x273bb
    205a:	d7730313          	addi	t1,t1,-649 # 273bad77 <_sp+0x271b9ca7>
	slt t2, t0, t1
    205e:	0062a3b3          	slt	t2,t0,t1
	sw t2, 4(sp)
    2062:	c21e                	sw	t2,4(sp)
	li t0, 0x8e48818c
    2064:	8e4882b7          	lui	t0,0x8e488
    2068:	18c28293          	addi	t0,t0,396 # 8e48818c <pulp__FC+0x8e48818d>
	li t1, 0x8e48856f
    206c:	8e488337          	lui	t1,0x8e488
    2070:	56f30313          	addi	t1,t1,1391 # 8e48856f <pulp__FC+0x8e488570>
	slt t2, t0, t1
    2074:	0062a3b3          	slt	t2,t0,t1
	sw t2, 4(sp)
    2078:	c21e                	sw	t2,4(sp)
	li t0, 0x1de608b0
    207a:	1de612b7          	lui	t0,0x1de61
    207e:	8b028293          	addi	t0,t0,-1872 # 1de608b0 <_sp+0x1dc5f7e0>
	li t1, 0x1de60a0e
    2082:	1de61337          	lui	t1,0x1de61
    2086:	a0e30313          	addi	t1,t1,-1522 # 1de60a0e <_sp+0x1dc5f93e>
	slt t2, t0, t1
    208a:	0062a3b3          	slt	t2,t0,t1
	sw t2, 4(sp)
    208e:	c21e                	sw	t2,4(sp)
	li t0, 0x43ba80af
    2090:	43ba82b7          	lui	t0,0x43ba8
    2094:	0af28293          	addi	t0,t0,175 # 43ba80af <_sp+0x439a6fdf>
	li t1, 0x43bac07f
    2098:	43bac337          	lui	t1,0x43bac
    209c:	07f30313          	addi	t1,t1,127 # 43bac07f <_sp+0x439aafaf>
	slt t2, t0, t1
    20a0:	0062a3b3          	slt	t2,t0,t1
	sw t2, 4(sp)
    20a4:	c21e                	sw	t2,4(sp)
	li t0, 0xbb95fdde
    20a6:	bb9602b7          	lui	t0,0xbb960
    20aa:	dde28293          	addi	t0,t0,-546 # bb95fdde <pulp__FC+0xbb95fddf>
	li t1, 0xfb95fdde
    20ae:	fb960337          	lui	t1,0xfb960
    20b2:	dde30313          	addi	t1,t1,-546 # fb95fdde <pulp__FC+0xfb95fddf>
	sltu t2, t0, t1
    20b6:	0062b3b3          	sltu	t2,t0,t1
	sw t2, 4(sp)
    20ba:	c21e                	sw	t2,4(sp)
	li t0, 0xb6381961
    20bc:	b63822b7          	lui	t0,0xb6382
    20c0:	96128293          	addi	t0,t0,-1695 # b6381961 <pulp__FC+0xb6381962>
	li t1, 0x36387661
    20c4:	36387337          	lui	t1,0x36387
    20c8:	66130313          	addi	t1,t1,1633 # 36387661 <_sp+0x36186591>
	slt t2, t0, t1
    20cc:	0062a3b3          	slt	t2,t0,t1
	sw t2, 4(sp)
    20d0:	c21e                	sw	t2,4(sp)
	li t0, 0x6d777074
    20d2:	6d7772b7          	lui	t0,0x6d777
    20d6:	07428293          	addi	t0,t0,116 # 6d777074 <_sp+0x6d575fa4>
	li t1, 0x6d77b374
    20da:	6d77b337          	lui	t1,0x6d77b
    20de:	37430313          	addi	t1,t1,884 # 6d77b374 <_sp+0x6d57a2a4>
	sltu t2, t0, t1
    20e2:	0062b3b3          	sltu	t2,t0,t1
	sw t2, 4(sp)
    20e6:	c21e                	sw	t2,4(sp)
	li t0, 0xc214fe69
    20e8:	c21502b7          	lui	t0,0xc2150
    20ec:	e6928293          	addi	t0,t0,-407 # c214fe69 <pulp__FC+0xc214fe6a>
	li t1, 0xc214fee9
    20f0:	c2150337          	lui	t1,0xc2150
    20f4:	ee930313          	addi	t1,t1,-279 # c214fee9 <pulp__FC+0xc214feea>
	sltu t2, t0, t1
    20f8:	0062b3b3          	sltu	t2,t0,t1
	sw t2, 4(sp)
    20fc:	c21e                	sw	t2,4(sp)
	li t0, 0x1d7a9a3a
    20fe:	1d7aa2b7          	lui	t0,0x1d7aa
    2102:	a3a28293          	addi	t0,t0,-1478 # 1d7a9a3a <_sp+0x1d5a896a>
	li t1, 0x1dfa9a3a
    2106:	1dfaa337          	lui	t1,0x1dfaa
    210a:	a3a30313          	addi	t1,t1,-1478 # 1dfa9a3a <_sp+0x1dda896a>
	slt t2, t0, t1
    210e:	0062a3b3          	slt	t2,t0,t1
	sw t2, 4(sp)
    2112:	c21e                	sw	t2,4(sp)
	li t0, 0xb16592d8
    2114:	b16592b7          	lui	t0,0xb1659
    2118:	2d828293          	addi	t0,t0,728 # b16592d8 <pulp__FC+0xb16592d9>
	li t1, 0xb17592d8
    211c:	b1759337          	lui	t1,0xb1759
    2120:	2d830313          	addi	t1,t1,728 # b17592d8 <pulp__FC+0xb17592d9>
	sltu t2, t0, t1
    2124:	0062b3b3          	sltu	t2,t0,t1
	sw t2, 4(sp)
    2128:	c21e                	sw	t2,4(sp)
	li t0, 0x90dad2c3
    212a:	90dad2b7          	lui	t0,0x90dad
    212e:	2c328293          	addi	t0,t0,707 # 90dad2c3 <pulp__FC+0x90dad2c4>
	li t1, 0x94dad2c3
    2132:	94dad337          	lui	t1,0x94dad
    2136:	2c330313          	addi	t1,t1,707 # 94dad2c3 <pulp__FC+0x94dad2c4>
	slt t2, t0, t1
    213a:	0062a3b3          	slt	t2,t0,t1
	sw t2, 4(sp)
    213e:	c21e                	sw	t2,4(sp)
	li t0, 0x6c4bb2a6
    2140:	6c4bb2b7          	lui	t0,0x6c4bb
    2144:	2a628293          	addi	t0,t0,678 # 6c4bb2a6 <_sp+0x6c2ba1d6>
	li t1, 0x6e4bb2a6
    2148:	6e4bb337          	lui	t1,0x6e4bb
    214c:	2a630313          	addi	t1,t1,678 # 6e4bb2a6 <_sp+0x6e2ba1d6>
	sltu t2, t0, t1
    2150:	0062b3b3          	sltu	t2,t0,t1
	sw t2, 4(sp)
    2154:	c21e                	sw	t2,4(sp)
	li t0, 0x83578a95
    2156:	835792b7          	lui	t0,0x83579
    215a:	a9528293          	addi	t0,t0,-1387 # 83578a95 <pulp__FC+0x83578a96>
	li t1, 0x83aa8a4b
    215e:	83aa9337          	lui	t1,0x83aa9
    2162:	a4b30313          	addi	t1,t1,-1461 # 83aa8a4b <pulp__FC+0x83aa8a4c>
	slt t2, t0, t1
    2166:	0062a3b3          	slt	t2,t0,t1
	sw t2, 4(sp)
    216a:	c21e                	sw	t2,4(sp)
	li t0, 0x85bc5f7d
    216c:	85bc62b7          	lui	t0,0x85bc6
    2170:	f7d28293          	addi	t0,t0,-131 # 85bc5f7d <pulp__FC+0x85bc5f7e>
	li t1, 0x23bc5f5c
    2174:	23bc6337          	lui	t1,0x23bc6
    2178:	f5c30313          	addi	t1,t1,-164 # 23bc5f5c <_sp+0x239c4e8c>
	slt t2, t0, t1
    217c:	0062a3b3          	slt	t2,t0,t1
	sw t2, 4(sp)
    2180:	c21e                	sw	t2,4(sp)
	li t0, 0x226d82c9
    2182:	226d82b7          	lui	t0,0x226d8
    2186:	2c928293          	addi	t0,t0,713 # 226d82c9 <_sp+0x224d71f9>
	li t1, 0x186e9c56
    218a:	186ea337          	lui	t1,0x186ea
    218e:	c5630313          	addi	t1,t1,-938 # 186e9c56 <_sp+0x184e8b86>
	sltu t2, t0, t1
    2192:	0062b3b3          	sltu	t2,t0,t1
	sw t2, 4(sp)
    2196:	c21e                	sw	t2,4(sp)
	li t0, 0x598682d3
    2198:	598682b7          	lui	t0,0x59868
    219c:	2d328293          	addi	t0,t0,723 # 598682d3 <_sp+0x59667203>
	li t1, 0x2de08d93
    21a0:	2de09337          	lui	t1,0x2de09
    21a4:	d9330313          	addi	t1,t1,-621 # 2de08d93 <_sp+0x2dc07cc3>
	slt t2, t0, t1
    21a8:	0062a3b3          	slt	t2,t0,t1
	sw t2, 4(sp)
    21ac:	c21e                	sw	t2,4(sp)
	li t0, 0x5cc34169
    21ae:	5cc342b7          	lui	t0,0x5cc34
    21b2:	16928293          	addi	t0,t0,361 # 5cc34169 <_sp+0x5ca33099>
	li t1, 0x62f046c9
    21b6:	62f04337          	lui	t1,0x62f04
    21ba:	6c930313          	addi	t1,t1,1737 # 62f046c9 <_sp+0x62d035f9>
	slt t2, t0, t1
    21be:	0062a3b3          	slt	t2,t0,t1
	sw t2, 4(sp)
    21c2:	c21e                	sw	t2,4(sp)
	li t0, 0xaad1e303
    21c4:	aad1e2b7          	lui	t0,0xaad1e
    21c8:	30328293          	addi	t0,t0,771 # aad1e303 <pulp__FC+0xaad1e304>
	li t1, 0xa6afe0dc
    21cc:	a6afe337          	lui	t1,0xa6afe
    21d0:	0dc30313          	addi	t1,t1,220 # a6afe0dc <pulp__FC+0xa6afe0dd>
	sltu t2, t0, t1
    21d4:	0062b3b3          	sltu	t2,t0,t1
	sw t2, 4(sp)
    21d8:	c21e                	sw	t2,4(sp)
	li t0, 0x4768f181
    21da:	4768f2b7          	lui	t0,0x4768f
    21de:	18128293          	addi	t0,t0,385 # 4768f181 <_sp+0x4748e0b1>
	li t1, 0x5157f06e
    21e2:	5157f337          	lui	t1,0x5157f
    21e6:	06e30313          	addi	t1,t1,110 # 5157f06e <_sp+0x5137df9e>
	slt t2, t0, t1
    21ea:	0062a3b3          	slt	t2,t0,t1
	sw t2, 4(sp)
    21ee:	c21e                	sw	t2,4(sp)
	li t0, 0x9d043b77
    21f0:	9d0442b7          	lui	t0,0x9d044
    21f4:	b7728293          	addi	t0,t0,-1161 # 9d043b77 <pulp__FC+0x9d043b78>
	li t1, 0x997c3b8f
    21f8:	997c4337          	lui	t1,0x997c4
    21fc:	b8f30313          	addi	t1,t1,-1137 # 997c3b8f <pulp__FC+0x997c3b90>
	sltu t2, t0, t1
    2200:	0062b3b3          	sltu	t2,t0,t1
	sw t2, 4(sp)
    2204:	c21e                	sw	t2,4(sp)
	li t0, 0x47821dbb
    2206:	478222b7          	lui	t0,0x47822
    220a:	dbb28293          	addi	t0,t0,-581 # 47821dbb <_sp+0x47620ceb>
	li t1, 0x45be1dc7
    220e:	45be2337          	lui	t1,0x45be2
    2212:	dc730313          	addi	t1,t1,-569 # 45be1dc7 <_sp+0x459e0cf7>
	slt t2, t0, t1
    2216:	0062a3b3          	slt	t2,t0,t1
	sw t2, 4(sp)
    221a:	c21e                	sw	t2,4(sp)
	li t0, 0xf5c10edd
    221c:	f5c112b7          	lui	t0,0xf5c11
    2220:	edd28293          	addi	t0,t0,-291 # f5c10edd <pulp__FC+0xf5c10ede>
	li t1, 0xf45f0ee3
    2224:	f45f1337          	lui	t1,0xf45f1
    2228:	ee330313          	addi	t1,t1,-285 # f45f0ee3 <pulp__FC+0xf45f0ee4>
	sltu t2, t0, t1
    222c:	0062b3b3          	sltu	t2,t0,t1
	sw t2, 4(sp)
    2230:	c21e                	sw	t2,4(sp)
	li t0, 0x1960876e
    2232:	196082b7          	lui	t0,0x19608
    2236:	76e28293          	addi	t0,t0,1902 # 1960876e <_sp+0x1940769e>
	li t1, 0x1eaf8771
    223a:	1eaf8337          	lui	t1,0x1eaf8
    223e:	77130313          	addi	t1,t1,1905 # 1eaf8771 <_sp+0x1e8f76a1>
	slt t2, t0, t1
    2242:	0062a3b3          	slt	t2,t0,t1
	sw t2, 4(sp)
    2246:	c21e                	sw	t2,4(sp)
	li t0, 0xa32ba2e3
    2248:	a32ba2b7          	lui	t0,0xa32ba
    224c:	2e328293          	addi	t0,t0,739 # a32ba2e3 <pulp__FC+0xa32ba2e4>
	li t1, 0xa46e902e
    2250:	a46e9337          	lui	t1,0xa46e9
    2254:	02e30313          	addi	t1,t1,46 # a46e902e <pulp__FC+0xa46e902f>
	slt t2, t0, t1
    2258:	0062a3b3          	slt	t2,t0,t1
	sw t2, 4(sp)
    225c:	c21e                	sw	t2,4(sp)
	li t0, 0x62e7a970
    225e:	62e7b2b7          	lui	t0,0x62e7b
    2262:	97028293          	addi	t0,t0,-1680 # 62e7a970 <_sp+0x62c798a0>
	li t1, 0x62e7b017
    2266:	62e7b337          	lui	t1,0x62e7b
    226a:	01730313          	addi	t1,t1,23 # 62e7b017 <_sp+0x62c79f47>
	slt t2, t0, t1
    226e:	0062a3b3          	slt	t2,t0,t1
	sw t2, 4(sp)
    2272:	c21e                	sw	t2,4(sp)
	li t0, 0x99a5231b
    2274:	99a522b7          	lui	t0,0x99a52
    2278:	31b28293          	addi	t0,t0,795 # 99a5231b <pulp__FC+0x99a5231c>
	li t1, 0x99a5231a
    227c:	99a52337          	lui	t1,0x99a52
    2280:	31a30313          	addi	t1,t1,794 # 99a5231a <pulp__FC+0x99a5231b>
	slt t2, t0, t1
    2284:	0062a3b3          	slt	t2,t0,t1
	sw t2, 4(sp)
    2288:	c21e                	sw	t2,4(sp)
	li t0, 0xe2e90f46
    228a:	e2e912b7          	lui	t0,0xe2e91
    228e:	f4628293          	addi	t0,t0,-186 # e2e90f46 <pulp__FC+0xe2e90f47>
	li t1, 0xe2e90f43
    2292:	e2e91337          	lui	t1,0xe2e91
    2296:	f4330313          	addi	t1,t1,-189 # e2e90f43 <pulp__FC+0xe2e90f44>
	slt t2, t0, t1
    229a:	0062a3b3          	slt	t2,t0,t1
	sw t2, 4(sp)
    229e:	c21e                	sw	t2,4(sp)
	li t0, 0x30cf2104
    22a0:	30cf22b7          	lui	t0,0x30cf2
    22a4:	10428293          	addi	t0,t0,260 # 30cf2104 <_sp+0x30af1034>
	li t1, 0x30e09530
    22a8:	30e09337          	lui	t1,0x30e09
    22ac:	53030313          	addi	t1,t1,1328 # 30e09530 <_sp+0x30c08460>
	sltu t2, t0, t1
    22b0:	0062b3b3          	sltu	t2,t0,t1
	sw t2, 4(sp)
    22b4:	c21e                	sw	t2,4(sp)
	li t0, 0x5b081236
    22b6:	5b0812b7          	lui	t0,0x5b081
    22ba:	23628293          	addi	t0,t0,566 # 5b081236 <_sp+0x5ae80166>
	li t1, 0x5b081238
    22be:	5b081337          	lui	t1,0x5b081
    22c2:	23830313          	addi	t1,t1,568 # 5b081238 <_sp+0x5ae80168>
	sltu t2, t0, t1
    22c6:	0062b3b3          	sltu	t2,t0,t1
	sw t2, 4(sp)
    22ca:	c21e                	sw	t2,4(sp)
	li t0, 0xa977a001
    22cc:	a977a2b7          	lui	t0,0xa977a
    22d0:	00128293          	addi	t0,t0,1 # a977a001 <pulp__FC+0xa977a002>
	li t1, 0xa977a000
    22d4:	a977a337          	lui	t1,0xa977a
	sltu t2, t0, t1
    22d8:	0062b3b3          	sltu	t2,t0,t1
	sw t2, 4(sp)
    22dc:	c21e                	sw	t2,4(sp)
	li t0, 0x6de576d1
    22de:	6de572b7          	lui	t0,0x6de57
    22e2:	6d128293          	addi	t0,t0,1745 # 6de576d1 <_sp+0x6dc56601>
	li t1, 0x6de57eb1
    22e6:	6de58337          	lui	t1,0x6de58
    22ea:	eb130313          	addi	t1,t1,-335 # 6de57eb1 <_sp+0x6dc56de1>
	sltu t2, t0, t1
    22ee:	0062b3b3          	sltu	t2,t0,t1
	sw t2, 4(sp)
    22f2:	c21e                	sw	t2,4(sp)
	li t0, 0x563284b
    22f4:	056332b7          	lui	t0,0x5633
    22f8:	84b28293          	addi	t0,t0,-1973 # 563284b <_sp+0x543177b>
	li t1, 0x63d7d76
    22fc:	063d8337          	lui	t1,0x63d8
    2300:	d7630313          	addi	t1,t1,-650 # 63d7d76 <_sp+0x61d6ca6>
	slt t2, t0, t1
    2304:	0062a3b3          	slt	t2,t0,t1
	sw t2, 4(sp)
    2308:	c21e                	sw	t2,4(sp)
	li t0, 0x38319425
    230a:	383192b7          	lui	t0,0x38319
    230e:	42528293          	addi	t0,t0,1061 # 38319425 <_sp+0x38118355>
	li t1, 0x4e9ebebb
    2312:	4e9ec337          	lui	t1,0x4e9ec
    2316:	ebb30313          	addi	t1,t1,-325 # 4e9ebebb <_sp+0x4e7eadeb>
	sltu t2, t0, t1
    231a:	0062b3b3          	sltu	t2,t0,t1
	sw t2, 4(sp)
    231e:	c21e                	sw	t2,4(sp)
	li t0, 0x5419ca12
    2320:	5419d2b7          	lui	t0,0x5419d
    2324:	a1228293          	addi	t0,t0,-1518 # 5419ca12 <_sp+0x53f9b942>
	li t1, 0xa74f5f5d
    2328:	a74f6337          	lui	t1,0xa74f6
    232c:	f5d30313          	addi	t1,t1,-163 # a74f5f5d <pulp__FC+0xa74f5f5e>
	sltu t2, t0, t1
    2330:	0062b3b3          	sltu	t2,t0,t1
	sw t2, 4(sp)
    2334:	c21e                	sw	t2,4(sp)
	li t0, 0xded57bea
    2336:	ded582b7          	lui	t0,0xded58
    233a:	bea28293          	addi	t0,t0,-1046 # ded57bea <pulp__FC+0xded57beb>
	li t1, 0xded57d80
    233e:	ded58337          	lui	t1,0xded58
    2342:	d8030313          	addi	t1,t1,-640 # ded57d80 <pulp__FC+0xded57d81>
	sltu t2, t0, t1
    2346:	0062b3b3          	sltu	t2,t0,t1
	sw t2, 4(sp)
    234a:	c21e                	sw	t2,4(sp)
	li t0, 0xcad1e116
    234c:	cad1e2b7          	lui	t0,0xcad1e
    2350:	11628293          	addi	t0,t0,278 # cad1e116 <pulp__FC+0xcad1e117>
	li t1, 0xcad1dfee
    2354:	cad1e337          	lui	t1,0xcad1e
    2358:	fee30313          	addi	t1,t1,-18 # cad1dfee <pulp__FC+0xcad1dfef>
	sltu t2, t0, t1
    235c:	0062b3b3          	sltu	t2,t0,t1
	sw t2, 4(sp)
    2360:	c21e                	sw	t2,4(sp)
	li t0, 0xfc2c208b
    2362:	fc2c22b7          	lui	t0,0xfc2c2
    2366:	08b28293          	addi	t0,t0,139 # fc2c208b <pulp__FC+0xfc2c208c>
	li t1, 0xfc1507f7
    236a:	fc150337          	lui	t1,0xfc150
    236e:	7f730313          	addi	t1,t1,2039 # fc1507f7 <pulp__FC+0xfc1507f8>
	sltu t2, t0, t1
    2372:	0062b3b3          	sltu	t2,t0,t1
	sw t2, 4(sp)
    2376:	c21e                	sw	t2,4(sp)
	li t0, 0xd465b2a6
    2378:	d465b2b7          	lui	t0,0xd465b
    237c:	2a628293          	addi	t0,t0,678 # d465b2a6 <pulp__FC+0xd465b2a7>
	li t1, 0xd43513f6
    2380:	d4351337          	lui	t1,0xd4351
    2384:	3f630313          	addi	t1,t1,1014 # d43513f6 <pulp__FC+0xd43513f7>
	sltu t2, t0, t1
    2388:	0062b3b3          	sltu	t2,t0,t1
	sw t2, 4(sp)
    238c:	c21e                	sw	t2,4(sp)
	li t0, 0x1f92d953
    238e:	1f92e2b7          	lui	t0,0x1f92e
    2392:	95328293          	addi	t0,t0,-1709 # 1f92d953 <_sp+0x1f72c883>
	li t1, 0x1f8e09ea
    2396:	1f8e1337          	lui	t1,0x1f8e1
    239a:	9ea30313          	addi	t1,t1,-1558 # 1f8e09ea <_sp+0x1f6df91a>
	sltu t2, t0, t1
    239e:	0062b3b3          	sltu	t2,t0,t1
	sw t2, 4(sp)
    23a2:	c21e                	sw	t2,4(sp)
	li t0, 0xd233ce4a
    23a4:	d233d2b7          	lui	t0,0xd233d
    23a8:	e4a28293          	addi	t0,t0,-438 # d233ce4a <pulp__FC+0xd233ce4b>
	li t1, 0xd23294db
    23ac:	d2329337          	lui	t1,0xd2329
    23b0:	4db30313          	addi	t1,t1,1243 # d23294db <pulp__FC+0xd23294dc>
	slt t2, t0, t1
    23b4:	0062a3b3          	slt	t2,t0,t1
	sw t2, 4(sp)
    23b8:	c21e                	sw	t2,4(sp)
	li t0, 0xa7a6c5c6
    23ba:	a7a6c2b7          	lui	t0,0xa7a6c
    23be:	5c628293          	addi	t0,t0,1478 # a7a6c5c6 <pulp__FC+0xa7a6c5c7>
	li t1, 0xa7a85a43
    23c2:	a7a86337          	lui	t1,0xa7a86
    23c6:	a4330313          	addi	t1,t1,-1469 # a7a85a43 <pulp__FC+0xa7a85a44>
	slt t2, t0, t1
    23ca:	0062a3b3          	slt	t2,t0,t1
	sw t2, 4(sp)
    23ce:	c21e                	sw	t2,4(sp)
	li t0, 0xa6e57ee3
    23d0:	a6e582b7          	lui	t0,0xa6e58
    23d4:	ee328293          	addi	t0,t0,-285 # a6e57ee3 <pulp__FC+0xa6e57ee4>
	li t1, 0xa6e63d21
    23d8:	a6e64337          	lui	t1,0xa6e64
    23dc:	d2130313          	addi	t1,t1,-735 # a6e63d21 <pulp__FC+0xa6e63d22>
	sltu t2, t0, t1
    23e0:	0062b3b3          	sltu	t2,t0,t1
	sw t2, 4(sp)
    23e4:	c21e                	sw	t2,4(sp)
	li t0, 0xcc7b171
    23e6:	0cc7b2b7          	lui	t0,0xcc7b
    23ea:	17128293          	addi	t0,t0,369 # cc7b171 <_sp+0xca7a0a1>
	li t1, 0xcc31690
    23ee:	0cc31337          	lui	t1,0xcc31
    23f2:	69030313          	addi	t1,t1,1680 # cc31690 <_sp+0xca305c0>
	slt t2, t0, t1
    23f6:	0062a3b3          	slt	t2,t0,t1
	sw t2, 4(sp)
    23fa:	c21e                	sw	t2,4(sp)
	li t0, 0xb3add8b8
    23fc:	b3ade2b7          	lui	t0,0xb3ade
    2400:	8b828293          	addi	t0,t0,-1864 # b3add8b8 <pulp__FC+0xb3add8b9>
	li t1, 0xb3110b48
    2404:	b3111337          	lui	t1,0xb3111
    2408:	b4830313          	addi	t1,t1,-1208 # b3110b48 <pulp__FC+0xb3110b49>
	slt t2, t0, t1
    240c:	0062a3b3          	slt	t2,t0,t1
	sw t2, 4(sp)
    2410:	c21e                	sw	t2,4(sp)
	li t0, 0xcde21a5c
    2412:	cde222b7          	lui	t0,0xcde22
    2416:	a5c28293          	addi	t0,t0,-1444 # cde21a5c <pulp__FC+0xcde21a5d>
	li t1, 0xcde219a4
    241a:	cde22337          	lui	t1,0xcde22
    241e:	9a430313          	addi	t1,t1,-1628 # cde219a4 <pulp__FC+0xcde219a5>
	sltu t2, t0, t1
    2422:	0062b3b3          	sltu	t2,t0,t1
	sw t2, 4(sp)
    2426:	c21e                	sw	t2,4(sp)
	li t0, 0x2e9e94cd
    2428:	2e9e92b7          	lui	t0,0x2e9e9
    242c:	4cd28293          	addi	t0,t0,1229 # 2e9e94cd <_sp+0x2e7e83fd>
	li t1, 0x2e9e92fc
    2430:	2e9e9337          	lui	t1,0x2e9e9
    2434:	2fc30313          	addi	t1,t1,764 # 2e9e92fc <_sp+0x2e7e822c>
	slt t2, t0, t1
    2438:	0062a3b3          	slt	t2,t0,t1
	sw t2, 4(sp)
    243c:	c21e                	sw	t2,4(sp)
	li t0, 0x558eb85
    243e:	0558f2b7          	lui	t0,0x558f
    2442:	b8528293          	addi	t0,t0,-1147 # 558eb85 <_sp+0x538dab5>
	li t1, 0x558ea50
    2446:	0558f337          	lui	t1,0x558f
    244a:	a5030313          	addi	t1,t1,-1456 # 558ea50 <_sp+0x538d980>
	slt t2, t0, t1
    244e:	0062a3b3          	slt	t2,t0,t1
	sw t2, 4(sp)
    2452:	c21e                	sw	t2,4(sp)
	li t0, 0xa85572a1
    2454:	a85572b7          	lui	t0,0xa8557
    2458:	2a128293          	addi	t0,t0,673 # a85572a1 <pulp__FC+0xa85572a2>
	li t1, 0xa8556c86
    245c:	a8557337          	lui	t1,0xa8557
    2460:	c8630313          	addi	t1,t1,-890 # a8556c86 <pulp__FC+0xa8556c87>
	sltu t2, t0, t1
    2464:	0062b3b3          	sltu	t2,t0,t1
	sw t2, 4(sp)
    2468:	c21e                	sw	t2,4(sp)
	li t0, 0xe8c03d50
    246a:	e8c042b7          	lui	t0,0xe8c04
    246e:	d5028293          	addi	t0,t0,-688 # e8c03d50 <pulp__FC+0xe8c03d51>
	li t1, 0xe8c03643
    2472:	e8c03337          	lui	t1,0xe8c03
    2476:	64330313          	addi	t1,t1,1603 # e8c03643 <pulp__FC+0xe8c03644>
	sltu t2, t0, t1
    247a:	0062b3b3          	sltu	t2,t0,t1
	sw t2, 4(sp)
    247e:	c21e                	sw	t2,4(sp)
	li t0, 0x41425b4b
    2480:	414262b7          	lui	t0,0x41426
    2484:	b4b28293          	addi	t0,t0,-1205 # 41425b4b <_sp+0x41224a7b>
	li t1, 0x4142630f
    2488:	41426337          	lui	t1,0x41426
    248c:	30f30313          	addi	t1,t1,783 # 4142630f <_sp+0x4122523f>
	sltu t2, t0, t1
    2490:	0062b3b3          	sltu	t2,t0,t1
	sw t2, 4(sp)
    2494:	c21e                	sw	t2,4(sp)
	li t0, 0x89e64925
    2496:	89e652b7          	lui	t0,0x89e65
    249a:	92528293          	addi	t0,t0,-1755 # 89e64925 <pulp__FC+0x89e64926>
	li t1, 0x89e63587
    249e:	89e63337          	lui	t1,0x89e63
    24a2:	58730313          	addi	t1,t1,1415 # 89e63587 <pulp__FC+0x89e63588>
	slt t2, t0, t1
    24a6:	0062a3b3          	slt	t2,t0,t1
	sw t2, 4(sp)
    24aa:	c21e                	sw	t2,4(sp)
	li t0, 0x20c42e31
    24ac:	20c432b7          	lui	t0,0x20c43
    24b0:	e3128293          	addi	t0,t0,-463 # 20c42e31 <_sp+0x20a41d61>
	li t1, 0x20e402ed
    24b4:	20e40337          	lui	t1,0x20e40
    24b8:	2ed30313          	addi	t1,t1,749 # 20e402ed <_sp+0x20c3f21d>
	slt t2, t0, t1
    24bc:	0062a3b3          	slt	t2,t0,t1
	sw t2, 4(sp)
    24c0:	c21e                	sw	t2,4(sp)
	li t0, 0xf7731718
    24c2:	f77312b7          	lui	t0,0xf7731
    24c6:	71828293          	addi	t0,t0,1816 # f7731718 <pulp__FC+0xf7731719>
	li t1, 0xf7778176
    24ca:	f7778337          	lui	t1,0xf7778
    24ce:	17630313          	addi	t1,t1,374 # f7778176 <pulp__FC+0xf7778177>
	slt t2, t0, t1
    24d2:	0062a3b3          	slt	t2,t0,t1
	sw t2, 4(sp)
    24d6:	c21e                	sw	t2,4(sp)
	li t0, 0x88ce8b8c
    24d8:	88ce92b7          	lui	t0,0x88ce9
    24dc:	b8c28293          	addi	t0,t0,-1140 # 88ce8b8c <pulp__FC+0x88ce8b8d>
	li t1, 0x88cf40bb
    24e0:	88cf4337          	lui	t1,0x88cf4
    24e4:	0bb30313          	addi	t1,t1,187 # 88cf40bb <pulp__FC+0x88cf40bc>
	slt t2, t0, t1
    24e8:	0062a3b3          	slt	t2,t0,t1
	sw t2, 4(sp)
    24ec:	c21e                	sw	t2,4(sp)
	li t0, 0xa359d24b
    24ee:	a359d2b7          	lui	t0,0xa359d
    24f2:	24b28293          	addi	t0,t0,587 # a359d24b <pulp__FC+0xa359d24c>
	li t1, 0xa35bd24b
    24f6:	a35bd337          	lui	t1,0xa35bd
    24fa:	24b30313          	addi	t1,t1,587 # a35bd24b <pulp__FC+0xa35bd24c>
	sltu t2, t0, t1
    24fe:	0062b3b3          	sltu	t2,t0,t1
	sw t2, 4(sp)
    2502:	c21e                	sw	t2,4(sp)
	li t0, 0xe51bf2c1
    2504:	e51bf2b7          	lui	t0,0xe51bf
    2508:	2c128293          	addi	t0,t0,705 # e51bf2c1 <pulp__FC+0xe51bf2c2>
	li t1, 0xe51d1ff4
    250c:	e51d2337          	lui	t1,0xe51d2
    2510:	ff430313          	addi	t1,t1,-12 # e51d1ff4 <pulp__FC+0xe51d1ff5>
	sltu t2, t0, t1
    2514:	0062b3b3          	sltu	t2,t0,t1
	sw t2, 4(sp)
    2518:	c21e                	sw	t2,4(sp)
	li t0, 0xffffffff
    251a:	fff00293          	li	t0,-1
	li t1, 0xffffffdf
    251e:	fdf00313          	li	t1,-33
	sltu t2, t0, t1
    2522:	0062b3b3          	sltu	t2,t0,t1
	sw t2, 4(sp)
    2526:	c21e                	sw	t2,4(sp)
	li t0, 0xc52b8e71
    2528:	c52b92b7          	lui	t0,0xc52b9
    252c:	e7128293          	addi	t0,t0,-399 # c52b8e71 <pulp__FC+0xc52b8e72>
	li t1, 0xc5355808
    2530:	c5356337          	lui	t1,0xc5356
    2534:	80830313          	addi	t1,t1,-2040 # c5355808 <pulp__FC+0xc5355809>
	slt t2, t0, t1
    2538:	0062a3b3          	slt	t2,t0,t1
	sw t2, 4(sp)
    253c:	c21e                	sw	t2,4(sp)
	li t0, 0xc92735f8
    253e:	c92732b7          	lui	t0,0xc9273
    2542:	5f828293          	addi	t0,t0,1528 # c92735f8 <pulp__FC+0xc92735f9>
	li t1, 0xc96733f1
    2546:	c9673337          	lui	t1,0xc9673
    254a:	3f130313          	addi	t1,t1,1009 # c96733f1 <pulp__FC+0xc96733f2>
	sltu t2, t0, t1
    254e:	0062b3b3          	sltu	t2,t0,t1
	sw t2, 4(sp)
    2552:	c21e                	sw	t2,4(sp)
	li t0, 0xc79123fd
    2554:	c79122b7          	lui	t0,0xc7912
    2558:	3fd28293          	addi	t0,t0,1021 # c79123fd <pulp__FC+0xc79123fe>
	li t1, 0xc79123ee
    255c:	c7912337          	lui	t1,0xc7912
    2560:	3ee30313          	addi	t1,t1,1006 # c79123ee <pulp__FC+0xc79123ef>
	slt t2, t0, t1
    2564:	0062a3b3          	slt	t2,t0,t1
	sw t2, 4(sp)
    2568:	c21e                	sw	t2,4(sp)
	li t0, 0xad80e7ea
    256a:	ad80e2b7          	lui	t0,0xad80e
    256e:	7ea28293          	addi	t0,t0,2026 # ad80e7ea <pulp__FC+0xad80e7eb>
	li t1, 0xad80e7e6
    2572:	ad80e337          	lui	t1,0xad80e
    2576:	7e630313          	addi	t1,t1,2022 # ad80e7e6 <pulp__FC+0xad80e7e7>
	sltu t2, t0, t1
    257a:	0062b3b3          	sltu	t2,t0,t1
	sw t2, 4(sp)
    257e:	c21e                	sw	t2,4(sp)
	li t0, 0x4439d087
    2580:	4439d2b7          	lui	t0,0x4439d
    2584:	08728293          	addi	t0,t0,135 # 4439d087 <_sp+0x4419bfb7>
	li t1, 0x4439d084
    2588:	4439d337          	lui	t1,0x4439d
    258c:	08430313          	addi	t1,t1,132 # 4439d084 <_sp+0x4419bfb4>
	sltu t2, t0, t1
    2590:	0062b3b3          	sltu	t2,t0,t1
	sw t2, 4(sp)
    2594:	c21e                	sw	t2,4(sp)
	li t0, 0xf47c0355
    2596:	f47c02b7          	lui	t0,0xf47c0
    259a:	35528293          	addi	t0,t0,853 # f47c0355 <pulp__FC+0xf47c0356>
	li t1, 0xf47c0356
    259e:	f47c0337          	lui	t1,0xf47c0
    25a2:	35630313          	addi	t1,t1,854 # f47c0356 <pulp__FC+0xf47c0357>
	slt t2, t0, t1
    25a6:	0062a3b3          	slt	t2,t0,t1
	sw t2, 4(sp)
    25aa:	c21e                	sw	t2,4(sp)
	li t0, 0x42dcedf2
    25ac:	42dcf2b7          	lui	t0,0x42dcf
    25b0:	df228293          	addi	t0,t0,-526 # 42dcedf2 <_sp+0x42bcdd22>
	li t1, 0x42dcfd69
    25b4:	42dd0337          	lui	t1,0x42dd0
    25b8:	d6930313          	addi	t1,t1,-663 # 42dcfd69 <_sp+0x42bcec99>
	slt t2, t0, t1
    25bc:	0062a3b3          	slt	t2,t0,t1
	sw t2, 4(sp)
    25c0:	c21e                	sw	t2,4(sp)
	li t0, 0x3a78d79
    25c2:	03a792b7          	lui	t0,0x3a79
    25c6:	d7928293          	addi	t0,t0,-647 # 3a78d79 <_sp+0x3877ca9>
	li t1, 0x3a78e34
    25ca:	03a79337          	lui	t1,0x3a79
    25ce:	e3430313          	addi	t1,t1,-460 # 3a78e34 <_sp+0x3877d64>
	slt t2, t0, t1
    25d2:	0062a3b3          	slt	t2,t0,t1
	sw t2, 4(sp)
    25d6:	c21e                	sw	t2,4(sp)
	li t0, 0x55f30748
    25d8:	55f302b7          	lui	t0,0x55f30
    25dc:	74828293          	addi	t0,t0,1864 # 55f30748 <_sp+0x55d2f678>
	li t1, 0x55f30768
    25e0:	55f30337          	lui	t1,0x55f30
    25e4:	76830313          	addi	t1,t1,1896 # 55f30768 <_sp+0x55d2f698>
	sltu t2, t0, t1
    25e8:	0062b3b3          	sltu	t2,t0,t1
	sw t2, 4(sp)
    25ec:	c21e                	sw	t2,4(sp)
	li t0, 0x7feca4fc
    25ee:	7feca2b7          	lui	t0,0x7feca
    25f2:	4fc28293          	addi	t0,t0,1276 # 7feca4fc <_sp+0x7fcc942c>
	li t1, 0x7f7e69fc
    25f6:	7f7e7337          	lui	t1,0x7f7e7
    25fa:	9fc30313          	addi	t1,t1,-1540 # 7f7e69fc <_sp+0x7f5e592c>
	slt t2, t0, t1
    25fe:	0062a3b3          	slt	t2,t0,t1
	sw t2, 4(sp)
    2602:	c21e                	sw	t2,4(sp)
	li t0, 0x78fb9a9e
    2604:	78fba2b7          	lui	t0,0x78fba
    2608:	a9e28293          	addi	t0,t0,-1378 # 78fb9a9e <_sp+0x78db89ce>
	li t1, 0x78fb9aa8
    260c:	78fba337          	lui	t1,0x78fba
    2610:	aa830313          	addi	t1,t1,-1368 # 78fb9aa8 <_sp+0x78db89d8>
	slt t2, t0, t1
    2614:	0062a3b3          	slt	t2,t0,t1
	sw t2, 4(sp)
    2618:	c21e                	sw	t2,4(sp)
	li t0, 0xd3350cb4
    261a:	d33512b7          	lui	t0,0xd3351
    261e:	cb428293          	addi	t0,t0,-844 # d3350cb4 <pulp__FC+0xd3350cb5>
	li t1, 0xd3350cb5
    2622:	d3351337          	lui	t1,0xd3351
    2626:	cb530313          	addi	t1,t1,-843 # d3350cb5 <pulp__FC+0xd3350cb6>
	sltu t2, t0, t1
    262a:	0062b3b3          	sltu	t2,t0,t1
	sw t2, 4(sp)
    262e:	c21e                	sw	t2,4(sp)
	li t0, 0x4a8e854a
    2630:	4a8e82b7          	lui	t0,0x4a8e8
    2634:	54a28293          	addi	t0,t0,1354 # 4a8e854a <_sp+0x4a6e747a>
	li t1, 0x4a8e854c
    2638:	4a8e8337          	lui	t1,0x4a8e8
    263c:	54c30313          	addi	t1,t1,1356 # 4a8e854c <_sp+0x4a6e747c>
	slt t2, t0, t1
    2640:	0062a3b3          	slt	t2,t0,t1
	sw t2, 4(sp)
    2644:	c21e                	sw	t2,4(sp)
	li t0, 0x3fdba422
    2646:	3fdba2b7          	lui	t0,0x3fdba
    264a:	42228293          	addi	t0,t0,1058 # 3fdba422 <_sp+0x3fbb9352>
	li t1, 0x3fdba421
    264e:	3fdba337          	lui	t1,0x3fdba
    2652:	42130313          	addi	t1,t1,1057 # 3fdba421 <_sp+0x3fbb9351>
	slt t2, t0, t1
    2656:	0062a3b3          	slt	t2,t0,t1
	sw t2, 4(sp)
    265a:	c21e                	sw	t2,4(sp)

	//DIVU DIV REM REMU
	li t0, 0x888aa8f5
    265c:	888ab2b7          	lui	t0,0x888ab
    2660:	8f528293          	addi	t0,t0,-1803 # 888aa8f5 <pulp__FC+0x888aa8f6>
	li t1, 0x8c8aa1e2
    2664:	8c8aa337          	lui	t1,0x8c8aa
    2668:	1e230313          	addi	t1,t1,482 # 8c8aa1e2 <pulp__FC+0x8c8aa1e3>
	divu t2, t0, t1
    266c:	0262d3b3          	divu	t2,t0,t1
	sw t2, 4(sp)
    2670:	c21e                	sw	t2,4(sp)
	li t0, 0xed51dcfa
    2672:	ed51e2b7          	lui	t0,0xed51e
    2676:	cfa28293          	addi	t0,t0,-774 # ed51dcfa <pulp__FC+0xed51dcfb>
	li t1, 0xed515c41
    267a:	ed516337          	lui	t1,0xed516
    267e:	c4130313          	addi	t1,t1,-959 # ed515c41 <pulp__FC+0xed515c42>
	divu t2, t0, t1
    2682:	0262d3b3          	divu	t2,t0,t1
	sw t2, 4(sp)
    2686:	c21e                	sw	t2,4(sp)
	li t0, 0x408be152
    2688:	408be2b7          	lui	t0,0x408be
    268c:	15228293          	addi	t0,t0,338 # 408be152 <_sp+0x406bd082>
	li t1, 0x408be152
    2690:	408be337          	lui	t1,0x408be
    2694:	15230313          	addi	t1,t1,338 # 408be152 <_sp+0x406bd082>
	rem t2, t0, t1
    2698:	0262e3b3          	rem	t2,t0,t1
	sw t2, 4(sp)
    269c:	c21e                	sw	t2,4(sp)
	li t0, 0x6f38ae29
    269e:	6f38b2b7          	lui	t0,0x6f38b
    26a2:	e2928293          	addi	t0,t0,-471 # 6f38ae29 <_sp+0x6f189d59>
	li t1, 0x6f38ae29
    26a6:	6f38b337          	lui	t1,0x6f38b
    26aa:	e2930313          	addi	t1,t1,-471 # 6f38ae29 <_sp+0x6f189d59>
	rem t2, t0, t1
    26ae:	0262e3b3          	rem	t2,t0,t1
	sw t2, 4(sp)
    26b2:	c21e                	sw	t2,4(sp)
	li t0, 0x20781c7c
    26b4:	207822b7          	lui	t0,0x20782
    26b8:	c7c28293          	addi	t0,t0,-900 # 20781c7c <_sp+0x20580bac>
	li t1, 0x207c4375
    26bc:	207c4337          	lui	t1,0x207c4
    26c0:	37530313          	addi	t1,t1,885 # 207c4375 <_sp+0x205c32a5>
	div t2, t0, t1
    26c4:	0262c3b3          	div	t2,t0,t1
	sw t2, 4(sp)
    26c8:	c21e                	sw	t2,4(sp)
	li t0, 0x93e8e2
    26ca:	0093f2b7          	lui	t0,0x93f
    26ce:	8e228293          	addi	t0,t0,-1822 # 93e8e2 <_sp+0x73d812>
	li t1, 0x93e8e2
    26d2:	0093f337          	lui	t1,0x93f
    26d6:	8e230313          	addi	t1,t1,-1822 # 93e8e2 <_sp+0x73d812>
	div t2, t0, t1
    26da:	0262c3b3          	div	t2,t0,t1
	sw t2, 4(sp)
    26de:	c21e                	sw	t2,4(sp)
	li t0, 0xfcebcb14
    26e0:	fcebd2b7          	lui	t0,0xfcebd
    26e4:	b1428293          	addi	t0,t0,-1260 # fcebcb14 <pulp__FC+0xfcebcb15>
	li t1, 0xfcebc914
    26e8:	fcebd337          	lui	t1,0xfcebd
    26ec:	91430313          	addi	t1,t1,-1772 # fcebc914 <pulp__FC+0xfcebc915>
	divu t2, t0, t1
    26f0:	0262d3b3          	divu	t2,t0,t1
	sw t2, 4(sp)
    26f4:	c21e                	sw	t2,4(sp)
	li t0, 0x7721af28
    26f6:	7721b2b7          	lui	t0,0x7721b
    26fa:	f2828293          	addi	t0,t0,-216 # 7721af28 <_sp+0x77019e58>
	li t1, 0x3721af28
    26fe:	3721b337          	lui	t1,0x3721b
    2702:	f2830313          	addi	t1,t1,-216 # 3721af28 <_sp+0x37019e58>
	remu t2, t0, t1
    2706:	0262f3b3          	remu	t2,t0,t1
	sw t2, 4(sp)
    270a:	c21e                	sw	t2,4(sp)
	li t0, 0xa319821b
    270c:	a31982b7          	lui	t0,0xa3198
    2710:	21b28293          	addi	t0,t0,539 # a319821b <pulp__FC+0xa319821c>
	li t1, 0xa318821b
    2714:	a3188337          	lui	t1,0xa3188
    2718:	21b30313          	addi	t1,t1,539 # a318821b <pulp__FC+0xa318821c>
	div t2, t0, t1
    271c:	0262c3b3          	div	t2,t0,t1
	sw t2, 4(sp)
    2720:	c21e                	sw	t2,4(sp)
	li t0, 0xfc2263d5
    2722:	fc2262b7          	lui	t0,0xfc226
    2726:	3d528293          	addi	t0,t0,981 # fc2263d5 <pulp__FC+0xfc2263d6>
	li t1, 0xec2263d5
    272a:	ec226337          	lui	t1,0xec226
    272e:	3d530313          	addi	t1,t1,981 # ec2263d5 <pulp__FC+0xec2263d6>
	remu t2, t0, t1
    2732:	0262f3b3          	remu	t2,t0,t1
	sw t2, 4(sp)
    2736:	c21e                	sw	t2,4(sp)
	li t0, 0x332f5cb4
    2738:	332f62b7          	lui	t0,0x332f6
    273c:	cb428293          	addi	t0,t0,-844 # 332f5cb4 <_sp+0x330f4be4>
	li t1, 0x33afa677
    2740:	33afa337          	lui	t1,0x33afa
    2744:	67730313          	addi	t1,t1,1655 # 33afa677 <_sp+0x338f95a7>
	rem t2, t0, t1
    2748:	0262e3b3          	rem	t2,t0,t1
	sw t2, 4(sp)
    274c:	c21e                	sw	t2,4(sp)
	li t0, 0x40623d9
    274e:	040622b7          	lui	t0,0x4062
    2752:	3d928293          	addi	t0,t0,985 # 40623d9 <_sp+0x3e61309>
	li t1, 0x60623d9
    2756:	06062337          	lui	t1,0x6062
    275a:	3d930313          	addi	t1,t1,985 # 60623d9 <_sp+0x5e61309>
	rem t2, t0, t1
    275e:	0262e3b3          	rem	t2,t0,t1
	sw t2, 4(sp)
    2762:	c21e                	sw	t2,4(sp)
	li t0, 0xbe1d4357
    2764:	be1d42b7          	lui	t0,0xbe1d4
    2768:	35728293          	addi	t0,t0,855 # be1d4357 <pulp__FC+0xbe1d4358>
	li t1, 0xbe5db96c
    276c:	be5dc337          	lui	t1,0xbe5dc
    2770:	96c30313          	addi	t1,t1,-1684 # be5db96c <pulp__FC+0xbe5db96d>
	div t2, t0, t1
    2774:	0262c3b3          	div	t2,t0,t1
	sw t2, 4(sp)
    2778:	c21e                	sw	t2,4(sp)
	li t0, 0x88a6c1f6
    277a:	88a6c2b7          	lui	t0,0x88a6c
    277e:	1f628293          	addi	t0,t0,502 # 88a6c1f6 <pulp__FC+0x88a6c1f7>
	li t1, 0x88a6c1f7
    2782:	88a6c337          	lui	t1,0x88a6c
    2786:	1f730313          	addi	t1,t1,503 # 88a6c1f7 <pulp__FC+0x88a6c1f8>
	divu t2, t0, t1
    278a:	0262d3b3          	divu	t2,t0,t1
	sw t2, 4(sp)
    278e:	c21e                	sw	t2,4(sp)
	li t0, 0x58bc4af
    2790:	058bc2b7          	lui	t0,0x58bc
    2794:	4af28293          	addi	t0,t0,1199 # 58bc4af <_sp+0x56bb3df>
	li t1, 0x50bbeaa
    2798:	050bc337          	lui	t1,0x50bc
    279c:	eaa30313          	addi	t1,t1,-342 # 50bbeaa <_sp+0x4ebadda>
	divu t2, t0, t1
    27a0:	0262d3b3          	divu	t2,t0,t1
	sw t2, 4(sp)
    27a4:	c21e                	sw	t2,4(sp)
	li t0, 0x214b10b
    27a6:	0214b2b7          	lui	t0,0x214b
    27aa:	10b28293          	addi	t0,t0,267 # 214b10b <_sp+0x1f4a03b>
	li t1, 0x214f10b
    27ae:	0214f337          	lui	t1,0x214f
    27b2:	10b30313          	addi	t1,t1,267 # 214f10b <_sp+0x1f4e03b>
	remu t2, t0, t1
    27b6:	0262f3b3          	remu	t2,t0,t1
	sw t2, 4(sp)
    27ba:	c21e                	sw	t2,4(sp)
	li t0, 0xd053cda4
    27bc:	d053d2b7          	lui	t0,0xd053d
    27c0:	da428293          	addi	t0,t0,-604 # d053cda4 <pulp__FC+0xd053cda5>
	li t1, 0x50531eb9
    27c4:	50532337          	lui	t1,0x50532
    27c8:	eb930313          	addi	t1,t1,-327 # 50531eb9 <_sp+0x50330de9>
	div t2, t0, t1
    27cc:	0262c3b3          	div	t2,t0,t1
	sw t2, 4(sp)
    27d0:	c21e                	sw	t2,4(sp)
	li t0, 0xd26b2484
    27d2:	d26b22b7          	lui	t0,0xd26b2
    27d6:	48428293          	addi	t0,t0,1156 # d26b2484 <pulp__FC+0xd26b2485>
	li t1, 0xd2692484
    27da:	d2692337          	lui	t1,0xd2692
    27de:	48430313          	addi	t1,t1,1156 # d2692484 <pulp__FC+0xd2692485>
	remu t2, t0, t1
    27e2:	0262f3b3          	remu	t2,t0,t1
	sw t2, 4(sp)
    27e6:	c21e                	sw	t2,4(sp)
	li t0, 0x13538d3f
    27e8:	135392b7          	lui	t0,0x13539
    27ec:	d3f28293          	addi	t0,t0,-705 # 13538d3f <_sp+0x13337c6f>
	li t1, 0x1b538d3f
    27f0:	1b539337          	lui	t1,0x1b539
    27f4:	d3f30313          	addi	t1,t1,-705 # 1b538d3f <_sp+0x1b337c6f>
	div t2, t0, t1
    27f8:	0262c3b3          	div	t2,t0,t1
	sw t2, 4(sp)
    27fc:	c21e                	sw	t2,4(sp)
	li t0, 0xbf49f9b4
    27fe:	bf4a02b7          	lui	t0,0xbf4a0
    2802:	9b428293          	addi	t0,t0,-1612 # bf49f9b4 <pulp__FC+0xbf49f9b5>
	li t1, 0xbe4923d7
    2806:	be492337          	lui	t1,0xbe492
    280a:	3d730313          	addi	t1,t1,983 # be4923d7 <pulp__FC+0xbe4923d8>
	divu t2, t0, t1
    280e:	0262d3b3          	divu	t2,t0,t1
	sw t2, 4(sp)
    2812:	c21e                	sw	t2,4(sp)
	li t0, 0x90367cda
    2814:	903682b7          	lui	t0,0x90368
    2818:	cda28293          	addi	t0,t0,-806 # 90367cda <pulp__FC+0x90367cdb>
	li t1, 0xb03611eb
    281c:	b0361337          	lui	t1,0xb0361
    2820:	1eb30313          	addi	t1,t1,491 # b03611eb <pulp__FC+0xb03611ec>
	divu t2, t0, t1
    2824:	0262d3b3          	divu	t2,t0,t1
	sw t2, 4(sp)
    2828:	c21e                	sw	t2,4(sp)
	li t0, 0x5e29a66a
    282a:	5e29a2b7          	lui	t0,0x5e29a
    282e:	66a28293          	addi	t0,t0,1642 # 5e29a66a <_sp+0x5e09959a>
	li t1, 0x5e29a62a
    2832:	5e29a337          	lui	t1,0x5e29a
    2836:	62a30313          	addi	t1,t1,1578 # 5e29a62a <_sp+0x5e09955a>
	remu t2, t0, t1
    283a:	0262f3b3          	remu	t2,t0,t1
	sw t2, 4(sp)
    283e:	c21e                	sw	t2,4(sp)
	li t0, 0xca3376b
    2840:	0ca332b7          	lui	t0,0xca33
    2844:	76b28293          	addi	t0,t0,1899 # ca3376b <_sp+0xc83269b>
	li t1, 0xca3176b
    2848:	0ca31337          	lui	t1,0xca31
    284c:	76b30313          	addi	t1,t1,1899 # ca3176b <_sp+0xc83069b>
	div t2, t0, t1
    2850:	0262c3b3          	div	t2,t0,t1
	sw t2, 4(sp)
    2854:	c21e                	sw	t2,4(sp)
	li t0, 0x9e789905
    2856:	9e78a2b7          	lui	t0,0x9e78a
    285a:	90528293          	addi	t0,t0,-1787 # 9e789905 <pulp__FC+0x9e789906>
	li t1, 0x9e789d05
    285e:	9e78a337          	lui	t1,0x9e78a
    2862:	d0530313          	addi	t1,t1,-763 # 9e789d05 <pulp__FC+0x9e789d06>
	remu t2, t0, t1
    2866:	0262f3b3          	remu	t2,t0,t1
	sw t2, 4(sp)
    286a:	c21e                	sw	t2,4(sp)
	li t0, 0x83d46f18
    286c:	83d472b7          	lui	t0,0x83d47
    2870:	f1828293          	addi	t0,t0,-232 # 83d46f18 <pulp__FC+0x83d46f19>
	li t1, 0x83d06f18
    2874:	83d07337          	lui	t1,0x83d07
    2878:	f1830313          	addi	t1,t1,-232 # 83d06f18 <pulp__FC+0x83d06f19>
	divu t2, t0, t1
    287c:	0262d3b3          	divu	t2,t0,t1
	sw t2, 4(sp)
    2880:	c21e                	sw	t2,4(sp)
	li t0, 0xb662ca8f
    2882:	b662d2b7          	lui	t0,0xb662d
    2886:	a8f28293          	addi	t0,t0,-1393 # b662ca8f <pulp__FC+0xb662ca90>
	li t1, 0xb672ca8f
    288a:	b672d337          	lui	t1,0xb672d
    288e:	a8f30313          	addi	t1,t1,-1393 # b672ca8f <pulp__FC+0xb672ca90>
	divu t2, t0, t1
    2892:	0262d3b3          	divu	t2,t0,t1
	sw t2, 4(sp)
    2896:	c21e                	sw	t2,4(sp)
	li t0, 0xaa0473e7
    2898:	aa0472b7          	lui	t0,0xaa047
    289c:	3e728293          	addi	t0,t0,999 # aa0473e7 <pulp__FC+0xaa0473e8>
	li t1, 0xaa0473ef
    28a0:	aa047337          	lui	t1,0xaa047
    28a4:	3ef30313          	addi	t1,t1,1007 # aa0473ef <pulp__FC+0xaa0473f0>
	remu t2, t0, t1
    28a8:	0262f3b3          	remu	t2,t0,t1
	sw t2, 4(sp)
    28ac:	c21e                	sw	t2,4(sp)
	li t0, 0x60ec01a7
    28ae:	60ec02b7          	lui	t0,0x60ec0
    28b2:	1a728293          	addi	t0,t0,423 # 60ec01a7 <_sp+0x60cbf0d7>
	li t1, 0x60ec81a7
    28b6:	60ec8337          	lui	t1,0x60ec8
    28ba:	1a730313          	addi	t1,t1,423 # 60ec81a7 <_sp+0x60cc70d7>
	div t2, t0, t1
    28be:	0262c3b3          	div	t2,t0,t1
	sw t2, 4(sp)
    28c2:	c21e                	sw	t2,4(sp)
	li t0, 0x1fa98b19
    28c4:	1fa992b7          	lui	t0,0x1fa99
    28c8:	b1928293          	addi	t0,t0,-1255 # 1fa98b19 <_sp+0x1f897a49>
	li t1, 0x1fa98b19
    28cc:	1fa99337          	lui	t1,0x1fa99
    28d0:	b1930313          	addi	t1,t1,-1255 # 1fa98b19 <_sp+0x1f897a49>
	divu t2, t0, t1
    28d4:	0262d3b3          	divu	t2,t0,t1
	sw t2, 4(sp)
    28d8:	c21e                	sw	t2,4(sp)
	li t0, 0xcffaf239
    28da:	cffaf2b7          	lui	t0,0xcffaf
    28de:	23928293          	addi	t0,t0,569 # cffaf239 <pulp__FC+0xcffaf23a>
	li t1, 0xcffaf239
    28e2:	cffaf337          	lui	t1,0xcffaf
    28e6:	23930313          	addi	t1,t1,569 # cffaf239 <pulp__FC+0xcffaf23a>
	divu t2, t0, t1
    28ea:	0262d3b3          	divu	t2,t0,t1
	sw t2, 4(sp)
    28ee:	c21e                	sw	t2,4(sp)
	li t0, 0x1be52d17
    28f0:	1be532b7          	lui	t0,0x1be53
    28f4:	d1728293          	addi	t0,t0,-745 # 1be52d17 <_sp+0x1bc51c47>
	li t1, 0x1be52d17
    28f8:	1be53337          	lui	t1,0x1be53
    28fc:	d1730313          	addi	t1,t1,-745 # 1be52d17 <_sp+0x1bc51c47>
	divu t2, t0, t1
    2900:	0262d3b3          	divu	t2,t0,t1
	sw t2, 4(sp)
    2904:	c21e                	sw	t2,4(sp)
	li t0, 0x217a2b5e
    2906:	217a32b7          	lui	t0,0x217a3
    290a:	b5e28293          	addi	t0,t0,-1186 # 217a2b5e <_sp+0x215a1a8e>
	li t1, 0x216629b2
    290e:	21663337          	lui	t1,0x21663
    2912:	9b230313          	addi	t1,t1,-1614 # 216629b2 <_sp+0x214618e2>
	divu t2, t0, t1
    2916:	0262d3b3          	divu	t2,t0,t1
	sw t2, 4(sp)
    291a:	c21e                	sw	t2,4(sp)
	li t0, 0x4db88b49
    291c:	4db892b7          	lui	t0,0x4db89
    2920:	b4928293          	addi	t0,t0,-1207 # 4db88b49 <_sp+0x4d987a79>
	li t1, 0x4db88a49
    2924:	4db89337          	lui	t1,0x4db89
    2928:	a4930313          	addi	t1,t1,-1463 # 4db88a49 <_sp+0x4d987979>
	divu t2, t0, t1
    292c:	0262d3b3          	divu	t2,t0,t1
	sw t2, 4(sp)
    2930:	c21e                	sw	t2,4(sp)
	li t0, 0xf321e6e6
    2932:	f321e2b7          	lui	t0,0xf321e
    2936:	6e628293          	addi	t0,t0,1766 # f321e6e6 <pulp__FC+0xf321e6e7>
	li t1, 0xf721e6e6
    293a:	f721e337          	lui	t1,0xf721e
    293e:	6e630313          	addi	t1,t1,1766 # f721e6e6 <pulp__FC+0xf721e6e7>
	remu t2, t0, t1
    2942:	0262f3b3          	remu	t2,t0,t1
	sw t2, 4(sp)
    2946:	c21e                	sw	t2,4(sp)
	li t0, 0x380cad26
    2948:	380cb2b7          	lui	t0,0x380cb
    294c:	d2628293          	addi	t0,t0,-730 # 380cad26 <_sp+0x37ec9c56>
	li t1, 0x3804ab38
    2950:	3804b337          	lui	t1,0x3804b
    2954:	b3830313          	addi	t1,t1,-1224 # 3804ab38 <_sp+0x37e49a68>
	div t2, t0, t1
    2958:	0262c3b3          	div	t2,t0,t1
	sw t2, 4(sp)
    295c:	c21e                	sw	t2,4(sp)
	li t0, 0xd03ae7d7
    295e:	d03ae2b7          	lui	t0,0xd03ae
    2962:	7d728293          	addi	t0,t0,2007 # d03ae7d7 <pulp__FC+0xd03ae7d8>
	li t1, 0xd03ae757
    2966:	d03ae337          	lui	t1,0xd03ae
    296a:	75730313          	addi	t1,t1,1879 # d03ae757 <pulp__FC+0xd03ae758>
	divu t2, t0, t1
    296e:	0262d3b3          	divu	t2,t0,t1
	sw t2, 4(sp)
    2972:	c21e                	sw	t2,4(sp)
	li t0, 0x2309fdf5
    2974:	230a02b7          	lui	t0,0x230a0
    2978:	df528293          	addi	t0,t0,-523 # 2309fdf5 <_sp+0x22e9ed25>
	li t1, 0x230b39ab
    297c:	230b4337          	lui	t1,0x230b4
    2980:	9ab30313          	addi	t1,t1,-1621 # 230b39ab <_sp+0x22eb28db>
	remu t2, t0, t1
    2984:	0262f3b3          	remu	t2,t0,t1
	sw t2, 4(sp)
    2988:	c21e                	sw	t2,4(sp)
	li t0, 0xa8520a14
    298a:	a85212b7          	lui	t0,0xa8521
    298e:	a1428293          	addi	t0,t0,-1516 # a8520a14 <pulp__FC+0xa8520a15>
	li t1, 0xa8520a54
    2992:	a8521337          	lui	t1,0xa8521
    2996:	a5430313          	addi	t1,t1,-1452 # a8520a54 <pulp__FC+0xa8520a55>
	rem t2, t0, t1
    299a:	0262e3b3          	rem	t2,t0,t1
	sw t2, 4(sp)
    299e:	c21e                	sw	t2,4(sp)
	li t0, 0xc08b93fe
    29a0:	c08b92b7          	lui	t0,0xc08b9
    29a4:	3fe28293          	addi	t0,t0,1022 # c08b93fe <pulp__FC+0xc08b93ff>
	li t1, 0xc08b93de
    29a8:	c08b9337          	lui	t1,0xc08b9
    29ac:	3de30313          	addi	t1,t1,990 # c08b93de <pulp__FC+0xc08b93df>
	div t2, t0, t1
    29b0:	0262c3b3          	div	t2,t0,t1
	sw t2, 4(sp)
    29b4:	c21e                	sw	t2,4(sp)
	li t0, 0x1ee134e0
    29b6:	1ee132b7          	lui	t0,0x1ee13
    29ba:	4e028293          	addi	t0,t0,1248 # 1ee134e0 <_sp+0x1ec12410>
	li t1, 0x16e10e87
    29be:	16e11337          	lui	t1,0x16e11
    29c2:	e8730313          	addi	t1,t1,-377 # 16e10e87 <_sp+0x16c0fdb7>
	divu t2, t0, t1
    29c6:	0262d3b3          	divu	t2,t0,t1
	sw t2, 4(sp)
    29ca:	c21e                	sw	t2,4(sp)
	li t0, 0x5cf1a70
    29cc:	05cf22b7          	lui	t0,0x5cf2
    29d0:	a7028293          	addi	t0,t0,-1424 # 5cf1a70 <_sp+0x5af09a0>
	li t1, 0x58f0743
    29d4:	058f0337          	lui	t1,0x58f0
    29d8:	74330313          	addi	t1,t1,1859 # 58f0743 <_sp+0x56ef673>
	divu t2, t0, t1
    29dc:	0262d3b3          	divu	t2,t0,t1
	sw t2, 4(sp)
    29e0:	c21e                	sw	t2,4(sp)
	li t0, 0x8b60c2c3
    29e2:	8b60c2b7          	lui	t0,0x8b60c
    29e6:	2c328293          	addi	t0,t0,707 # 8b60c2c3 <pulp__FC+0x8b60c2c4>
	li t1, 0x8b60d2c3
    29ea:	8b60d337          	lui	t1,0x8b60d
    29ee:	2c330313          	addi	t1,t1,707 # 8b60d2c3 <pulp__FC+0x8b60d2c4>
	divu t2, t0, t1
    29f2:	0262d3b3          	divu	t2,t0,t1
	sw t2, 4(sp)
    29f6:	c21e                	sw	t2,4(sp)
	li t0, 0xb63c47c5
    29f8:	b63c42b7          	lui	t0,0xb63c4
    29fc:	7c528293          	addi	t0,t0,1989 # b63c47c5 <pulp__FC+0xb63c47c6>
	li t1, 0xb63c47c4
    2a00:	b63c4337          	lui	t1,0xb63c4
    2a04:	7c430313          	addi	t1,t1,1988 # b63c47c4 <pulp__FC+0xb63c47c5>
	divu t2, t0, t1
    2a08:	0262d3b3          	divu	t2,t0,t1
	sw t2, 4(sp)
    2a0c:	c21e                	sw	t2,4(sp)
	li t0, 0x61951dbf
    2a0e:	619522b7          	lui	t0,0x61952
    2a12:	dbf28293          	addi	t0,t0,-577 # 61951dbf <_sp+0x61750cef>
	li t1, 0x71953d83
    2a16:	71954337          	lui	t1,0x71954
    2a1a:	d8330313          	addi	t1,t1,-637 # 71953d83 <_sp+0x71752cb3>
	remu t2, t0, t1
    2a1e:	0262f3b3          	remu	t2,t0,t1
	sw t2, 4(sp)
    2a22:	c21e                	sw	t2,4(sp)
	li t0, 0x6b055a09
    2a24:	6b0562b7          	lui	t0,0x6b056
    2a28:	a0928293          	addi	t0,t0,-1527 # 6b055a09 <_sp+0x6ae54939>
	li t1, 0x6b055a89
    2a2c:	6b056337          	lui	t1,0x6b056
    2a30:	a8930313          	addi	t1,t1,-1399 # 6b055a89 <_sp+0x6ae549b9>
	div t2, t0, t1
    2a34:	0262c3b3          	div	t2,t0,t1
	sw t2, 4(sp)
    2a38:	c21e                	sw	t2,4(sp)
	li t0, 0x72d27280
    2a3a:	72d272b7          	lui	t0,0x72d27
    2a3e:	28028293          	addi	t0,t0,640 # 72d27280 <_sp+0x72b261b0>
	li t1, 0x72d26280
    2a42:	72d26337          	lui	t1,0x72d26
    2a46:	28030313          	addi	t1,t1,640 # 72d26280 <_sp+0x72b251b0>
	div t2, t0, t1
    2a4a:	0262c3b3          	div	t2,t0,t1
	sw t2, 4(sp)
    2a4e:	c21e                	sw	t2,4(sp)
	li t0, 0x6e924e26
    2a50:	6e9252b7          	lui	t0,0x6e925
    2a54:	e2628293          	addi	t0,t0,-474 # 6e924e26 <_sp+0x6e723d56>
	li t1, 0x6e926e26
    2a58:	6e927337          	lui	t1,0x6e927
    2a5c:	e2630313          	addi	t1,t1,-474 # 6e926e26 <_sp+0x6e725d56>
	remu t2, t0, t1
    2a60:	0262f3b3          	remu	t2,t0,t1
	sw t2, 4(sp)
    2a64:	c21e                	sw	t2,4(sp)
	li t0, 0x514ffc
    2a66:	005152b7          	lui	t0,0x515
    2a6a:	ffc28293          	addi	t0,t0,-4 # 514ffc <_sp+0x313f2c>
	li t1, 0x5147fc
    2a6e:	00514337          	lui	t1,0x514
    2a72:	7fc30313          	addi	t1,t1,2044 # 5147fc <_sp+0x31372c>
	rem t2, t0, t1
    2a76:	0262e3b3          	rem	t2,t0,t1
	sw t2, 4(sp)
    2a7a:	c21e                	sw	t2,4(sp)
	li t0, 0x40eecedd
    2a7c:	40eed2b7          	lui	t0,0x40eed
    2a80:	edd28293          	addi	t0,t0,-291 # 40eecedd <_sp+0x40cebe0d>
	li t1, 0x40ee8edd
    2a84:	40ee9337          	lui	t1,0x40ee9
    2a88:	edd30313          	addi	t1,t1,-291 # 40ee8edd <_sp+0x40ce7e0d>
	rem t2, t0, t1
    2a8c:	0262e3b3          	rem	t2,t0,t1
	sw t2, 4(sp)
    2a90:	c21e                	sw	t2,4(sp)
	li t0, 0xac815add
    2a92:	ac8162b7          	lui	t0,0xac816
    2a96:	add28293          	addi	t0,t0,-1315 # ac815add <pulp__FC+0xac815ade>
	li t1, 0xaca1086c
    2a9a:	aca11337          	lui	t1,0xaca11
    2a9e:	86c30313          	addi	t1,t1,-1940 # aca1086c <pulp__FC+0xaca1086d>
	div t2, t0, t1
    2aa2:	0262c3b3          	div	t2,t0,t1
	sw t2, 4(sp)
    2aa6:	c21e                	sw	t2,4(sp)
	li t0, 0xccccf785
    2aa8:	ccccf2b7          	lui	t0,0xccccf
    2aac:	78528293          	addi	t0,t0,1925 # ccccf785 <pulp__FC+0xccccf786>
	li t1, 0xccccf781
    2ab0:	ccccf337          	lui	t1,0xccccf
    2ab4:	78130313          	addi	t1,t1,1921 # ccccf781 <pulp__FC+0xccccf782>
	divu t2, t0, t1
    2ab8:	0262d3b3          	divu	t2,t0,t1
	sw t2, 4(sp)
    2abc:	c21e                	sw	t2,4(sp)
	li t0, 0xd769c0bb
    2abe:	d769c2b7          	lui	t0,0xd769c
    2ac2:	0bb28293          	addi	t0,t0,187 # d769c0bb <pulp__FC+0xd769c0bc>
	li t1, 0xd769c0b9
    2ac6:	d769c337          	lui	t1,0xd769c
    2aca:	0b930313          	addi	t1,t1,185 # d769c0b9 <pulp__FC+0xd769c0ba>
	remu t2, t0, t1
    2ace:	0262f3b3          	remu	t2,t0,t1
	sw t2, 4(sp)
    2ad2:	c21e                	sw	t2,4(sp)
	li t0, 0x779fb6b9
    2ad4:	779fb2b7          	lui	t0,0x779fb
    2ad8:	6b928293          	addi	t0,t0,1721 # 779fb6b9 <_sp+0x777fa5e9>
	li t1, 0xf79f9bda
    2adc:	f79fa337          	lui	t1,0xf79fa
    2ae0:	bda30313          	addi	t1,t1,-1062 # f79f9bda <pulp__FC+0xf79f9bdb>
	div t2, t0, t1
    2ae4:	0262c3b3          	div	t2,t0,t1
	sw t2, 4(sp)
    2ae8:	c21e                	sw	t2,4(sp)
	li t0, 0xb0065656
    2aea:	b00652b7          	lui	t0,0xb0065
    2aee:	65628293          	addi	t0,t0,1622 # b0065656 <pulp__FC+0xb0065657>
	li t1, 0xb0065e56
    2af2:	b0066337          	lui	t1,0xb0066
    2af6:	e5630313          	addi	t1,t1,-426 # b0065e56 <pulp__FC+0xb0065e57>
	remu t2, t0, t1
    2afa:	0262f3b3          	remu	t2,t0,t1
	sw t2, 4(sp)
    2afe:	c21e                	sw	t2,4(sp)
	li t0, 0xf5ac79af
    2b00:	f5ac82b7          	lui	t0,0xf5ac8
    2b04:	9af28293          	addi	t0,t0,-1617 # f5ac79af <pulp__FC+0xf5ac79b0>
	li t1, 0xf5ac79bf
    2b08:	f5ac8337          	lui	t1,0xf5ac8
    2b0c:	9bf30313          	addi	t1,t1,-1601 # f5ac79bf <pulp__FC+0xf5ac79c0>
	div t2, t0, t1
    2b10:	0262c3b3          	div	t2,t0,t1
	sw t2, 4(sp)
    2b14:	c21e                	sw	t2,4(sp)
	ret
    2b16:	8082                	ret

00002b18 <_sbst_rf>:
	.type _sbst_rf, @function

_sbst_rf:
	
	// Loading special pattern
	la		t0, return_address
    2b18:	001fd297          	auipc	t0,0x1fd
    2b1c:	53028293          	addi	t0,t0,1328 # 200048 <return_address>
	sw		x1, (t0)
    2b20:	0012a023          	sw	ra,0(t0)
	la		x1, RF_PATTERNS
    2b24:	00002097          	auipc	ra,0x2
    2b28:	dec08093          	addi	ra,ra,-532 # 4910 <__TEST_RODATA_START>
	la		x31, test_result
    2b2c:	001fdf97          	auipc	t6,0x1fd
    2b30:	518f8f93          	addi	t6,t6,1304 # 200044 <test_result>
	lw		x16, (x1)
    2b34:	0000a803          	lw	a6,0(ra)

	                
	or 		x1, zero, x16
    2b38:	010060b3          	or	ra,zero,a6
	or 		x2, zero, x16
    2b3c:	01006133          	or	sp,zero,a6
	or 		x3, zero, x16
    2b40:	010061b3          	or	gp,zero,a6
	or 		x4, zero, x16
    2b44:	01006233          	or	tp,zero,a6
	or 		x5, zero, x16
    2b48:	010062b3          	or	t0,zero,a6
	or 		x6, zero, x16
    2b4c:	01006333          	or	t1,zero,a6
	or 		x7, zero, x16
    2b50:	010063b3          	or	t2,zero,a6
	or 		x8, zero, x16
    2b54:	01006433          	or	s0,zero,a6
	or 		x9, zero, x16
    2b58:	010064b3          	or	s1,zero,a6
	or 		x10, zero, x16
    2b5c:	01006533          	or	a0,zero,a6
	or 		x11, zero, x16
    2b60:	010065b3          	or	a1,zero,a6
	or 		x12, zero, x16
    2b64:	01006633          	or	a2,zero,a6
	or 		x13, zero, x16
    2b68:	010066b3          	or	a3,zero,a6
	or 		x14, zero, x16
    2b6c:	01006733          	or	a4,zero,a6
	or 		x15, zero, x16
    2b70:	010067b3          	or	a5,zero,a6
	sw		x1, (x31)
    2b74:	001fa023          	sw	ra,0(t6)
	sw		x2, (x31)
    2b78:	002fa023          	sw	sp,0(t6)
	sw		x3, (x31)
    2b7c:	003fa023          	sw	gp,0(t6)
	sw		x4, (x31)
    2b80:	004fa023          	sw	tp,0(t6)
	sw		x5, (x31)
    2b84:	005fa023          	sw	t0,0(t6)
	sw		x6, (x31)
    2b88:	006fa023          	sw	t1,0(t6)
	sw		x7, (x31)
    2b8c:	007fa023          	sw	t2,0(t6)
	sw		x8, (x31)
    2b90:	008fa023          	sw	s0,0(t6)
	sw		x9, (x31)
    2b94:	009fa023          	sw	s1,0(t6)
	sw		x10, (x31)
    2b98:	00afa023          	sw	a0,0(t6)
	sw		x11, (x31)
    2b9c:	00bfa023          	sw	a1,0(t6)
	sw		x12, (x31)
    2ba0:	00cfa023          	sw	a2,0(t6)
	sw		x13, (x31)
    2ba4:	00dfa023          	sw	a3,0(t6)
	sw		x14, (x31)
    2ba8:	00efa023          	sw	a4,0(t6)
	sw		x15, (x31)
    2bac:	00ffa023          	sw	a5,0(t6)
	xori		x1, x1, -1
    2bb0:	fff0c093          	not	ra,ra
	xori		x2, x2, -1
    2bb4:	fff14113          	not	sp,sp
	xori		x3, x3, -1
    2bb8:	fff1c193          	not	gp,gp
	xori		x4, x4, -1
    2bbc:	fff24213          	not	tp,tp
	xori		x5, x5, -1
    2bc0:	fff2c293          	not	t0,t0
	xori		x6, x6, -1
    2bc4:	fff34313          	not	t1,t1
	xori		x7, x7, -1
    2bc8:	fff3c393          	not	t2,t2
	xori		x8, x8, -1
    2bcc:	fff44413          	not	s0,s0
	xori		x9, x9, -1
    2bd0:	fff4c493          	not	s1,s1
	xori		x10, x10, -1
    2bd4:	fff54513          	not	a0,a0
	xori		x11, x11, -1
    2bd8:	fff5c593          	not	a1,a1
	xori		x12, x12, -1
    2bdc:	fff64613          	not	a2,a2
	xori		x13, x13, -1
    2be0:	fff6c693          	not	a3,a3
	xori		x14, x14, -1
    2be4:	fff74713          	not	a4,a4
	xori		x15, x15, -1
    2be8:	fff7c793          	not	a5,a5
	sw		x1, (x31)
    2bec:	001fa023          	sw	ra,0(t6)
	sw		x2, (x31)
    2bf0:	002fa023          	sw	sp,0(t6)
	sw		x3, (x31)
    2bf4:	003fa023          	sw	gp,0(t6)
	sw		x4, (x31)
    2bf8:	004fa023          	sw	tp,0(t6)
	sw		x5, (x31)
    2bfc:	005fa023          	sw	t0,0(t6)
	sw		x6, (x31)
    2c00:	006fa023          	sw	t1,0(t6)
	sw		x7, (x31)
    2c04:	007fa023          	sw	t2,0(t6)
	sw		x8, (x31)
    2c08:	008fa023          	sw	s0,0(t6)
	sw		x9, (x31)
    2c0c:	009fa023          	sw	s1,0(t6)
	sw		x10, (x31)
    2c10:	00afa023          	sw	a0,0(t6)
	sw		x11, (x31)
    2c14:	00bfa023          	sw	a1,0(t6)
	sw		x12, (x31)
    2c18:	00cfa023          	sw	a2,0(t6)
	sw		x13, (x31)
    2c1c:	00dfa023          	sw	a3,0(t6)
	sw		x14, (x31)
    2c20:	00efa023          	sw	a4,0(t6)
	sw		x15, (x31)
    2c24:	00ffa023          	sw	a5,0(t6)

	la		x1, RF_PATTERNS
    2c28:	00002097          	auipc	ra,0x2
    2c2c:	ce808093          	addi	ra,ra,-792 # 4910 <__TEST_RODATA_START>
	lw		x6, 4(x1)
    2c30:	0040a303          	lw	t1,4(ra)
	or		x1, x31, zero
    2c34:	000fe0b3          	or	ra,t6,zero

	or 		x17, zero, x6
    2c38:	006068b3          	or	a7,zero,t1
	or 		x18, zero, x6
    2c3c:	00606933          	or	s2,zero,t1
	or 		x19, zero, x6
    2c40:	006069b3          	or	s3,zero,t1
	or 		x20, zero, x6
    2c44:	00606a33          	or	s4,zero,t1
	or 		x21, zero, x6
    2c48:	00606ab3          	or	s5,zero,t1
	or 		x22, zero, x6
    2c4c:	00606b33          	or	s6,zero,t1
	or 		x23, zero, x6
    2c50:	00606bb3          	or	s7,zero,t1
	or 		x24, zero, x6
    2c54:	00606c33          	or	s8,zero,t1
	or 		x25, zero, x6
    2c58:	00606cb3          	or	s9,zero,t1
	or 		x26, zero, x6
    2c5c:	00606d33          	or	s10,zero,t1
	or 		x27, zero, x6
    2c60:	00606db3          	or	s11,zero,t1
	or 		x28, zero, x6
    2c64:	00606e33          	or	t3,zero,t1
	or 		x29, zero, x6
    2c68:	00606eb3          	or	t4,zero,t1
	or 		x30, zero, x6
    2c6c:	00606f33          	or	t5,zero,t1
	or 		x31, zero, x6
    2c70:	00606fb3          	or	t6,zero,t1
	sw		x16, (x1)
    2c74:	0100a023          	sw	a6,0(ra)
	sw		x17, (x1)
    2c78:	0110a023          	sw	a7,0(ra)
	sw		x18, (x1)
    2c7c:	0120a023          	sw	s2,0(ra)
	sw		x19, (x1)
    2c80:	0130a023          	sw	s3,0(ra)
	sw		x20, (x1)
    2c84:	0140a023          	sw	s4,0(ra)
	sw		x21, (x1)
    2c88:	0150a023          	sw	s5,0(ra)
	sw		x22, (x1)
    2c8c:	0160a023          	sw	s6,0(ra)
	sw		x23, (x1)
    2c90:	0170a023          	sw	s7,0(ra)
	sw		x24, (x1)
    2c94:	0180a023          	sw	s8,0(ra)
	sw		x25, (x1)
    2c98:	0190a023          	sw	s9,0(ra)
	sw		x26, (x1)
    2c9c:	01a0a023          	sw	s10,0(ra)
	sw		x27, (x1)
    2ca0:	01b0a023          	sw	s11,0(ra)
	sw		x28, (x1)
    2ca4:	01c0a023          	sw	t3,0(ra)
	sw		x29, (x1)
    2ca8:	01d0a023          	sw	t4,0(ra)
	sw		x30, (x1)
    2cac:	01e0a023          	sw	t5,0(ra)
	sw		x31, (x1)
    2cb0:	01f0a023          	sw	t6,0(ra)
	xori		x16, x16, -1
    2cb4:	fff84813          	not	a6,a6
	xori		x17, x17, -1
    2cb8:	fff8c893          	not	a7,a7
	xori		x18, x18, -1
    2cbc:	fff94913          	not	s2,s2
	xori		x19, x19, -1
    2cc0:	fff9c993          	not	s3,s3
	xori		x20, x20, -1
    2cc4:	fffa4a13          	not	s4,s4
	xori		x21, x21, -1
    2cc8:	fffaca93          	not	s5,s5
	xori		x22, x22, -1
    2ccc:	fffb4b13          	not	s6,s6
	xori		x23, x23, -1
    2cd0:	fffbcb93          	not	s7,s7
	xori		x24, x24, -1
    2cd4:	fffc4c13          	not	s8,s8
	xori		x25, x25, -1
    2cd8:	fffccc93          	not	s9,s9
	xori		x26, x26, -1
    2cdc:	fffd4d13          	not	s10,s10
	xori		x27, x27, -1
    2ce0:	fffdcd93          	not	s11,s11
	xori		x28, x28, -1
    2ce4:	fffe4e13          	not	t3,t3
	xori		x29, x29, -1
    2ce8:	fffece93          	not	t4,t4
	xori		x30, x30, -1
    2cec:	ffff4f13          	not	t5,t5
	sw		x16, (x1)
    2cf0:	0100a023          	sw	a6,0(ra)
	sw		x17, (x1)
    2cf4:	0110a023          	sw	a7,0(ra)
	sw		x18, (x1)
    2cf8:	0120a023          	sw	s2,0(ra)
	sw		x19, (x1)
    2cfc:	0130a023          	sw	s3,0(ra)
	sw		x20, (x1)
    2d00:	0140a023          	sw	s4,0(ra)
	sw		x21, (x1)
    2d04:	0150a023          	sw	s5,0(ra)
	sw		x22, (x1)
    2d08:	0160a023          	sw	s6,0(ra)
	sw		x23, (x1)
    2d0c:	0170a023          	sw	s7,0(ra)
	sw		x24, (x1)
    2d10:	0180a023          	sw	s8,0(ra)
	sw		x25, (x1)
    2d14:	0190a023          	sw	s9,0(ra)
	sw		x26, (x1)
    2d18:	01a0a023          	sw	s10,0(ra)
	sw		x27, (x1)
    2d1c:	01b0a023          	sw	s11,0(ra)
	sw		x28, (x1)
    2d20:	01c0a023          	sw	t3,0(ra)
	sw		x29, (x1)
    2d24:	01d0a023          	sw	t4,0(ra)
	sw		x30, (x1)
    2d28:	01e0a023          	sw	t5,0(ra)
	sw		x31, (x1)
    2d2c:	01f0a023          	sw	t6,0(ra)
	xor		x3, x3, x30	
	xor		x3, x3, x31	
*/
	// here I used tX registers, you should do it for all x1-x31
	
	la		x2, test_result
    2d30:	001fd117          	auipc	sp,0x1fd
    2d34:	31410113          	addi	sp,sp,788 # 200044 <test_result>
	sw		x3, (x2)
    2d38:	00312023          	sw	gp,0(sp)
	la		t0, return_address
    2d3c:	001fd297          	auipc	t0,0x1fd
    2d40:	30c28293          	addi	t0,t0,780 # 200048 <return_address>
	lw		x1, (t0)
    2d44:	0002a083          	lw	ra,0(t0)
	ret
    2d48:	8082                	ret

00002d4a <atexit>:
    2d4a:	85aa                	mv	a1,a0
    2d4c:	4681                	li	a3,0
    2d4e:	4601                	li	a2,0
    2d50:	4501                	li	a0,0
    2d52:	ac55                	j	3006 <__register_exitproc>

00002d54 <exit>:
    2d54:	1141                	addi	sp,sp,-16
    2d56:	4581                	li	a1,0
    2d58:	c422                	sw	s0,8(sp)
    2d5a:	c606                	sw	ra,12(sp)
    2d5c:	842a                	mv	s0,a0
    2d5e:	2621                	jal	3066 <__call_exitprocs>
    2d60:	0341a503          	lw	a0,52(gp) # 200884 <_global_impure_ptr>
    2d64:	5d5c                	lw	a5,60(a0)
    2d66:	c391                	beqz	a5,2d6a <exit+0x16>
    2d68:	9782                	jalr	a5
    2d6a:	8522                	mv	a0,s0
    2d6c:	c6efd0ef          	jal	ra,1da <_exit>

00002d70 <__libc_fini_array>:
    2d70:	1101                	addi	sp,sp,-32
    2d72:	6795                	lui	a5,0x5
    2d74:	6715                	lui	a4,0x5
    2d76:	cc22                	sw	s0,24(sp)
    2d78:	90470713          	addi	a4,a4,-1788 # 4904 <__fini_array_end>
    2d7c:	90478413          	addi	s0,a5,-1788 # 4904 <__fini_array_end>
    2d80:	8c19                	sub	s0,s0,a4
    2d82:	ca26                	sw	s1,20(sp)
    2d84:	c84a                	sw	s2,16(sp)
    2d86:	c64e                	sw	s3,12(sp)
    2d88:	ce06                	sw	ra,28(sp)
    2d8a:	8409                	srai	s0,s0,0x2
    2d8c:	4481                	li	s1,0
    2d8e:	90478913          	addi	s2,a5,-1788
    2d92:	59f1                	li	s3,-4
    2d94:	00941a63          	bne	s0,s1,2da8 <__libc_fini_array+0x38>
    2d98:	4462                	lw	s0,24(sp)
    2d9a:	40f2                	lw	ra,28(sp)
    2d9c:	44d2                	lw	s1,20(sp)
    2d9e:	4942                	lw	s2,16(sp)
    2da0:	49b2                	lw	s3,12(sp)
    2da2:	6105                	addi	sp,sp,32
    2da4:	b6cfd06f          	j	110 <_fini>
    2da8:	033487b3          	mul	a5,s1,s3
    2dac:	0485                	addi	s1,s1,1
    2dae:	97ca                	add	a5,a5,s2
    2db0:	ffc7a783          	lw	a5,-4(a5)
    2db4:	9782                	jalr	a5
    2db6:	bff9                	j	2d94 <__libc_fini_array+0x24>

00002db8 <__libc_init_array>:
    2db8:	1141                	addi	sp,sp,-16
    2dba:	c422                	sw	s0,8(sp)
    2dbc:	c226                	sw	s1,4(sp)
    2dbe:	6415                	lui	s0,0x5
    2dc0:	6495                	lui	s1,0x5
    2dc2:	90448793          	addi	a5,s1,-1788 # 4904 <__fini_array_end>
    2dc6:	90440413          	addi	s0,s0,-1788 # 4904 <__fini_array_end>
    2dca:	8c1d                	sub	s0,s0,a5
    2dcc:	c04a                	sw	s2,0(sp)
    2dce:	c606                	sw	ra,12(sp)
    2dd0:	8409                	srai	s0,s0,0x2
    2dd2:	90448493          	addi	s1,s1,-1788
    2dd6:	4901                	li	s2,0
    2dd8:	02891763          	bne	s2,s0,2e06 <__libc_init_array+0x4e>
    2ddc:	6495                	lui	s1,0x5
    2dde:	b32fd0ef          	jal	ra,110 <_fini>
    2de2:	6415                	lui	s0,0x5
    2de4:	90448793          	addi	a5,s1,-1788 # 4904 <__fini_array_end>
    2de8:	90440413          	addi	s0,s0,-1788 # 4904 <__fini_array_end>
    2dec:	8c1d                	sub	s0,s0,a5
    2dee:	8409                	srai	s0,s0,0x2
    2df0:	90448493          	addi	s1,s1,-1788
    2df4:	4901                	li	s2,0
    2df6:	00891d63          	bne	s2,s0,2e10 <__libc_init_array+0x58>
    2dfa:	40b2                	lw	ra,12(sp)
    2dfc:	4422                	lw	s0,8(sp)
    2dfe:	4492                	lw	s1,4(sp)
    2e00:	4902                	lw	s2,0(sp)
    2e02:	0141                	addi	sp,sp,16
    2e04:	8082                	ret
    2e06:	409c                	lw	a5,0(s1)
    2e08:	0905                	addi	s2,s2,1
    2e0a:	0491                	addi	s1,s1,4
    2e0c:	9782                	jalr	a5
    2e0e:	b7e9                	j	2dd8 <__libc_init_array+0x20>
    2e10:	409c                	lw	a5,0(s1)
    2e12:	0905                	addi	s2,s2,1
    2e14:	0491                	addi	s1,s1,4
    2e16:	9782                	jalr	a5
    2e18:	bff9                	j	2df6 <__libc_init_array+0x3e>

00002e1a <memset>:
    2e1a:	483d                	li	a6,15
    2e1c:	872a                	mv	a4,a0
    2e1e:	02c87363          	bleu	a2,a6,2e44 <memset+0x2a>
    2e22:	00f77793          	andi	a5,a4,15
    2e26:	efbd                	bnez	a5,2ea4 <memset+0x8a>
    2e28:	e5ad                	bnez	a1,2e92 <memset+0x78>
    2e2a:	ff067693          	andi	a3,a2,-16
    2e2e:	8a3d                	andi	a2,a2,15
    2e30:	96ba                	add	a3,a3,a4
    2e32:	c30c                	sw	a1,0(a4)
    2e34:	c34c                	sw	a1,4(a4)
    2e36:	c70c                	sw	a1,8(a4)
    2e38:	c74c                	sw	a1,12(a4)
    2e3a:	0741                	addi	a4,a4,16
    2e3c:	fed76be3          	bltu	a4,a3,2e32 <memset+0x18>
    2e40:	e211                	bnez	a2,2e44 <memset+0x2a>
    2e42:	8082                	ret
    2e44:	40c806b3          	sub	a3,a6,a2
    2e48:	068a                	slli	a3,a3,0x2
    2e4a:	00000297          	auipc	t0,0x0
    2e4e:	9696                	add	a3,a3,t0
    2e50:	00a68067          	jr	10(a3) # 1000000a <_sp+0xfdfef3a>
    2e54:	00b70723          	sb	a1,14(a4)
    2e58:	00b706a3          	sb	a1,13(a4)
    2e5c:	00b70623          	sb	a1,12(a4)
    2e60:	00b705a3          	sb	a1,11(a4)
    2e64:	00b70523          	sb	a1,10(a4)
    2e68:	00b704a3          	sb	a1,9(a4)
    2e6c:	00b70423          	sb	a1,8(a4)
    2e70:	00b703a3          	sb	a1,7(a4)
    2e74:	00b70323          	sb	a1,6(a4)
    2e78:	00b702a3          	sb	a1,5(a4)
    2e7c:	00b70223          	sb	a1,4(a4)
    2e80:	00b701a3          	sb	a1,3(a4)
    2e84:	00b70123          	sb	a1,2(a4)
    2e88:	00b700a3          	sb	a1,1(a4)
    2e8c:	00b70023          	sb	a1,0(a4)
    2e90:	8082                	ret
    2e92:	0ff5f593          	andi	a1,a1,255
    2e96:	00859693          	slli	a3,a1,0x8
    2e9a:	8dd5                	or	a1,a1,a3
    2e9c:	01059693          	slli	a3,a1,0x10
    2ea0:	8dd5                	or	a1,a1,a3
    2ea2:	b761                	j	2e2a <memset+0x10>
    2ea4:	00279693          	slli	a3,a5,0x2
    2ea8:	00000297          	auipc	t0,0x0
    2eac:	9696                	add	a3,a3,t0
    2eae:	8286                	mv	t0,ra
    2eb0:	fa8680e7          	jalr	-88(a3)
    2eb4:	8096                	mv	ra,t0
    2eb6:	17c1                	addi	a5,a5,-16
    2eb8:	8f1d                	sub	a4,a4,a5
    2eba:	963e                	add	a2,a2,a5
    2ebc:	f8c874e3          	bleu	a2,a6,2e44 <memset+0x2a>
    2ec0:	b7a5                	j	2e28 <memset+0xe>

00002ec2 <_puts_r>:
    2ec2:	7139                	addi	sp,sp,-64
    2ec4:	dc22                	sw	s0,56(sp)
    2ec6:	842a                	mv	s0,a0
    2ec8:	852e                	mv	a0,a1
    2eca:	c62e                	sw	a1,12(sp)
    2ecc:	de06                	sw	ra,60(sp)
    2ece:	221d                	jal	2ff4 <strlen>
    2ed0:	000057b7          	lui	a5,0x5
    2ed4:	90078793          	addi	a5,a5,-1792 # 4900 <no_exception_handler_msg+0x20>
    2ed8:	d43e                	sw	a5,40(sp)
    2eda:	4785                	li	a5,1
    2edc:	d63e                	sw	a5,44(sp)
    2ede:	101c                	addi	a5,sp,32
    2ee0:	45b2                	lw	a1,12(sp)
    2ee2:	ca3e                	sw	a5,20(sp)
    2ee4:	4789                	li	a5,2
    2ee6:	cc3e                	sw	a5,24(sp)
    2ee8:	5c1c                	lw	a5,56(s0)
    2eea:	d22a                	sw	a0,36(sp)
    2eec:	0505                	addi	a0,a0,1
    2eee:	d02e                	sw	a1,32(sp)
    2ef0:	ce2a                	sw	a0,28(sp)
    2ef2:	440c                	lw	a1,8(s0)
    2ef4:	e789                	bnez	a5,2efe <_puts_r+0x3c>
    2ef6:	8522                	mv	a0,s0
    2ef8:	c62e                	sw	a1,12(sp)
    2efa:	2cf9                	jal	31d8 <__sinit>
    2efc:	45b2                	lw	a1,12(sp)
    2efe:	00c59783          	lh	a5,12(a1)
    2f02:	01279713          	slli	a4,a5,0x12
    2f06:	00074b63          	bltz	a4,2f1c <_puts_r+0x5a>
    2f0a:	6689                	lui	a3,0x2
    2f0c:	51f8                	lw	a4,100(a1)
    2f0e:	8fd5                	or	a5,a5,a3
    2f10:	00f59623          	sh	a5,12(a1)
    2f14:	77f9                	lui	a5,0xffffe
    2f16:	17fd                	addi	a5,a5,-1
    2f18:	8ff9                	and	a5,a5,a4
    2f1a:	d1fc                	sw	a5,100(a1)
    2f1c:	0850                	addi	a2,sp,20
    2f1e:	8522                	mv	a0,s0
    2f20:	2d21                	jal	3538 <__sfvwrite_r>
    2f22:	57fd                	li	a5,-1
    2f24:	e111                	bnez	a0,2f28 <_puts_r+0x66>
    2f26:	47a9                	li	a5,10
    2f28:	50f2                	lw	ra,60(sp)
    2f2a:	5462                	lw	s0,56(sp)
    2f2c:	853e                	mv	a0,a5
    2f2e:	6121                	addi	sp,sp,64
    2f30:	8082                	ret

00002f32 <puts>:
    2f32:	85aa                	mv	a1,a0
    2f34:	0381a503          	lw	a0,56(gp) # 200888 <_impure_ptr>
    2f38:	b769                	j	2ec2 <_puts_r>

00002f3a <cleanup_glue>:
    2f3a:	1141                	addi	sp,sp,-16
    2f3c:	c422                	sw	s0,8(sp)
    2f3e:	842e                	mv	s0,a1
    2f40:	418c                	lw	a1,0(a1)
    2f42:	c226                	sw	s1,4(sp)
    2f44:	c606                	sw	ra,12(sp)
    2f46:	84aa                	mv	s1,a0
    2f48:	c191                	beqz	a1,2f4c <cleanup_glue+0x12>
    2f4a:	3fc5                	jal	2f3a <cleanup_glue>
    2f4c:	85a2                	mv	a1,s0
    2f4e:	4422                	lw	s0,8(sp)
    2f50:	40b2                	lw	ra,12(sp)
    2f52:	8526                	mv	a0,s1
    2f54:	4492                	lw	s1,4(sp)
    2f56:	0141                	addi	sp,sp,16
    2f58:	a189                	j	339a <_free_r>

00002f5a <_reclaim_reent>:
    2f5a:	0381a783          	lw	a5,56(gp) # 200888 <_impure_ptr>
    2f5e:	08a78a63          	beq	a5,a0,2ff2 <_reclaim_reent+0x98>
    2f62:	457c                	lw	a5,76(a0)
    2f64:	1101                	addi	sp,sp,-32
    2f66:	cc22                	sw	s0,24(sp)
    2f68:	ca26                	sw	s1,20(sp)
    2f6a:	c84a                	sw	s2,16(sp)
    2f6c:	ce06                	sw	ra,28(sp)
    2f6e:	c64e                	sw	s3,12(sp)
    2f70:	842a                	mv	s0,a0
    2f72:	4481                	li	s1,0
    2f74:	08000913          	li	s2,128
    2f78:	e795                	bnez	a5,2fa4 <_reclaim_reent+0x4a>
    2f7a:	402c                	lw	a1,64(s0)
    2f7c:	c199                	beqz	a1,2f82 <_reclaim_reent+0x28>
    2f7e:	8522                	mv	a0,s0
    2f80:	2929                	jal	339a <_free_r>
    2f82:	14842583          	lw	a1,328(s0)
    2f86:	c99d                	beqz	a1,2fbc <_reclaim_reent+0x62>
    2f88:	14c40493          	addi	s1,s0,332
    2f8c:	02958863          	beq	a1,s1,2fbc <_reclaim_reent+0x62>
    2f90:	0005a903          	lw	s2,0(a1)
    2f94:	8522                	mv	a0,s0
    2f96:	2111                	jal	339a <_free_r>
    2f98:	85ca                	mv	a1,s2
    2f9a:	bfcd                	j	2f8c <_reclaim_reent+0x32>
    2f9c:	95a6                	add	a1,a1,s1
    2f9e:	418c                	lw	a1,0(a1)
    2fa0:	e981                	bnez	a1,2fb0 <_reclaim_reent+0x56>
    2fa2:	0491                	addi	s1,s1,4
    2fa4:	446c                	lw	a1,76(s0)
    2fa6:	ff249be3          	bne	s1,s2,2f9c <_reclaim_reent+0x42>
    2faa:	8522                	mv	a0,s0
    2fac:	26fd                	jal	339a <_free_r>
    2fae:	b7f1                	j	2f7a <_reclaim_reent+0x20>
    2fb0:	0005a983          	lw	s3,0(a1)
    2fb4:	8522                	mv	a0,s0
    2fb6:	26d5                	jal	339a <_free_r>
    2fb8:	85ce                	mv	a1,s3
    2fba:	b7dd                	j	2fa0 <_reclaim_reent+0x46>
    2fbc:	486c                	lw	a1,84(s0)
    2fbe:	c199                	beqz	a1,2fc4 <_reclaim_reent+0x6a>
    2fc0:	8522                	mv	a0,s0
    2fc2:	2ee1                	jal	339a <_free_r>
    2fc4:	5c1c                	lw	a5,56(s0)
    2fc6:	cf99                	beqz	a5,2fe4 <_reclaim_reent+0x8a>
    2fc8:	5c5c                	lw	a5,60(s0)
    2fca:	8522                	mv	a0,s0
    2fcc:	9782                	jalr	a5
    2fce:	2e042583          	lw	a1,736(s0)
    2fd2:	c989                	beqz	a1,2fe4 <_reclaim_reent+0x8a>
    2fd4:	8522                	mv	a0,s0
    2fd6:	4462                	lw	s0,24(sp)
    2fd8:	40f2                	lw	ra,28(sp)
    2fda:	44d2                	lw	s1,20(sp)
    2fdc:	4942                	lw	s2,16(sp)
    2fde:	49b2                	lw	s3,12(sp)
    2fe0:	6105                	addi	sp,sp,32
    2fe2:	bfa1                	j	2f3a <cleanup_glue>
    2fe4:	40f2                	lw	ra,28(sp)
    2fe6:	4462                	lw	s0,24(sp)
    2fe8:	44d2                	lw	s1,20(sp)
    2fea:	4942                	lw	s2,16(sp)
    2fec:	49b2                	lw	s3,12(sp)
    2fee:	6105                	addi	sp,sp,32
    2ff0:	8082                	ret
    2ff2:	8082                	ret

00002ff4 <strlen>:
    2ff4:	87aa                	mv	a5,a0
    2ff6:	0785                	addi	a5,a5,1
    2ff8:	fff7c703          	lbu	a4,-1(a5) # ffffdfff <pulp__FC+0xffffe000>
    2ffc:	ff6d                	bnez	a4,2ff6 <strlen+0x2>
    2ffe:	40a78533          	sub	a0,a5,a0
    3002:	157d                	addi	a0,a0,-1
    3004:	8082                	ret

00003006 <__register_exitproc>:
    3006:	0341a703          	lw	a4,52(gp) # 200884 <_global_impure_ptr>
    300a:	832a                	mv	t1,a0
    300c:	14872783          	lw	a5,328(a4)
    3010:	e789                	bnez	a5,301a <__register_exitproc+0x14>
    3012:	14c70793          	addi	a5,a4,332
    3016:	14f72423          	sw	a5,328(a4)
    301a:	43d8                	lw	a4,4(a5)
    301c:	487d                	li	a6,31
    301e:	557d                	li	a0,-1
    3020:	04e84263          	blt	a6,a4,3064 <__register_exitproc+0x5e>
    3024:	00271893          	slli	a7,a4,0x2
    3028:	02030963          	beqz	t1,305a <__register_exitproc+0x54>
    302c:	01178533          	add	a0,a5,a7
    3030:	08c52423          	sw	a2,136(a0)
    3034:	1887a803          	lw	a6,392(a5)
    3038:	4605                	li	a2,1
    303a:	00e61633          	sll	a2,a2,a4
    303e:	00c86833          	or	a6,a6,a2
    3042:	1907a423          	sw	a6,392(a5)
    3046:	10d52423          	sw	a3,264(a0)
    304a:	4689                	li	a3,2
    304c:	00d31763          	bne	t1,a3,305a <__register_exitproc+0x54>
    3050:	18c7a683          	lw	a3,396(a5)
    3054:	8e55                	or	a2,a2,a3
    3056:	18c7a623          	sw	a2,396(a5)
    305a:	0705                	addi	a4,a4,1
    305c:	c3d8                	sw	a4,4(a5)
    305e:	97c6                	add	a5,a5,a7
    3060:	c78c                	sw	a1,8(a5)
    3062:	4501                	li	a0,0
    3064:	8082                	ret

00003066 <__call_exitprocs>:
    3066:	7179                	addi	sp,sp,-48
    3068:	ce4e                	sw	s3,28(sp)
    306a:	0341a983          	lw	s3,52(gp) # 200884 <_global_impure_ptr>
    306e:	cc52                	sw	s4,24(sp)
    3070:	ca56                	sw	s5,20(sp)
    3072:	c85a                	sw	s6,16(sp)
    3074:	d606                	sw	ra,44(sp)
    3076:	d422                	sw	s0,40(sp)
    3078:	d226                	sw	s1,36(sp)
    307a:	d04a                	sw	s2,32(sp)
    307c:	c65e                	sw	s7,12(sp)
    307e:	8aaa                	mv	s5,a0
    3080:	8a2e                	mv	s4,a1
    3082:	4b05                	li	s6,1
    3084:	1489a483          	lw	s1,328(s3)
    3088:	c881                	beqz	s1,3098 <__call_exitprocs+0x32>
    308a:	40c0                	lw	s0,4(s1)
    308c:	fff40913          	addi	s2,s0,-1
    3090:	040a                	slli	s0,s0,0x2
    3092:	9426                	add	s0,s0,s1
    3094:	00095d63          	bgez	s2,30ae <__call_exitprocs+0x48>
    3098:	50b2                	lw	ra,44(sp)
    309a:	5422                	lw	s0,40(sp)
    309c:	5492                	lw	s1,36(sp)
    309e:	5902                	lw	s2,32(sp)
    30a0:	49f2                	lw	s3,28(sp)
    30a2:	4a62                	lw	s4,24(sp)
    30a4:	4ad2                	lw	s5,20(sp)
    30a6:	4b42                	lw	s6,16(sp)
    30a8:	4bb2                	lw	s7,12(sp)
    30aa:	6145                	addi	sp,sp,48
    30ac:	8082                	ret
    30ae:	000a0963          	beqz	s4,30c0 <__call_exitprocs+0x5a>
    30b2:	10442783          	lw	a5,260(s0)
    30b6:	01478563          	beq	a5,s4,30c0 <__call_exitprocs+0x5a>
    30ba:	197d                	addi	s2,s2,-1
    30bc:	1471                	addi	s0,s0,-4
    30be:	bfd9                	j	3094 <__call_exitprocs+0x2e>
    30c0:	40d8                	lw	a4,4(s1)
    30c2:	405c                	lw	a5,4(s0)
    30c4:	177d                	addi	a4,a4,-1
    30c6:	03271663          	bne	a4,s2,30f2 <__call_exitprocs+0x8c>
    30ca:	0124a223          	sw	s2,4(s1)
    30ce:	d7f5                	beqz	a5,30ba <__call_exitprocs+0x54>
    30d0:	1884a683          	lw	a3,392(s1)
    30d4:	012b1733          	sll	a4,s6,s2
    30d8:	0044ab83          	lw	s7,4(s1)
    30dc:	8ef9                	and	a3,a3,a4
    30de:	ee89                	bnez	a3,30f8 <__call_exitprocs+0x92>
    30e0:	9782                	jalr	a5
    30e2:	40d8                	lw	a4,4(s1)
    30e4:	1489a783          	lw	a5,328(s3)
    30e8:	f9771ee3          	bne	a4,s7,3084 <__call_exitprocs+0x1e>
    30ec:	fcf487e3          	beq	s1,a5,30ba <__call_exitprocs+0x54>
    30f0:	bf51                	j	3084 <__call_exitprocs+0x1e>
    30f2:	00042223          	sw	zero,4(s0)
    30f6:	bfe1                	j	30ce <__call_exitprocs+0x68>
    30f8:	18c4a683          	lw	a3,396(s1)
    30fc:	08442583          	lw	a1,132(s0)
    3100:	8f75                	and	a4,a4,a3
    3102:	e701                	bnez	a4,310a <__call_exitprocs+0xa4>
    3104:	8556                	mv	a0,s5
    3106:	9782                	jalr	a5
    3108:	bfe9                	j	30e2 <__call_exitprocs+0x7c>
    310a:	852e                	mv	a0,a1
    310c:	9782                	jalr	a5
    310e:	bfd1                	j	30e2 <__call_exitprocs+0x7c>

00003110 <__fp_lock>:
    3110:	4501                	li	a0,0
    3112:	8082                	ret

00003114 <_cleanup_r>:
    3114:	000045b7          	lui	a1,0x4
    3118:	43058593          	addi	a1,a1,1072 # 4430 <_fclose_r>
    311c:	7560006f          	j	3872 <_fwalk_reent>

00003120 <std.isra.0>:
    3120:	1141                	addi	sp,sp,-16
    3122:	c422                	sw	s0,8(sp)
    3124:	c606                	sw	ra,12(sp)
    3126:	842a                	mv	s0,a0
    3128:	00b51623          	sh	a1,12(a0)
    312c:	00c51723          	sh	a2,14(a0)
    3130:	00052023          	sw	zero,0(a0)
    3134:	00052223          	sw	zero,4(a0)
    3138:	00052423          	sw	zero,8(a0)
    313c:	06052223          	sw	zero,100(a0)
    3140:	00052823          	sw	zero,16(a0)
    3144:	00052a23          	sw	zero,20(a0)
    3148:	00052c23          	sw	zero,24(a0)
    314c:	4621                	li	a2,8
    314e:	4581                	li	a1,0
    3150:	05c50513          	addi	a0,a0,92
    3154:	31d9                	jal	2e1a <memset>
    3156:	000047b7          	lui	a5,0x4
    315a:	23e78793          	addi	a5,a5,574 # 423e <__sread>
    315e:	d01c                	sw	a5,32(s0)
    3160:	000047b7          	lui	a5,0x4
    3164:	27278793          	addi	a5,a5,626 # 4272 <__swrite>
    3168:	d05c                	sw	a5,36(s0)
    316a:	000047b7          	lui	a5,0x4
    316e:	2c078793          	addi	a5,a5,704 # 42c0 <__sseek>
    3172:	d41c                	sw	a5,40(s0)
    3174:	000047b7          	lui	a5,0x4
    3178:	2f678793          	addi	a5,a5,758 # 42f6 <__sclose>
    317c:	cc40                	sw	s0,28(s0)
    317e:	d45c                	sw	a5,44(s0)
    3180:	40b2                	lw	ra,12(sp)
    3182:	4422                	lw	s0,8(sp)
    3184:	0141                	addi	sp,sp,16
    3186:	8082                	ret

00003188 <__fp_unlock>:
    3188:	4501                	li	a0,0
    318a:	8082                	ret

0000318c <__sfmoreglue>:
    318c:	1141                	addi	sp,sp,-16
    318e:	c226                	sw	s1,4(sp)
    3190:	06800613          	li	a2,104
    3194:	fff58493          	addi	s1,a1,-1
    3198:	02c484b3          	mul	s1,s1,a2
    319c:	c04a                	sw	s2,0(sp)
    319e:	892e                	mv	s2,a1
    31a0:	c422                	sw	s0,8(sp)
    31a2:	c606                	sw	ra,12(sp)
    31a4:	07448593          	addi	a1,s1,116
    31a8:	736000ef          	jal	ra,38de <_malloc_r>
    31ac:	842a                	mv	s0,a0
    31ae:	c919                	beqz	a0,31c4 <__sfmoreglue+0x38>
    31b0:	00052023          	sw	zero,0(a0)
    31b4:	01252223          	sw	s2,4(a0)
    31b8:	0531                	addi	a0,a0,12
    31ba:	c408                	sw	a0,8(s0)
    31bc:	06848613          	addi	a2,s1,104
    31c0:	4581                	li	a1,0
    31c2:	39a1                	jal	2e1a <memset>
    31c4:	8522                	mv	a0,s0
    31c6:	40b2                	lw	ra,12(sp)
    31c8:	4422                	lw	s0,8(sp)
    31ca:	4492                	lw	s1,4(sp)
    31cc:	4902                	lw	s2,0(sp)
    31ce:	0141                	addi	sp,sp,16
    31d0:	8082                	ret

000031d2 <_cleanup>:
    31d2:	0341a503          	lw	a0,52(gp) # 200884 <_global_impure_ptr>
    31d6:	bf3d                	j	3114 <_cleanup_r>

000031d8 <__sinit>:
    31d8:	5d1c                	lw	a5,56(a0)
    31da:	e7a9                	bnez	a5,3224 <__sinit+0x4c>
    31dc:	1141                	addi	sp,sp,-16
    31de:	000037b7          	lui	a5,0x3
    31e2:	c606                	sw	ra,12(sp)
    31e4:	c422                	sw	s0,8(sp)
    31e6:	11478793          	addi	a5,a5,276 # 3114 <_cleanup_r>
    31ea:	dd5c                	sw	a5,60(a0)
    31ec:	478d                	li	a5,3
    31ee:	2ef52223          	sw	a5,740(a0)
    31f2:	2ec50793          	addi	a5,a0,748
    31f6:	842a                	mv	s0,a0
    31f8:	2ef52423          	sw	a5,744(a0)
    31fc:	2e052023          	sw	zero,736(a0)
    3200:	4148                	lw	a0,4(a0)
    3202:	4601                	li	a2,0
    3204:	4591                	li	a1,4
    3206:	3f29                	jal	3120 <std.isra.0>
    3208:	4408                	lw	a0,8(s0)
    320a:	4605                	li	a2,1
    320c:	45a5                	li	a1,9
    320e:	3f09                	jal	3120 <std.isra.0>
    3210:	4448                	lw	a0,12(s0)
    3212:	4609                	li	a2,2
    3214:	45c9                	li	a1,18
    3216:	3729                	jal	3120 <std.isra.0>
    3218:	4785                	li	a5,1
    321a:	dc1c                	sw	a5,56(s0)
    321c:	40b2                	lw	ra,12(sp)
    321e:	4422                	lw	s0,8(sp)
    3220:	0141                	addi	sp,sp,16
    3222:	8082                	ret
    3224:	8082                	ret

00003226 <__sfp>:
    3226:	1141                	addi	sp,sp,-16
    3228:	c226                	sw	s1,4(sp)
    322a:	0341a483          	lw	s1,52(gp) # 200884 <_global_impure_ptr>
    322e:	c04a                	sw	s2,0(sp)
    3230:	c606                	sw	ra,12(sp)
    3232:	5c9c                	lw	a5,56(s1)
    3234:	c422                	sw	s0,8(sp)
    3236:	892a                	mv	s2,a0
    3238:	e399                	bnez	a5,323e <__sfp+0x18>
    323a:	8526                	mv	a0,s1
    323c:	3f71                	jal	31d8 <__sinit>
    323e:	2e048493          	addi	s1,s1,736
    3242:	4480                	lw	s0,8(s1)
    3244:	40dc                	lw	a5,4(s1)
    3246:	17fd                	addi	a5,a5,-1
    3248:	0007d663          	bgez	a5,3254 <__sfp+0x2e>
    324c:	409c                	lw	a5,0(s1)
    324e:	cb89                	beqz	a5,3260 <__sfp+0x3a>
    3250:	4084                	lw	s1,0(s1)
    3252:	bfc5                	j	3242 <__sfp+0x1c>
    3254:	00c41703          	lh	a4,12(s0)
    3258:	c705                	beqz	a4,3280 <__sfp+0x5a>
    325a:	06840413          	addi	s0,s0,104
    325e:	b7e5                	j	3246 <__sfp+0x20>
    3260:	4591                	li	a1,4
    3262:	854a                	mv	a0,s2
    3264:	3725                	jal	318c <__sfmoreglue>
    3266:	c088                	sw	a0,0(s1)
    3268:	f565                	bnez	a0,3250 <__sfp+0x2a>
    326a:	47b1                	li	a5,12
    326c:	00f92023          	sw	a5,0(s2)
    3270:	4401                	li	s0,0
    3272:	8522                	mv	a0,s0
    3274:	40b2                	lw	ra,12(sp)
    3276:	4422                	lw	s0,8(sp)
    3278:	4492                	lw	s1,4(sp)
    327a:	4902                	lw	s2,0(sp)
    327c:	0141                	addi	sp,sp,16
    327e:	8082                	ret
    3280:	77c1                	lui	a5,0xffff0
    3282:	0785                	addi	a5,a5,1
    3284:	06042223          	sw	zero,100(s0)
    3288:	00042023          	sw	zero,0(s0)
    328c:	00042223          	sw	zero,4(s0)
    3290:	00042423          	sw	zero,8(s0)
    3294:	c45c                	sw	a5,12(s0)
    3296:	00042823          	sw	zero,16(s0)
    329a:	00042a23          	sw	zero,20(s0)
    329e:	00042c23          	sw	zero,24(s0)
    32a2:	4621                	li	a2,8
    32a4:	4581                	li	a1,0
    32a6:	05c40513          	addi	a0,s0,92
    32aa:	3e85                	jal	2e1a <memset>
    32ac:	02042823          	sw	zero,48(s0)
    32b0:	02042a23          	sw	zero,52(s0)
    32b4:	04042223          	sw	zero,68(s0)
    32b8:	04042423          	sw	zero,72(s0)
    32bc:	bf5d                	j	3272 <__sfp+0x4c>

000032be <__sfp_lock_acquire>:
    32be:	8082                	ret

000032c0 <__sfp_lock_release>:
    32c0:	8082                	ret

000032c2 <__sinit_lock_acquire>:
    32c2:	8082                	ret

000032c4 <__sinit_lock_release>:
    32c4:	8082                	ret

000032c6 <__fp_lock_all>:
    32c6:	0381a503          	lw	a0,56(gp) # 200888 <_impure_ptr>
    32ca:	000035b7          	lui	a1,0x3
    32ce:	11058593          	addi	a1,a1,272 # 3110 <__fp_lock>
    32d2:	ab3d                	j	3810 <_fwalk>

000032d4 <__fp_unlock_all>:
    32d4:	0381a503          	lw	a0,56(gp) # 200888 <_impure_ptr>
    32d8:	000035b7          	lui	a1,0x3
    32dc:	18858593          	addi	a1,a1,392 # 3188 <__fp_unlock>
    32e0:	ab05                	j	3810 <_fwalk>

000032e2 <_malloc_trim_r>:
    32e2:	7179                	addi	sp,sp,-48
    32e4:	d04a                	sw	s2,32(sp)
    32e6:	d422                	sw	s0,40(sp)
    32e8:	d226                	sw	s1,36(sp)
    32ea:	ce4e                	sw	s3,28(sp)
    32ec:	c62e                	sw	a1,12(sp)
    32ee:	d606                	sw	ra,44(sp)
    32f0:	89aa                	mv	s3,a0
    32f2:	c2818913          	addi	s2,gp,-984 # 200478 <__malloc_av_>
    32f6:	38b000ef          	jal	ra,3e80 <__malloc_lock>
    32fa:	00892783          	lw	a5,8(s2)
    32fe:	45b2                	lw	a1,12(sp)
    3300:	43c4                	lw	s1,4(a5)
    3302:	6785                	lui	a5,0x1
    3304:	fef78413          	addi	s0,a5,-17 # fef <_sbst_alu+0xb9f>
    3308:	98f1                	andi	s1,s1,-4
    330a:	8c0d                	sub	s0,s0,a1
    330c:	9426                	add	s0,s0,s1
    330e:	8031                	srli	s0,s0,0xc
    3310:	147d                	addi	s0,s0,-1
    3312:	0432                	slli	s0,s0,0xc
    3314:	00f45d63          	ble	a5,s0,332e <_malloc_trim_r+0x4c>
    3318:	854e                	mv	a0,s3
    331a:	369000ef          	jal	ra,3e82 <__malloc_unlock>
    331e:	4501                	li	a0,0
    3320:	50b2                	lw	ra,44(sp)
    3322:	5422                	lw	s0,40(sp)
    3324:	5492                	lw	s1,36(sp)
    3326:	5902                	lw	s2,32(sp)
    3328:	49f2                	lw	s3,28(sp)
    332a:	6145                	addi	sp,sp,48
    332c:	8082                	ret
    332e:	4581                	li	a1,0
    3330:	854e                	mv	a0,s3
    3332:	6e1000ef          	jal	ra,4212 <_sbrk_r>
    3336:	00892783          	lw	a5,8(s2)
    333a:	97a6                	add	a5,a5,s1
    333c:	fcf51ee3          	bne	a0,a5,3318 <_malloc_trim_r+0x36>
    3340:	408005b3          	neg	a1,s0
    3344:	854e                	mv	a0,s3
    3346:	6cd000ef          	jal	ra,4212 <_sbrk_r>
    334a:	57fd                	li	a5,-1
    334c:	02f51663          	bne	a0,a5,3378 <_malloc_trim_r+0x96>
    3350:	4581                	li	a1,0
    3352:	854e                	mv	a0,s3
    3354:	6bf000ef          	jal	ra,4212 <_sbrk_r>
    3358:	00892703          	lw	a4,8(s2)
    335c:	46bd                	li	a3,15
    335e:	40e507b3          	sub	a5,a0,a4
    3362:	faf6dbe3          	ble	a5,a3,3318 <_malloc_trim_r+0x36>
    3366:	03c1a683          	lw	a3,60(gp) # 20088c <__malloc_sbrk_base>
    336a:	0017e793          	ori	a5,a5,1
    336e:	c35c                	sw	a5,4(a4)
    3370:	8d15                	sub	a0,a0,a3
    3372:	04a1a823          	sw	a0,80(gp) # 2008a0 <__malloc_current_mallinfo>
    3376:	b74d                	j	3318 <_malloc_trim_r+0x36>
    3378:	00892783          	lw	a5,8(s2)
    337c:	8c81                	sub	s1,s1,s0
    337e:	0014e493          	ori	s1,s1,1
    3382:	c3c4                	sw	s1,4(a5)
    3384:	0501a783          	lw	a5,80(gp) # 2008a0 <__malloc_current_mallinfo>
    3388:	854e                	mv	a0,s3
    338a:	40878433          	sub	s0,a5,s0
    338e:	0481a823          	sw	s0,80(gp) # 2008a0 <__malloc_current_mallinfo>
    3392:	2f1000ef          	jal	ra,3e82 <__malloc_unlock>
    3396:	4505                	li	a0,1
    3398:	b761                	j	3320 <_malloc_trim_r+0x3e>

0000339a <_free_r>:
    339a:	18058e63          	beqz	a1,3536 <_free_r+0x19c>
    339e:	1141                	addi	sp,sp,-16
    33a0:	c422                	sw	s0,8(sp)
    33a2:	c226                	sw	s1,4(sp)
    33a4:	842a                	mv	s0,a0
    33a6:	84ae                	mv	s1,a1
    33a8:	c606                	sw	ra,12(sp)
    33aa:	2d7000ef          	jal	ra,3e80 <__malloc_lock>
    33ae:	ffc4a503          	lw	a0,-4(s1)
    33b2:	ff848693          	addi	a3,s1,-8
    33b6:	ffe57793          	andi	a5,a0,-2
    33ba:	c2818813          	addi	a6,gp,-984 # 200478 <__malloc_av_>
    33be:	00f685b3          	add	a1,a3,a5
    33c2:	41d8                	lw	a4,4(a1)
    33c4:	00882803          	lw	a6,8(a6)
    33c8:	c2818613          	addi	a2,gp,-984 # 200478 <__malloc_av_>
    33cc:	9b71                	andi	a4,a4,-4
    33ce:	8905                	andi	a0,a0,1
    33d0:	02b81f63          	bne	a6,a1,340e <_free_r+0x74>
    33d4:	97ba                	add	a5,a5,a4
    33d6:	e909                	bnez	a0,33e8 <_free_r+0x4e>
    33d8:	ff84a703          	lw	a4,-8(s1)
    33dc:	8e99                	sub	a3,a3,a4
    33de:	468c                	lw	a1,8(a3)
    33e0:	97ba                	add	a5,a5,a4
    33e2:	46d8                	lw	a4,12(a3)
    33e4:	c5d8                	sw	a4,12(a1)
    33e6:	c70c                	sw	a1,8(a4)
    33e8:	0017e713          	ori	a4,a5,1
    33ec:	c2d8                	sw	a4,4(a3)
    33ee:	0401a703          	lw	a4,64(gp) # 200890 <__malloc_trim_threshold>
    33f2:	c614                	sw	a3,8(a2)
    33f4:	00e7e663          	bltu	a5,a4,3400 <_free_r+0x66>
    33f8:	04c1a583          	lw	a1,76(gp) # 20089c <__malloc_top_pad>
    33fc:	8522                	mv	a0,s0
    33fe:	35d5                	jal	32e2 <_malloc_trim_r>
    3400:	8522                	mv	a0,s0
    3402:	4422                	lw	s0,8(sp)
    3404:	40b2                	lw	ra,12(sp)
    3406:	4492                	lw	s1,4(sp)
    3408:	0141                	addi	sp,sp,16
    340a:	2790006f          	j	3e82 <__malloc_unlock>
    340e:	c1d8                	sw	a4,4(a1)
    3410:	4801                	li	a6,0
    3412:	e105                	bnez	a0,3432 <_free_r+0x98>
    3414:	ff84a503          	lw	a0,-8(s1)
    3418:	c3018893          	addi	a7,gp,-976 # 200480 <__malloc_av_+0x8>
    341c:	8e89                	sub	a3,a3,a0
    341e:	97aa                	add	a5,a5,a0
    3420:	4688                	lw	a0,8(a3)
    3422:	07150a63          	beq	a0,a7,3496 <_free_r+0xfc>
    3426:	00c6a883          	lw	a7,12(a3) # 200c <_sbst_alu+0x1bbc>
    342a:	01152623          	sw	a7,12(a0)
    342e:	00a8a423          	sw	a0,8(a7)
    3432:	00e58533          	add	a0,a1,a4
    3436:	4148                	lw	a0,4(a0)
    3438:	8905                	andi	a0,a0,1
    343a:	ed11                	bnez	a0,3456 <_free_r+0xbc>
    343c:	97ba                	add	a5,a5,a4
    343e:	4598                	lw	a4,8(a1)
    3440:	04081d63          	bnez	a6,349a <_free_r+0x100>
    3444:	c3018513          	addi	a0,gp,-976 # 200480 <__malloc_av_+0x8>
    3448:	04a71963          	bne	a4,a0,349a <_free_r+0x100>
    344c:	ca54                	sw	a3,20(a2)
    344e:	ca14                	sw	a3,16(a2)
    3450:	c6d8                	sw	a4,12(a3)
    3452:	c698                	sw	a4,8(a3)
    3454:	4805                	li	a6,1
    3456:	0017e713          	ori	a4,a5,1
    345a:	c2d8                	sw	a4,4(a3)
    345c:	00f68733          	add	a4,a3,a5
    3460:	c31c                	sw	a5,0(a4)
    3462:	f8081fe3          	bnez	a6,3400 <_free_r+0x66>
    3466:	1ff00713          	li	a4,511
    346a:	02f76c63          	bltu	a4,a5,34a2 <_free_r+0x108>
    346e:	838d                	srli	a5,a5,0x3
    3470:	4027d593          	srai	a1,a5,0x2
    3474:	4705                	li	a4,1
    3476:	00b71733          	sll	a4,a4,a1
    347a:	424c                	lw	a1,4(a2)
    347c:	0785                	addi	a5,a5,1
    347e:	078e                	slli	a5,a5,0x3
    3480:	97b2                	add	a5,a5,a2
    3482:	8f4d                	or	a4,a4,a1
    3484:	c258                	sw	a4,4(a2)
    3486:	4398                	lw	a4,0(a5)
    3488:	ff878613          	addi	a2,a5,-8
    348c:	c6d0                	sw	a2,12(a3)
    348e:	c698                	sw	a4,8(a3)
    3490:	c394                	sw	a3,0(a5)
    3492:	c754                	sw	a3,12(a4)
    3494:	b7b5                	j	3400 <_free_r+0x66>
    3496:	4805                	li	a6,1
    3498:	bf69                	j	3432 <_free_r+0x98>
    349a:	45cc                	lw	a1,12(a1)
    349c:	c74c                	sw	a1,12(a4)
    349e:	c598                	sw	a4,8(a1)
    34a0:	bf5d                	j	3456 <_free_r+0xbc>
    34a2:	0097d593          	srli	a1,a5,0x9
    34a6:	4711                	li	a4,4
    34a8:	02b76b63          	bltu	a4,a1,34de <_free_r+0x144>
    34ac:	0067d713          	srli	a4,a5,0x6
    34b0:	03870713          	addi	a4,a4,56
    34b4:	00170593          	addi	a1,a4,1
    34b8:	058e                	slli	a1,a1,0x3
    34ba:	95b2                	add	a1,a1,a2
    34bc:	ff858513          	addi	a0,a1,-8
    34c0:	418c                	lw	a1,0(a1)
    34c2:	06b51463          	bne	a0,a1,352a <_free_r+0x190>
    34c6:	4785                	li	a5,1
    34c8:	8709                	srai	a4,a4,0x2
    34ca:	00e79733          	sll	a4,a5,a4
    34ce:	425c                	lw	a5,4(a2)
    34d0:	8f5d                	or	a4,a4,a5
    34d2:	c258                	sw	a4,4(a2)
    34d4:	c6c8                	sw	a0,12(a3)
    34d6:	c68c                	sw	a1,8(a3)
    34d8:	c514                	sw	a3,8(a0)
    34da:	c5d4                	sw	a3,12(a1)
    34dc:	b715                	j	3400 <_free_r+0x66>
    34de:	4751                	li	a4,20
    34e0:	00b76563          	bltu	a4,a1,34ea <_free_r+0x150>
    34e4:	05b58713          	addi	a4,a1,91
    34e8:	b7f1                	j	34b4 <_free_r+0x11a>
    34ea:	05400713          	li	a4,84
    34ee:	00b76763          	bltu	a4,a1,34fc <_free_r+0x162>
    34f2:	00c7d713          	srli	a4,a5,0xc
    34f6:	06e70713          	addi	a4,a4,110
    34fa:	bf6d                	j	34b4 <_free_r+0x11a>
    34fc:	15400713          	li	a4,340
    3500:	00b76763          	bltu	a4,a1,350e <_free_r+0x174>
    3504:	00f7d713          	srli	a4,a5,0xf
    3508:	07770713          	addi	a4,a4,119
    350c:	b765                	j	34b4 <_free_r+0x11a>
    350e:	55400513          	li	a0,1364
    3512:	07e00713          	li	a4,126
    3516:	f8b56fe3          	bltu	a0,a1,34b4 <_free_r+0x11a>
    351a:	0127d713          	srli	a4,a5,0x12
    351e:	07c70713          	addi	a4,a4,124
    3522:	bf49                	j	34b4 <_free_r+0x11a>
    3524:	458c                	lw	a1,8(a1)
    3526:	00b50663          	beq	a0,a1,3532 <_free_r+0x198>
    352a:	41d8                	lw	a4,4(a1)
    352c:	9b71                	andi	a4,a4,-4
    352e:	fee7ebe3          	bltu	a5,a4,3524 <_free_r+0x18a>
    3532:	45c8                	lw	a0,12(a1)
    3534:	b745                	j	34d4 <_free_r+0x13a>
    3536:	8082                	ret

00003538 <__sfvwrite_r>:
    3538:	461c                	lw	a5,8(a2)
    353a:	e781                	bnez	a5,3542 <__sfvwrite_r+0xa>
    353c:	4781                	li	a5,0
    353e:	853e                	mv	a0,a5
    3540:	8082                	ret
    3542:	00c5d783          	lhu	a5,12(a1)
    3546:	715d                	addi	sp,sp,-80
    3548:	c4a2                	sw	s0,72(sp)
    354a:	c0ca                	sw	s2,64(sp)
    354c:	da56                	sw	s5,52(sp)
    354e:	c686                	sw	ra,76(sp)
    3550:	c2a6                	sw	s1,68(sp)
    3552:	de4e                	sw	s3,60(sp)
    3554:	dc52                	sw	s4,56(sp)
    3556:	d85a                	sw	s6,48(sp)
    3558:	d65e                	sw	s7,44(sp)
    355a:	d462                	sw	s8,40(sp)
    355c:	d266                	sw	s9,36(sp)
    355e:	d06a                	sw	s10,32(sp)
    3560:	ce6e                	sw	s11,28(sp)
    3562:	8ba1                	andi	a5,a5,8
    3564:	8ab2                	mv	s5,a2
    3566:	842e                	mv	s0,a1
    3568:	892a                	mv	s2,a0
    356a:	cfd9                	beqz	a5,3608 <__sfvwrite_r+0xd0>
    356c:	499c                	lw	a5,16(a1)
    356e:	cfc9                	beqz	a5,3608 <__sfvwrite_r+0xd0>
    3570:	00c45783          	lhu	a5,12(s0)
    3574:	000aaa03          	lw	s4,0(s5)
    3578:	0027f713          	andi	a4,a5,2
    357c:	0e071863          	bnez	a4,366c <__sfvwrite_r+0x134>
    3580:	8b85                	andi	a5,a5,1
    3582:	16078063          	beqz	a5,36e2 <__sfvwrite_r+0x1aa>
    3586:	4b81                	li	s7,0
    3588:	4501                	li	a0,0
    358a:	4b01                	li	s6,0
    358c:	4981                	li	s3,0
    358e:	24098363          	beqz	s3,37d4 <__sfvwrite_r+0x29c>
    3592:	ed01                	bnez	a0,35aa <__sfvwrite_r+0x72>
    3594:	864e                	mv	a2,s3
    3596:	45a9                	li	a1,10
    3598:	855a                	mv	a0,s6
    359a:	7d0000ef          	jal	ra,3d6a <memchr>
    359e:	00198b93          	addi	s7,s3,1
    35a2:	c501                	beqz	a0,35aa <__sfvwrite_r+0x72>
    35a4:	0505                	addi	a0,a0,1
    35a6:	41650bb3          	sub	s7,a0,s6
    35aa:	8c5e                	mv	s8,s7
    35ac:	0179f363          	bleu	s7,s3,35b2 <__sfvwrite_r+0x7a>
    35b0:	8c4e                	mv	s8,s3
    35b2:	4008                	lw	a0,0(s0)
    35b4:	481c                	lw	a5,16(s0)
    35b6:	4854                	lw	a3,20(s0)
    35b8:	22a7f563          	bleu	a0,a5,37e2 <__sfvwrite_r+0x2aa>
    35bc:	4404                	lw	s1,8(s0)
    35be:	94b6                	add	s1,s1,a3
    35c0:	2384d163          	ble	s8,s1,37e2 <__sfvwrite_r+0x2aa>
    35c4:	85da                	mv	a1,s6
    35c6:	8626                	mv	a2,s1
    35c8:	07b000ef          	jal	ra,3e42 <memmove>
    35cc:	401c                	lw	a5,0(s0)
    35ce:	85a2                	mv	a1,s0
    35d0:	854a                	mv	a0,s2
    35d2:	97a6                	add	a5,a5,s1
    35d4:	c01c                	sw	a5,0(s0)
    35d6:	04a010ef          	jal	ra,4620 <_fflush_r>
    35da:	0e051c63          	bnez	a0,36d2 <__sfvwrite_r+0x19a>
    35de:	409b8bb3          	sub	s7,s7,s1
    35e2:	4505                	li	a0,1
