
sbst.elf:     file format elf32-littleriscv


Disassembly of section .vectors:

00000000 <__vector_start>:
   0:	3160006f          	j	316 <sw_irq_handler>
   4:	3020006f          	j	306 <__no_irq_handler>
   8:	2fe0006f          	j	306 <__no_irq_handler>
   c:	2fa0006f          	j	306 <__no_irq_handler>
  10:	2f60006f          	j	306 <__no_irq_handler>
  14:	2f20006f          	j	306 <__no_irq_handler>
  18:	2ee0006f          	j	306 <__no_irq_handler>
  1c:	2ea0006f          	j	306 <__no_irq_handler>
  20:	2e60006f          	j	306 <__no_irq_handler>
  24:	2e20006f          	j	306 <__no_irq_handler>
  28:	2de0006f          	j	306 <__no_irq_handler>
  2c:	2da0006f          	j	306 <__no_irq_handler>
  30:	2d60006f          	j	306 <__no_irq_handler>
  34:	2d20006f          	j	306 <__no_irq_handler>
  38:	2ce0006f          	j	306 <__no_irq_handler>
  3c:	2ca0006f          	j	306 <__no_irq_handler>
  40:	2c60006f          	j	306 <__no_irq_handler>
  44:	2c20006f          	j	306 <__no_irq_handler>
  48:	2be0006f          	j	306 <__no_irq_handler>
  4c:	2ba0006f          	j	306 <__no_irq_handler>
  50:	2b60006f          	j	306 <__no_irq_handler>
  54:	2b20006f          	j	306 <__no_irq_handler>
  58:	2ae0006f          	j	306 <__no_irq_handler>
  5c:	2aa0006f          	j	306 <__no_irq_handler>
  60:	2a60006f          	j	306 <__no_irq_handler>
  64:	2a20006f          	j	306 <__no_irq_handler>
  68:	29e0006f          	j	306 <__no_irq_handler>
  6c:	29a0006f          	j	306 <__no_irq_handler>
  70:	2960006f          	j	306 <__no_irq_handler>
  74:	2920006f          	j	306 <__no_irq_handler>
  78:	28e0006f          	j	306 <__no_irq_handler>
  7c:	3120006f          	j	38e <verification_irq_handler>

Disassembly of section .init:

00000080 <_start>:
  80:	4081                	li	ra,0
  82:	4101                	li	sp,0
  84:	4181                	li	gp,0
  86:	4201                	li	tp,0
  88:	4281                	li	t0,0
  8a:	4301                	li	t1,0
  8c:	4381                	li	t2,0
  8e:	4401                	li	s0,0
  90:	4481                	li	s1,0
  92:	4501                	li	a0,0
  94:	4581                	li	a1,0
  96:	4601                	li	a2,0
  98:	4681                	li	a3,0
  9a:	4701                	li	a4,0
  9c:	4781                	li	a5,0
  9e:	4801                	li	a6,0
  a0:	4881                	li	a7,0
  a2:	4901                	li	s2,0
  a4:	4981                	li	s3,0
  a6:	4a01                	li	s4,0
  a8:	4a81                	li	s5,0
  aa:	4b01                	li	s6,0
  ac:	4b81                	li	s7,0
  ae:	4c01                	li	s8,0
  b0:	4c81                	li	s9,0
  b2:	4d01                	li	s10,0
  b4:	4d81                	li	s11,0
  b6:	4e01                	li	t3,0
  b8:	4e81                	li	t4,0
  ba:	4f01                	li	t5,0
  bc:	4f81                	li	t6,0
  be:	00200197          	auipc	gp,0x200
  c2:	74a18193          	addi	gp,gp,1866 # 200808 <__global_pointer$>
  c6:	00201117          	auipc	sp,0x201
  ca:	fca10113          	addi	sp,sp,-54 # 201090 <_sp>
  ce:	00000517          	auipc	a0,0x0
  d2:	f3250513          	addi	a0,a0,-206 # 0 <__vector_start>
  d6:	30551073          	csrw	mtvec,a0
  da:	00200517          	auipc	a0,0x200
  de:	77250513          	addi	a0,a0,1906 # 20084c <_edata>
  e2:	00200617          	auipc	a2,0x200
  e6:	7a260613          	addi	a2,a2,1954 # 200884 <__BSS_END__>
  ea:	8e09                	sub	a2,a2,a0
  ec:	4581                	li	a1,0
  ee:	2661                	jal	476 <memset>
  f0:	00000517          	auipc	a0,0x0
  f4:	2e050513          	addi	a0,a0,736 # 3d0 <__libc_fini_array>
  f8:	2c55                	jal	3ac <atexit>
  fa:	2e31                	jal	416 <__libc_init_array>
  fc:	2c59                	jal	392 <_sbst_boot>
  fe:	4502                	lw	a0,0(sp)
 100:	004c                	addi	a1,sp,4
 102:	4601                	li	a2,0
 104:	2019                	jal	10a <main>
 106:	ac45                	j	3b6 <exit>

00000108 <_fini>:
 108:	8082                	ret

Disassembly of section .text:

0000010a <main>:
     10a:	7139                	addi	sp,sp,-64
     10c:	52b00793          	li	a5,1323
     110:	c23e                	sw	a5,4(sp)
     112:	0ea00793          	li	a5,234
     116:	c43e                	sw	a5,8(sp)
     118:	02b00793          	li	a5,43
     11c:	c63e                	sw	a5,12(sp)
     11e:	000857b7          	lui	a5,0x85
     122:	23f78793          	addi	a5,a5,575 # 8523f <__TEST_RODATA_END+0x832cb>
     126:	c83e                	sw	a5,16(sp)
     128:	3e800793          	li	a5,1000
     12c:	ca3e                	sw	a5,20(sp)
     12e:	47b5                	li	a5,13
     130:	cc3e                	sw	a5,24(sp)
     132:	4789                	li	a5,2
     134:	ce3e                	sw	a5,28(sp)
     136:	4791                	li	a5,4
     138:	d03e                	sw	a5,32(sp)
     13a:	03600793          	li	a5,54
     13e:	d23e                	sw	a5,36(sp)
     140:	47a9                	li	a5,10
     142:	d43e                	sw	a5,40(sp)
     144:	0054                	addi	a3,sp,4
     146:	0838                	addi	a4,sp,24
     148:	4781                	li	a5,0
     14a:	4515                	li	a0,5
     14c:	4310                	lw	a2,0(a4)
     14e:	428c                	lw	a1,0(a3)
     150:	04010813          	addi	a6,sp,64
     154:	0691                	addi	a3,a3,4
     156:	02c5c5b3          	div	a1,a1,a2
     15a:	00279613          	slli	a2,a5,0x2
     15e:	9642                	add	a2,a2,a6
     160:	0785                	addi	a5,a5,1
     162:	0711                	addi	a4,a4,4
     164:	feb62623          	sw	a1,-20(a2)
     168:	fea792e3          	bne	a5,a0,14c <main+0x42>
     16c:	4501                	li	a0,0
     16e:	6121                	addi	sp,sp,64
     170:	8082                	ret

00000172 <unimplemented_syscall>:
     172:	000027b7          	lui	a5,0x2
     176:	e8478793          	addi	a5,a5,-380 # 1e84 <_isatty_r+0x2e>
     17a:	100006b7          	lui	a3,0x10000
     17e:	0007c703          	lbu	a4,0(a5)
     182:	e311                	bnez	a4,186 <unimplemented_syscall+0x14>
     184:	8082                	ret
     186:	0785                	addi	a5,a5,1
     188:	c298                	sw	a4,0(a3)
     18a:	bfd5                	j	17e <unimplemented_syscall+0xc>

0000018c <nanosleep>:
     18c:	05800713          	li	a4,88
     190:	06e1ac23          	sw	a4,120(gp) # 200880 <errno>
     194:	557d                	li	a0,-1
     196:	8082                	ret

00000198 <_access>:
     198:	05800713          	li	a4,88
     19c:	06e1ac23          	sw	a4,120(gp) # 200880 <errno>
     1a0:	557d                	li	a0,-1
     1a2:	8082                	ret

000001a4 <_chdir>:
     1a4:	05800713          	li	a4,88
     1a8:	06e1ac23          	sw	a4,120(gp) # 200880 <errno>
     1ac:	557d                	li	a0,-1
     1ae:	8082                	ret

000001b0 <_chmod>:
     1b0:	05800713          	li	a4,88
     1b4:	06e1ac23          	sw	a4,120(gp) # 200880 <errno>
     1b8:	557d                	li	a0,-1
     1ba:	8082                	ret

000001bc <_chown>:
     1bc:	05800713          	li	a4,88
     1c0:	06e1ac23          	sw	a4,120(gp) # 200880 <errno>
     1c4:	557d                	li	a0,-1
     1c6:	8082                	ret

000001c8 <close>:
     1c8:	557d                	li	a0,-1
     1ca:	8082                	ret

000001cc <_execve>:
     1cc:	4731                	li	a4,12
     1ce:	06e1ac23          	sw	a4,120(gp) # 200880 <errno>
     1d2:	557d                	li	a0,-1
     1d4:	8082                	ret

000001d6 <_exit>:
     1d6:	200007b7          	lui	a5,0x20000
     1da:	c3c8                	sw	a0,4(a5)
     1dc:	10500073          	wfi
     1e0:	8082                	ret

000001e2 <_faccessat>:
     1e2:	05800713          	li	a4,88
     1e6:	06e1ac23          	sw	a4,120(gp) # 200880 <errno>
     1ea:	557d                	li	a0,-1
     1ec:	8082                	ret

000001ee <_fork>:
     1ee:	472d                	li	a4,11
     1f0:	06e1ac23          	sw	a4,120(gp) # 200880 <errno>
     1f4:	557d                	li	a0,-1
     1f6:	8082                	ret

000001f8 <fstat>:
     1f8:	6789                	lui	a5,0x2
     1fa:	c1dc                	sw	a5,4(a1)
     1fc:	4501                	li	a0,0
     1fe:	8082                	ret

00000200 <_fstatat>:
     200:	05800713          	li	a4,88
     204:	06e1ac23          	sw	a4,120(gp) # 200880 <errno>
     208:	557d                	li	a0,-1
     20a:	8082                	ret

0000020c <_ftime>:
     20c:	05800713          	li	a4,88
     210:	06e1ac23          	sw	a4,120(gp) # 200880 <errno>
     214:	557d                	li	a0,-1
     216:	8082                	ret

00000218 <_getcwd>:
     218:	fa800713          	li	a4,-88
     21c:	06e1ac23          	sw	a4,120(gp) # 200880 <errno>
     220:	4501                	li	a0,0
     222:	8082                	ret

00000224 <_getpid>:
     224:	4505                	li	a0,1
     226:	8082                	ret

00000228 <_gettimeofday>:
     228:	fa800713          	li	a4,-88
     22c:	06e1ac23          	sw	a4,120(gp) # 200880 <errno>
     230:	557d                	li	a0,-1
     232:	8082                	ret

00000234 <isatty>:
     234:	157d                	addi	a0,a0,-1
     236:	00153513          	seqz	a0,a0
     23a:	8082                	ret

0000023c <_kill>:
     23c:	4759                	li	a4,22
     23e:	06e1ac23          	sw	a4,120(gp) # 200880 <errno>
     242:	557d                	li	a0,-1
     244:	8082                	ret

00000246 <_link>:
     246:	477d                	li	a4,31
     248:	06e1ac23          	sw	a4,120(gp) # 200880 <errno>
     24c:	557d                	li	a0,-1
     24e:	8082                	ret

00000250 <lseek>:
     250:	4501                	li	a0,0
     252:	8082                	ret

00000254 <_lstat>:
     254:	05800713          	li	a4,88
     258:	06e1ac23          	sw	a4,120(gp) # 200880 <errno>
     25c:	557d                	li	a0,-1
     25e:	8082                	ret

00000260 <_open>:
     260:	557d                	li	a0,-1
     262:	8082                	ret

00000264 <_openat>:
     264:	05800713          	li	a4,88
     268:	06e1ac23          	sw	a4,120(gp) # 200880 <errno>
     26c:	557d                	li	a0,-1
     26e:	8082                	ret

00000270 <read>:
     270:	4501                	li	a0,0
     272:	8082                	ret

00000274 <_stat>:
     274:	6789                	lui	a5,0x2
     276:	c1dc                	sw	a5,4(a1)
     278:	4501                	li	a0,0
     27a:	8082                	ret

0000027c <_sysconf>:
     27c:	557d                	li	a0,-1
     27e:	8082                	ret

00000280 <_times>:
     280:	557d                	li	a0,-1
     282:	8082                	ret

00000284 <_unlink>:
     284:	4709                	li	a4,2
     286:	06e1ac23          	sw	a4,120(gp) # 200880 <errno>
     28a:	557d                	li	a0,-1
     28c:	8082                	ret

0000028e <_utime>:
     28e:	05800713          	li	a4,88
     292:	06e1ac23          	sw	a4,120(gp) # 200880 <errno>
     296:	557d                	li	a0,-1
     298:	8082                	ret

0000029a <_wait>:
     29a:	4729                	li	a4,10
     29c:	06e1ac23          	sw	a4,120(gp) # 200880 <errno>
     2a0:	557d                	li	a0,-1
     2a2:	8082                	ret

000002a4 <write>:
     2a4:	4685                	li	a3,1
     2a6:	00c587b3          	add	a5,a1,a2
     2aa:	10000737          	lui	a4,0x10000
     2ae:	00d50c63          	beq	a0,a3,2c6 <write+0x22>
     2b2:	05800713          	li	a4,88
     2b6:	06e1ac23          	sw	a4,120(gp) # 200880 <errno>
     2ba:	557d                	li	a0,-1
     2bc:	8082                	ret
     2be:	0585                	addi	a1,a1,1
     2c0:	fff5c683          	lbu	a3,-1(a1)
     2c4:	c314                	sw	a3,0(a4)
     2c6:	fef59ce3          	bne	a1,a5,2be <write+0x1a>
     2ca:	8532                	mv	a0,a2
     2cc:	8082                	ret

000002ce <_brk>:
     2ce:	02a1a823          	sw	a0,48(gp) # 200838 <__SDATA_BEGIN__>
     2d2:	4501                	li	a0,0
     2d4:	8082                	ret

000002d6 <sbrk>:
     2d6:	07c18593          	addi	a1,gp,124 # 200884 <__BSS_END__>
     2da:	47c18793          	addi	a5,gp,1148 # 200c84 <__heap_end>
     2de:	0301a603          	lw	a2,48(gp) # 200838 <__SDATA_BEGIN__>
     2e2:	02f58063          	beq	a1,a5,302 <sbrk+0x2c>
     2e6:	00a60733          	add	a4,a2,a0
     2ea:	02e1a823          	sw	a4,48(gp) # 200838 <__SDATA_BEGIN__>
     2ee:	00f77763          	bleu	a5,a4,2fc <sbrk+0x26>
     2f2:	972a                	add	a4,a4,a0
     2f4:	02e1a823          	sw	a4,48(gp) # 200838 <__SDATA_BEGIN__>
     2f8:	8532                	mv	a0,a2
     2fa:	8082                	ret
     2fc:	02f1a823          	sw	a5,48(gp) # 200838 <__SDATA_BEGIN__>
     300:	bfe5                	j	2f8 <sbrk+0x22>
     302:	4601                	li	a2,0
     304:	bfd5                	j	2f8 <sbrk+0x22>

00000306 <__no_irq_handler>:
     306:	00002517          	auipc	a0,0x2
     30a:	c3650513          	addi	a0,a0,-970 # 1f3c <no_exception_handler_msg>
     30e:	280000ef          	jal	ra,58e <puts>
     312:	ff5ff06f          	j	306 <__no_irq_handler>

00000316 <sw_irq_handler>:
     316:	342022f3          	csrr	t0,mcause
     31a:	00129293          	slli	t0,t0,0x1
     31e:	0012d293          	srli	t0,t0,0x1
     322:	00200313          	li	t1,2
     326:	02628c63          	beq	t0,t1,35e <handle_illegal_insn>
     32a:	00b00313          	li	t1,11
     32e:	00628863          	beq	t0,t1,33e <handle_ecall>
     332:	00300313          	li	t1,3
     336:	00628c63          	beq	t0,t1,34e <handle_ebreak>
     33a:	0340006f          	j	36e <handle_unknown>

0000033e <handle_ecall>:
     33e:	00002517          	auipc	a0,0x2
     342:	b9850513          	addi	a0,a0,-1128 # 1ed6 <ecall_msg>
     346:	248000ef          	jal	ra,58e <puts>
     34a:	0340006f          	j	37e <end_handler>

0000034e <handle_ebreak>:
     34e:	00002517          	auipc	a0,0x2
     352:	ba950513          	addi	a0,a0,-1111 # 1ef7 <ebreak_msg>
     356:	238000ef          	jal	ra,58e <puts>
     35a:	0240006f          	j	37e <end_handler>

0000035e <handle_illegal_insn>:
     35e:	00002517          	auipc	a0,0x2
     362:	b4950513          	addi	a0,a0,-1207 # 1ea7 <illegal_insn_msg>
     366:	228000ef          	jal	ra,58e <puts>
     36a:	0140006f          	j	37e <end_handler>

0000036e <handle_unknown>:
     36e:	00002517          	auipc	a0,0x2
     372:	bab50513          	addi	a0,a0,-1109 # 1f19 <unknown_msg>
     376:	218000ef          	jal	ra,58e <puts>
     37a:	0040006f          	j	37e <end_handler>

0000037e <end_handler>:
     37e:	34102573          	csrr	a0,mepc
     382:	00450513          	addi	a0,a0,4
     386:	34151073          	csrw	mepc,a0
     38a:	30200073          	mret

0000038e <verification_irq_handler>:
     38e:	30200073          	mret

00000392 <_sbst_boot>:
     392:	00200537          	lui	a0,0x200
     396:	00050513          	mv	a0,a0
     39a:	00002297          	auipc	t0,0x2
     39e:	bc628293          	addi	t0,t0,-1082 # 1f60 <__TEST_RODATA_START>
     3a2:	0002a303          	lw	t1,0(t0)
     3a6:	0042a383          	lw	t2,4(t0)
     3aa:	8082                	ret

000003ac <atexit>:
     3ac:	85aa                	mv	a1,a0
     3ae:	4681                	li	a3,0
     3b0:	4601                	li	a2,0
     3b2:	4501                	li	a0,0
     3b4:	a47d                	j	662 <__register_exitproc>

000003b6 <exit>:
     3b6:	1141                	addi	sp,sp,-16
     3b8:	4581                	li	a1,0
     3ba:	c422                	sw	s0,8(sp)
     3bc:	c606                	sw	ra,12(sp)
     3be:	842a                	mv	s0,a0
     3c0:	2609                	jal	6c2 <__call_exitprocs>
     3c2:	0341a503          	lw	a0,52(gp) # 20083c <_global_impure_ptr>
     3c6:	5d5c                	lw	a5,60(a0)
     3c8:	c391                	beqz	a5,3cc <exit+0x16>
     3ca:	9782                	jalr	a5
     3cc:	8522                	mv	a0,s0
     3ce:	3521                	jal	1d6 <_exit>

000003d0 <__libc_fini_array>:
     3d0:	1101                	addi	sp,sp,-32
     3d2:	6789                	lui	a5,0x2
     3d4:	6709                	lui	a4,0x2
     3d6:	cc22                	sw	s0,24(sp)
     3d8:	f6070713          	addi	a4,a4,-160 # 1f60 <__TEST_RODATA_START>
     3dc:	f6078413          	addi	s0,a5,-160 # 1f60 <__TEST_RODATA_START>
     3e0:	8c19                	sub	s0,s0,a4
     3e2:	ca26                	sw	s1,20(sp)
     3e4:	c84a                	sw	s2,16(sp)
     3e6:	c64e                	sw	s3,12(sp)
     3e8:	ce06                	sw	ra,28(sp)
     3ea:	8409                	srai	s0,s0,0x2
     3ec:	4481                	li	s1,0
     3ee:	f6078913          	addi	s2,a5,-160
     3f2:	59f1                	li	s3,-4
     3f4:	00941963          	bne	s0,s1,406 <__TEST_DATA_SIZE+0x6>
     3f8:	4462                	lw	s0,24(sp)
     3fa:	40f2                	lw	ra,28(sp)
     3fc:	44d2                	lw	s1,20(sp)
     3fe:	4942                	lw	s2,16(sp)
     400:	49b2                	lw	s3,12(sp)
     402:	6105                	addi	sp,sp,32
     404:	b311                	j	108 <_fini>
     406:	033487b3          	mul	a5,s1,s3
     40a:	0485                	addi	s1,s1,1
     40c:	97ca                	add	a5,a5,s2
     40e:	ffc7a783          	lw	a5,-4(a5)
     412:	9782                	jalr	a5
     414:	b7c5                	j	3f4 <__libc_fini_array+0x24>

00000416 <__libc_init_array>:
     416:	1141                	addi	sp,sp,-16
     418:	c422                	sw	s0,8(sp)
     41a:	c226                	sw	s1,4(sp)
     41c:	6409                	lui	s0,0x2
     41e:	6489                	lui	s1,0x2
     420:	f6048793          	addi	a5,s1,-160 # 1f60 <__TEST_RODATA_START>
     424:	f6040413          	addi	s0,s0,-160 # 1f60 <__TEST_RODATA_START>
     428:	8c1d                	sub	s0,s0,a5
     42a:	c04a                	sw	s2,0(sp)
     42c:	c606                	sw	ra,12(sp)
     42e:	8409                	srai	s0,s0,0x2
     430:	f6048493          	addi	s1,s1,-160
     434:	4901                	li	s2,0
     436:	02891663          	bne	s2,s0,462 <__libc_init_array+0x4c>
     43a:	6489                	lui	s1,0x2
     43c:	31f1                	jal	108 <_fini>
     43e:	6409                	lui	s0,0x2
     440:	f6048793          	addi	a5,s1,-160 # 1f60 <__TEST_RODATA_START>
     444:	f6040413          	addi	s0,s0,-160 # 1f60 <__TEST_RODATA_START>
     448:	8c1d                	sub	s0,s0,a5
     44a:	8409                	srai	s0,s0,0x2
     44c:	f6048493          	addi	s1,s1,-160
     450:	4901                	li	s2,0
     452:	00891d63          	bne	s2,s0,46c <__libc_init_array+0x56>
     456:	40b2                	lw	ra,12(sp)
     458:	4422                	lw	s0,8(sp)
     45a:	4492                	lw	s1,4(sp)
     45c:	4902                	lw	s2,0(sp)
     45e:	0141                	addi	sp,sp,16
     460:	8082                	ret
     462:	409c                	lw	a5,0(s1)
     464:	0905                	addi	s2,s2,1
     466:	0491                	addi	s1,s1,4
     468:	9782                	jalr	a5
     46a:	b7f1                	j	436 <__libc_init_array+0x20>
     46c:	409c                	lw	a5,0(s1)
     46e:	0905                	addi	s2,s2,1
     470:	0491                	addi	s1,s1,4
     472:	9782                	jalr	a5
     474:	bff9                	j	452 <__libc_init_array+0x3c>

00000476 <memset>:
     476:	483d                	li	a6,15
     478:	872a                	mv	a4,a0
     47a:	02c87363          	bleu	a2,a6,4a0 <memset+0x2a>
     47e:	00f77793          	andi	a5,a4,15
     482:	efbd                	bnez	a5,500 <memset+0x8a>
     484:	e5ad                	bnez	a1,4ee <memset+0x78>
     486:	ff067693          	andi	a3,a2,-16
     48a:	8a3d                	andi	a2,a2,15
     48c:	96ba                	add	a3,a3,a4
     48e:	c30c                	sw	a1,0(a4)
     490:	c34c                	sw	a1,4(a4)
     492:	c70c                	sw	a1,8(a4)
     494:	c74c                	sw	a1,12(a4)
     496:	0741                	addi	a4,a4,16
     498:	fed76be3          	bltu	a4,a3,48e <memset+0x18>
     49c:	e211                	bnez	a2,4a0 <memset+0x2a>
     49e:	8082                	ret
     4a0:	40c806b3          	sub	a3,a6,a2
     4a4:	068a                	slli	a3,a3,0x2
     4a6:	00000297          	auipc	t0,0x0
     4aa:	9696                	add	a3,a3,t0
     4ac:	00a68067          	jr	10(a3) # 1000000a <_sp+0xfdfef7a>
     4b0:	00b70723          	sb	a1,14(a4)
     4b4:	00b706a3          	sb	a1,13(a4)
     4b8:	00b70623          	sb	a1,12(a4)
     4bc:	00b705a3          	sb	a1,11(a4)
     4c0:	00b70523          	sb	a1,10(a4)
     4c4:	00b704a3          	sb	a1,9(a4)
     4c8:	00b70423          	sb	a1,8(a4)
     4cc:	00b703a3          	sb	a1,7(a4)
     4d0:	00b70323          	sb	a1,6(a4)
     4d4:	00b702a3          	sb	a1,5(a4)
     4d8:	00b70223          	sb	a1,4(a4)
     4dc:	00b701a3          	sb	a1,3(a4)
     4e0:	00b70123          	sb	a1,2(a4)
     4e4:	00b700a3          	sb	a1,1(a4)
     4e8:	00b70023          	sb	a1,0(a4)
     4ec:	8082                	ret
     4ee:	0ff5f593          	andi	a1,a1,255
     4f2:	00859693          	slli	a3,a1,0x8
     4f6:	8dd5                	or	a1,a1,a3
     4f8:	01059693          	slli	a3,a1,0x10
     4fc:	8dd5                	or	a1,a1,a3
     4fe:	b761                	j	486 <memset+0x10>
     500:	00279693          	slli	a3,a5,0x2
     504:	00000297          	auipc	t0,0x0
     508:	9696                	add	a3,a3,t0
     50a:	8286                	mv	t0,ra
     50c:	fa8680e7          	jalr	-88(a3)
     510:	8096                	mv	ra,t0
     512:	17c1                	addi	a5,a5,-16
     514:	8f1d                	sub	a4,a4,a5
     516:	963e                	add	a2,a2,a5
     518:	f8c874e3          	bleu	a2,a6,4a0 <memset+0x2a>
     51c:	b7a5                	j	484 <memset+0xe>

0000051e <_puts_r>:
     51e:	7139                	addi	sp,sp,-64
     520:	dc22                	sw	s0,56(sp)
     522:	842a                	mv	s0,a0
     524:	852e                	mv	a0,a1
     526:	c62e                	sw	a1,12(sp)
     528:	de06                	sw	ra,60(sp)
     52a:	221d                	jal	650 <strlen>
     52c:	000027b7          	lui	a5,0x2
     530:	f5c78793          	addi	a5,a5,-164 # 1f5c <no_exception_handler_msg+0x20>
     534:	d43e                	sw	a5,40(sp)
     536:	4785                	li	a5,1
     538:	d63e                	sw	a5,44(sp)
     53a:	101c                	addi	a5,sp,32
     53c:	45b2                	lw	a1,12(sp)
     53e:	ca3e                	sw	a5,20(sp)
     540:	4789                	li	a5,2
     542:	cc3e                	sw	a5,24(sp)
     544:	5c1c                	lw	a5,56(s0)
     546:	d22a                	sw	a0,36(sp)
     548:	0505                	addi	a0,a0,1
     54a:	d02e                	sw	a1,32(sp)
     54c:	ce2a                	sw	a0,28(sp)
     54e:	440c                	lw	a1,8(s0)
     550:	e789                	bnez	a5,55a <_puts_r+0x3c>
     552:	8522                	mv	a0,s0
     554:	c62e                	sw	a1,12(sp)
     556:	2cf9                	jal	834 <__sinit>
     558:	45b2                	lw	a1,12(sp)
     55a:	00c59783          	lh	a5,12(a1)
     55e:	01279713          	slli	a4,a5,0x12
     562:	00074b63          	bltz	a4,578 <_puts_r+0x5a>
     566:	6689                	lui	a3,0x2
     568:	51f8                	lw	a4,100(a1)
     56a:	8fd5                	or	a5,a5,a3
     56c:	00f59623          	sh	a5,12(a1)
     570:	77f9                	lui	a5,0xffffe
     572:	17fd                	addi	a5,a5,-1
     574:	8ff9                	and	a5,a5,a4
     576:	d1fc                	sw	a5,100(a1)
     578:	0850                	addi	a2,sp,20
     57a:	8522                	mv	a0,s0
     57c:	2d21                	jal	b94 <__sfvwrite_r>
     57e:	57fd                	li	a5,-1
     580:	e111                	bnez	a0,584 <_puts_r+0x66>
     582:	47a9                	li	a5,10
     584:	50f2                	lw	ra,60(sp)
     586:	5462                	lw	s0,56(sp)
     588:	853e                	mv	a0,a5
     58a:	6121                	addi	sp,sp,64
     58c:	8082                	ret

0000058e <puts>:
     58e:	85aa                	mv	a1,a0
     590:	0381a503          	lw	a0,56(gp) # 200840 <_impure_ptr>
     594:	b769                	j	51e <_puts_r>

00000596 <cleanup_glue>:
     596:	1141                	addi	sp,sp,-16
     598:	c422                	sw	s0,8(sp)
     59a:	842e                	mv	s0,a1
     59c:	418c                	lw	a1,0(a1)
     59e:	c226                	sw	s1,4(sp)
     5a0:	c606                	sw	ra,12(sp)
     5a2:	84aa                	mv	s1,a0
     5a4:	c191                	beqz	a1,5a8 <cleanup_glue+0x12>
     5a6:	3fc5                	jal	596 <cleanup_glue>
     5a8:	85a2                	mv	a1,s0
     5aa:	4422                	lw	s0,8(sp)
     5ac:	40b2                	lw	ra,12(sp)
     5ae:	8526                	mv	a0,s1
     5b0:	4492                	lw	s1,4(sp)
     5b2:	0141                	addi	sp,sp,16
     5b4:	a189                	j	9f6 <_free_r>

000005b6 <_reclaim_reent>:
     5b6:	0381a783          	lw	a5,56(gp) # 200840 <_impure_ptr>
     5ba:	08a78a63          	beq	a5,a0,64e <_reclaim_reent+0x98>
     5be:	457c                	lw	a5,76(a0)
     5c0:	1101                	addi	sp,sp,-32
     5c2:	cc22                	sw	s0,24(sp)
     5c4:	ca26                	sw	s1,20(sp)
     5c6:	c84a                	sw	s2,16(sp)
     5c8:	ce06                	sw	ra,28(sp)
     5ca:	c64e                	sw	s3,12(sp)
     5cc:	842a                	mv	s0,a0
     5ce:	4481                	li	s1,0
     5d0:	08000913          	li	s2,128
     5d4:	e795                	bnez	a5,600 <_reclaim_reent+0x4a>
     5d6:	402c                	lw	a1,64(s0)
     5d8:	c199                	beqz	a1,5de <_reclaim_reent+0x28>
     5da:	8522                	mv	a0,s0
     5dc:	2929                	jal	9f6 <_free_r>
     5de:	14842583          	lw	a1,328(s0)
     5e2:	c99d                	beqz	a1,618 <_reclaim_reent+0x62>
     5e4:	14c40493          	addi	s1,s0,332
     5e8:	02958863          	beq	a1,s1,618 <_reclaim_reent+0x62>
     5ec:	0005a903          	lw	s2,0(a1)
     5f0:	8522                	mv	a0,s0
     5f2:	2111                	jal	9f6 <_free_r>
     5f4:	85ca                	mv	a1,s2
     5f6:	bfcd                	j	5e8 <_reclaim_reent+0x32>
     5f8:	95a6                	add	a1,a1,s1
     5fa:	418c                	lw	a1,0(a1)
     5fc:	e981                	bnez	a1,60c <_reclaim_reent+0x56>
     5fe:	0491                	addi	s1,s1,4
     600:	446c                	lw	a1,76(s0)
     602:	ff249be3          	bne	s1,s2,5f8 <_reclaim_reent+0x42>
     606:	8522                	mv	a0,s0
     608:	26fd                	jal	9f6 <_free_r>
     60a:	b7f1                	j	5d6 <_reclaim_reent+0x20>
     60c:	0005a983          	lw	s3,0(a1)
     610:	8522                	mv	a0,s0
     612:	26d5                	jal	9f6 <_free_r>
     614:	85ce                	mv	a1,s3
     616:	b7dd                	j	5fc <_reclaim_reent+0x46>
     618:	486c                	lw	a1,84(s0)
     61a:	c199                	beqz	a1,620 <_reclaim_reent+0x6a>
     61c:	8522                	mv	a0,s0
     61e:	2ee1                	jal	9f6 <_free_r>
     620:	5c1c                	lw	a5,56(s0)
     622:	cf99                	beqz	a5,640 <_reclaim_reent+0x8a>
     624:	5c5c                	lw	a5,60(s0)
     626:	8522                	mv	a0,s0
     628:	9782                	jalr	a5
     62a:	2e042583          	lw	a1,736(s0)
     62e:	c989                	beqz	a1,640 <_reclaim_reent+0x8a>
     630:	8522                	mv	a0,s0
     632:	4462                	lw	s0,24(sp)
     634:	40f2                	lw	ra,28(sp)
     636:	44d2                	lw	s1,20(sp)
     638:	4942                	lw	s2,16(sp)
     63a:	49b2                	lw	s3,12(sp)
     63c:	6105                	addi	sp,sp,32
     63e:	bfa1                	j	596 <cleanup_glue>
     640:	40f2                	lw	ra,28(sp)
     642:	4462                	lw	s0,24(sp)
     644:	44d2                	lw	s1,20(sp)
     646:	4942                	lw	s2,16(sp)
     648:	49b2                	lw	s3,12(sp)
     64a:	6105                	addi	sp,sp,32
     64c:	8082                	ret
     64e:	8082                	ret

00000650 <strlen>:
     650:	87aa                	mv	a5,a0
     652:	0785                	addi	a5,a5,1
     654:	fff7c703          	lbu	a4,-1(a5) # ffffdfff <pulp__FC+0xffffe000>
     658:	ff6d                	bnez	a4,652 <strlen+0x2>
     65a:	40a78533          	sub	a0,a5,a0
     65e:	157d                	addi	a0,a0,-1
     660:	8082                	ret

00000662 <__register_exitproc>:
     662:	0341a703          	lw	a4,52(gp) # 20083c <_global_impure_ptr>
     666:	832a                	mv	t1,a0
     668:	14872783          	lw	a5,328(a4)
     66c:	e789                	bnez	a5,676 <__register_exitproc+0x14>
     66e:	14c70793          	addi	a5,a4,332
     672:	14f72423          	sw	a5,328(a4)
     676:	43d8                	lw	a4,4(a5)
     678:	487d                	li	a6,31
     67a:	557d                	li	a0,-1
     67c:	04e84263          	blt	a6,a4,6c0 <__register_exitproc+0x5e>
     680:	00271893          	slli	a7,a4,0x2
     684:	02030963          	beqz	t1,6b6 <__register_exitproc+0x54>
     688:	01178533          	add	a0,a5,a7
     68c:	08c52423          	sw	a2,136(a0) # 200088 <__DATA_BEGIN__+0x80>
     690:	1887a803          	lw	a6,392(a5)
     694:	4605                	li	a2,1
     696:	00e61633          	sll	a2,a2,a4
     69a:	00c86833          	or	a6,a6,a2
     69e:	1907a423          	sw	a6,392(a5)
     6a2:	10d52423          	sw	a3,264(a0)
     6a6:	4689                	li	a3,2
     6a8:	00d31763          	bne	t1,a3,6b6 <__register_exitproc+0x54>
     6ac:	18c7a683          	lw	a3,396(a5)
     6b0:	8e55                	or	a2,a2,a3
     6b2:	18c7a623          	sw	a2,396(a5)
     6b6:	0705                	addi	a4,a4,1
     6b8:	c3d8                	sw	a4,4(a5)
     6ba:	97c6                	add	a5,a5,a7
     6bc:	c78c                	sw	a1,8(a5)
     6be:	4501                	li	a0,0
     6c0:	8082                	ret

000006c2 <__call_exitprocs>:
     6c2:	7179                	addi	sp,sp,-48
     6c4:	ce4e                	sw	s3,28(sp)
     6c6:	0341a983          	lw	s3,52(gp) # 20083c <_global_impure_ptr>
     6ca:	cc52                	sw	s4,24(sp)
     6cc:	ca56                	sw	s5,20(sp)
     6ce:	c85a                	sw	s6,16(sp)
     6d0:	d606                	sw	ra,44(sp)
     6d2:	d422                	sw	s0,40(sp)
     6d4:	d226                	sw	s1,36(sp)
     6d6:	d04a                	sw	s2,32(sp)
     6d8:	c65e                	sw	s7,12(sp)
     6da:	8aaa                	mv	s5,a0
     6dc:	8a2e                	mv	s4,a1
     6de:	4b05                	li	s6,1
     6e0:	1489a483          	lw	s1,328(s3)
     6e4:	c881                	beqz	s1,6f4 <__call_exitprocs+0x32>
     6e6:	40c0                	lw	s0,4(s1)
     6e8:	fff40913          	addi	s2,s0,-1
     6ec:	040a                	slli	s0,s0,0x2
     6ee:	9426                	add	s0,s0,s1
     6f0:	00095d63          	bgez	s2,70a <__call_exitprocs+0x48>
     6f4:	50b2                	lw	ra,44(sp)
     6f6:	5422                	lw	s0,40(sp)
     6f8:	5492                	lw	s1,36(sp)
     6fa:	5902                	lw	s2,32(sp)
     6fc:	49f2                	lw	s3,28(sp)
     6fe:	4a62                	lw	s4,24(sp)
     700:	4ad2                	lw	s5,20(sp)
     702:	4b42                	lw	s6,16(sp)
     704:	4bb2                	lw	s7,12(sp)
     706:	6145                	addi	sp,sp,48
     708:	8082                	ret
     70a:	000a0963          	beqz	s4,71c <__call_exitprocs+0x5a>
     70e:	10442783          	lw	a5,260(s0)
     712:	01478563          	beq	a5,s4,71c <__call_exitprocs+0x5a>
     716:	197d                	addi	s2,s2,-1
     718:	1471                	addi	s0,s0,-4
     71a:	bfd9                	j	6f0 <__call_exitprocs+0x2e>
     71c:	40d8                	lw	a4,4(s1)
     71e:	405c                	lw	a5,4(s0)
     720:	177d                	addi	a4,a4,-1
     722:	03271663          	bne	a4,s2,74e <__call_exitprocs+0x8c>
     726:	0124a223          	sw	s2,4(s1)
     72a:	d7f5                	beqz	a5,716 <__call_exitprocs+0x54>
     72c:	1884a683          	lw	a3,392(s1)
     730:	012b1733          	sll	a4,s6,s2
     734:	0044ab83          	lw	s7,4(s1)
     738:	8ef9                	and	a3,a3,a4
     73a:	ee89                	bnez	a3,754 <__call_exitprocs+0x92>
     73c:	9782                	jalr	a5
     73e:	40d8                	lw	a4,4(s1)
     740:	1489a783          	lw	a5,328(s3)
     744:	f9771ee3          	bne	a4,s7,6e0 <__call_exitprocs+0x1e>
     748:	fcf487e3          	beq	s1,a5,716 <__call_exitprocs+0x54>
     74c:	bf51                	j	6e0 <__call_exitprocs+0x1e>
     74e:	00042223          	sw	zero,4(s0)
     752:	bfe1                	j	72a <__call_exitprocs+0x68>
     754:	18c4a683          	lw	a3,396(s1)
     758:	08442583          	lw	a1,132(s0)
     75c:	8f75                	and	a4,a4,a3
     75e:	e701                	bnez	a4,766 <__call_exitprocs+0xa4>
     760:	8556                	mv	a0,s5
     762:	9782                	jalr	a5
     764:	bfe9                	j	73e <__call_exitprocs+0x7c>
     766:	852e                	mv	a0,a1
     768:	9782                	jalr	a5
     76a:	bfd1                	j	73e <__call_exitprocs+0x7c>

0000076c <__fp_lock>:
     76c:	4501                	li	a0,0
     76e:	8082                	ret

00000770 <_cleanup_r>:
     770:	000025b7          	lui	a1,0x2
     774:	a8c58593          	addi	a1,a1,-1396 # 1a8c <_fclose_r>
     778:	7560006f          	j	ece <_fwalk_reent>

0000077c <std.isra.0>:
     77c:	1141                	addi	sp,sp,-16
     77e:	c422                	sw	s0,8(sp)
     780:	c606                	sw	ra,12(sp)
     782:	842a                	mv	s0,a0
     784:	00b51623          	sh	a1,12(a0)
     788:	00c51723          	sh	a2,14(a0)
     78c:	00052023          	sw	zero,0(a0)
     790:	00052223          	sw	zero,4(a0)
     794:	00052423          	sw	zero,8(a0)
     798:	06052223          	sw	zero,100(a0)
     79c:	00052823          	sw	zero,16(a0)
     7a0:	00052a23          	sw	zero,20(a0)
     7a4:	00052c23          	sw	zero,24(a0)
     7a8:	4621                	li	a2,8
     7aa:	4581                	li	a1,0
     7ac:	05c50513          	addi	a0,a0,92
     7b0:	31d9                	jal	476 <memset>
     7b2:	000027b7          	lui	a5,0x2
     7b6:	89a78793          	addi	a5,a5,-1894 # 189a <__sread>
     7ba:	d01c                	sw	a5,32(s0)
     7bc:	000027b7          	lui	a5,0x2
     7c0:	8ce78793          	addi	a5,a5,-1842 # 18ce <__swrite>
     7c4:	d05c                	sw	a5,36(s0)
     7c6:	000027b7          	lui	a5,0x2
     7ca:	91c78793          	addi	a5,a5,-1764 # 191c <__sseek>
     7ce:	d41c                	sw	a5,40(s0)
     7d0:	000027b7          	lui	a5,0x2
     7d4:	95278793          	addi	a5,a5,-1710 # 1952 <__sclose>
     7d8:	cc40                	sw	s0,28(s0)
     7da:	d45c                	sw	a5,44(s0)
     7dc:	40b2                	lw	ra,12(sp)
     7de:	4422                	lw	s0,8(sp)
     7e0:	0141                	addi	sp,sp,16
     7e2:	8082                	ret

000007e4 <__fp_unlock>:
     7e4:	4501                	li	a0,0
     7e6:	8082                	ret

000007e8 <__sfmoreglue>:
     7e8:	1141                	addi	sp,sp,-16
     7ea:	c226                	sw	s1,4(sp)
     7ec:	06800613          	li	a2,104
     7f0:	fff58493          	addi	s1,a1,-1
     7f4:	02c484b3          	mul	s1,s1,a2
     7f8:	c04a                	sw	s2,0(sp)
     7fa:	892e                	mv	s2,a1
     7fc:	c422                	sw	s0,8(sp)
     7fe:	c606                	sw	ra,12(sp)
     800:	07448593          	addi	a1,s1,116
     804:	736000ef          	jal	ra,f3a <_malloc_r>
     808:	842a                	mv	s0,a0
     80a:	c919                	beqz	a0,820 <__sfmoreglue+0x38>
     80c:	00052023          	sw	zero,0(a0)
     810:	01252223          	sw	s2,4(a0)
     814:	0531                	addi	a0,a0,12
     816:	c408                	sw	a0,8(s0)
     818:	06848613          	addi	a2,s1,104
     81c:	4581                	li	a1,0
     81e:	39a1                	jal	476 <memset>
     820:	8522                	mv	a0,s0
     822:	40b2                	lw	ra,12(sp)
     824:	4422                	lw	s0,8(sp)
     826:	4492                	lw	s1,4(sp)
     828:	4902                	lw	s2,0(sp)
     82a:	0141                	addi	sp,sp,16
     82c:	8082                	ret

0000082e <_cleanup>:
     82e:	0341a503          	lw	a0,52(gp) # 20083c <_global_impure_ptr>
     832:	bf3d                	j	770 <_cleanup_r>

00000834 <__sinit>:
     834:	5d1c                	lw	a5,56(a0)
     836:	e7a9                	bnez	a5,880 <__sinit+0x4c>
     838:	1141                	addi	sp,sp,-16
     83a:	000007b7          	lui	a5,0x0
     83e:	c606                	sw	ra,12(sp)
     840:	c422                	sw	s0,8(sp)
     842:	77078793          	addi	a5,a5,1904 # 770 <_cleanup_r>
     846:	dd5c                	sw	a5,60(a0)
     848:	478d                	li	a5,3
     84a:	2ef52223          	sw	a5,740(a0)
     84e:	2ec50793          	addi	a5,a0,748
     852:	842a                	mv	s0,a0
     854:	2ef52423          	sw	a5,744(a0)
     858:	2e052023          	sw	zero,736(a0)
     85c:	4148                	lw	a0,4(a0)
     85e:	4601                	li	a2,0
     860:	4591                	li	a1,4
     862:	3f29                	jal	77c <std.isra.0>
     864:	4408                	lw	a0,8(s0)
     866:	4605                	li	a2,1
     868:	45a5                	li	a1,9
     86a:	3f09                	jal	77c <std.isra.0>
     86c:	4448                	lw	a0,12(s0)
     86e:	4609                	li	a2,2
     870:	45c9                	li	a1,18
     872:	3729                	jal	77c <std.isra.0>
     874:	4785                	li	a5,1
     876:	dc1c                	sw	a5,56(s0)
     878:	40b2                	lw	ra,12(sp)
     87a:	4422                	lw	s0,8(sp)
     87c:	0141                	addi	sp,sp,16
     87e:	8082                	ret
     880:	8082                	ret

00000882 <__sfp>:
     882:	1141                	addi	sp,sp,-16
     884:	c226                	sw	s1,4(sp)
     886:	0341a483          	lw	s1,52(gp) # 20083c <_global_impure_ptr>
     88a:	c04a                	sw	s2,0(sp)
     88c:	c606                	sw	ra,12(sp)
     88e:	5c9c                	lw	a5,56(s1)
     890:	c422                	sw	s0,8(sp)
     892:	892a                	mv	s2,a0
     894:	e399                	bnez	a5,89a <__sfp+0x18>
     896:	8526                	mv	a0,s1
     898:	3f71                	jal	834 <__sinit>
     89a:	2e048493          	addi	s1,s1,736
     89e:	4480                	lw	s0,8(s1)
     8a0:	40dc                	lw	a5,4(s1)
     8a2:	17fd                	addi	a5,a5,-1
     8a4:	0007d663          	bgez	a5,8b0 <__sfp+0x2e>
     8a8:	409c                	lw	a5,0(s1)
     8aa:	cb89                	beqz	a5,8bc <__sfp+0x3a>
     8ac:	4084                	lw	s1,0(s1)
     8ae:	bfc5                	j	89e <__sfp+0x1c>
     8b0:	00c41703          	lh	a4,12(s0)
     8b4:	c705                	beqz	a4,8dc <__sfp+0x5a>
     8b6:	06840413          	addi	s0,s0,104
     8ba:	b7e5                	j	8a2 <__sfp+0x20>
     8bc:	4591                	li	a1,4
     8be:	854a                	mv	a0,s2
     8c0:	3725                	jal	7e8 <__sfmoreglue>
     8c2:	c088                	sw	a0,0(s1)
     8c4:	f565                	bnez	a0,8ac <__sfp+0x2a>
     8c6:	47b1                	li	a5,12
     8c8:	00f92023          	sw	a5,0(s2)
     8cc:	4401                	li	s0,0
     8ce:	8522                	mv	a0,s0
     8d0:	40b2                	lw	ra,12(sp)
     8d2:	4422                	lw	s0,8(sp)
     8d4:	4492                	lw	s1,4(sp)
     8d6:	4902                	lw	s2,0(sp)
     8d8:	0141                	addi	sp,sp,16
     8da:	8082                	ret
     8dc:	77c1                	lui	a5,0xffff0
     8de:	0785                	addi	a5,a5,1
     8e0:	06042223          	sw	zero,100(s0)
     8e4:	00042023          	sw	zero,0(s0)
     8e8:	00042223          	sw	zero,4(s0)
     8ec:	00042423          	sw	zero,8(s0)
     8f0:	c45c                	sw	a5,12(s0)
     8f2:	00042823          	sw	zero,16(s0)
     8f6:	00042a23          	sw	zero,20(s0)
     8fa:	00042c23          	sw	zero,24(s0)
     8fe:	4621                	li	a2,8
     900:	4581                	li	a1,0
     902:	05c40513          	addi	a0,s0,92
     906:	3e85                	jal	476 <memset>
     908:	02042823          	sw	zero,48(s0)
     90c:	02042a23          	sw	zero,52(s0)
     910:	04042223          	sw	zero,68(s0)
     914:	04042423          	sw	zero,72(s0)
     918:	bf5d                	j	8ce <__sfp+0x4c>

0000091a <__sfp_lock_acquire>:
     91a:	8082                	ret

0000091c <__sfp_lock_release>:
     91c:	8082                	ret

0000091e <__sinit_lock_acquire>:
     91e:	8082                	ret

00000920 <__sinit_lock_release>:
     920:	8082                	ret

00000922 <__fp_lock_all>:
     922:	0381a503          	lw	a0,56(gp) # 200840 <_impure_ptr>
     926:	000005b7          	lui	a1,0x0
     92a:	76c58593          	addi	a1,a1,1900 # 76c <__fp_lock>
     92e:	ab3d                	j	e6c <_fwalk>

00000930 <__fp_unlock_all>:
     930:	0381a503          	lw	a0,56(gp) # 200840 <_impure_ptr>
     934:	000005b7          	lui	a1,0x0
     938:	7e458593          	addi	a1,a1,2020 # 7e4 <__fp_unlock>
     93c:	ab05                	j	e6c <_fwalk>

0000093e <_malloc_trim_r>:
     93e:	7179                	addi	sp,sp,-48
     940:	d04a                	sw	s2,32(sp)
     942:	d422                	sw	s0,40(sp)
     944:	d226                	sw	s1,36(sp)
     946:	ce4e                	sw	s3,28(sp)
     948:	c62e                	sw	a1,12(sp)
     94a:	d606                	sw	ra,44(sp)
     94c:	89aa                	mv	s3,a0
     94e:	c2818913          	addi	s2,gp,-984 # 200430 <__malloc_av_>
     952:	38b000ef          	jal	ra,14dc <__malloc_lock>
     956:	00892783          	lw	a5,8(s2)
     95a:	45b2                	lw	a1,12(sp)
     95c:	43c4                	lw	s1,4(a5)
     95e:	6785                	lui	a5,0x1
     960:	fef78413          	addi	s0,a5,-17 # fef <_malloc_r+0xb5>
     964:	98f1                	andi	s1,s1,-4
     966:	8c0d                	sub	s0,s0,a1
     968:	9426                	add	s0,s0,s1
     96a:	8031                	srli	s0,s0,0xc
     96c:	147d                	addi	s0,s0,-1
     96e:	0432                	slli	s0,s0,0xc
     970:	00f45d63          	ble	a5,s0,98a <_malloc_trim_r+0x4c>
     974:	854e                	mv	a0,s3
     976:	369000ef          	jal	ra,14de <__malloc_unlock>
     97a:	4501                	li	a0,0
     97c:	50b2                	lw	ra,44(sp)
     97e:	5422                	lw	s0,40(sp)
     980:	5492                	lw	s1,36(sp)
     982:	5902                	lw	s2,32(sp)
     984:	49f2                	lw	s3,28(sp)
     986:	6145                	addi	sp,sp,48
     988:	8082                	ret
     98a:	4581                	li	a1,0
     98c:	854e                	mv	a0,s3
     98e:	6e1000ef          	jal	ra,186e <_sbrk_r>
     992:	00892783          	lw	a5,8(s2)
     996:	97a6                	add	a5,a5,s1
     998:	fcf51ee3          	bne	a0,a5,974 <_malloc_trim_r+0x36>
     99c:	408005b3          	neg	a1,s0
     9a0:	854e                	mv	a0,s3
     9a2:	6cd000ef          	jal	ra,186e <_sbrk_r>
     9a6:	57fd                	li	a5,-1
     9a8:	02f51663          	bne	a0,a5,9d4 <_malloc_trim_r+0x96>
     9ac:	4581                	li	a1,0
     9ae:	854e                	mv	a0,s3
     9b0:	6bf000ef          	jal	ra,186e <_sbrk_r>
     9b4:	00892703          	lw	a4,8(s2)
     9b8:	46bd                	li	a3,15
     9ba:	40e507b3          	sub	a5,a0,a4
     9be:	faf6dbe3          	ble	a5,a3,974 <_malloc_trim_r+0x36>
     9c2:	03c1a683          	lw	a3,60(gp) # 200844 <__malloc_sbrk_base>
     9c6:	0017e793          	ori	a5,a5,1
     9ca:	c35c                	sw	a5,4(a4)
     9cc:	8d15                	sub	a0,a0,a3
     9ce:	04a1a823          	sw	a0,80(gp) # 200858 <__malloc_current_mallinfo>
     9d2:	b74d                	j	974 <_malloc_trim_r+0x36>
     9d4:	00892783          	lw	a5,8(s2)
     9d8:	8c81                	sub	s1,s1,s0
     9da:	0014e493          	ori	s1,s1,1
     9de:	c3c4                	sw	s1,4(a5)
     9e0:	0501a783          	lw	a5,80(gp) # 200858 <__malloc_current_mallinfo>
     9e4:	854e                	mv	a0,s3
     9e6:	40878433          	sub	s0,a5,s0
     9ea:	0481a823          	sw	s0,80(gp) # 200858 <__malloc_current_mallinfo>
     9ee:	2f1000ef          	jal	ra,14de <__malloc_unlock>
     9f2:	4505                	li	a0,1
     9f4:	b761                	j	97c <_malloc_trim_r+0x3e>

000009f6 <_free_r>:
     9f6:	18058e63          	beqz	a1,b92 <_free_r+0x19c>
     9fa:	1141                	addi	sp,sp,-16
     9fc:	c422                	sw	s0,8(sp)
     9fe:	c226                	sw	s1,4(sp)
     a00:	842a                	mv	s0,a0
     a02:	84ae                	mv	s1,a1
     a04:	c606                	sw	ra,12(sp)
     a06:	2d7000ef          	jal	ra,14dc <__malloc_lock>
     a0a:	ffc4a503          	lw	a0,-4(s1)
     a0e:	ff848693          	addi	a3,s1,-8
     a12:	ffe57793          	andi	a5,a0,-2
     a16:	c2818813          	addi	a6,gp,-984 # 200430 <__malloc_av_>
     a1a:	00f685b3          	add	a1,a3,a5
     a1e:	41d8                	lw	a4,4(a1)
     a20:	00882803          	lw	a6,8(a6)
     a24:	c2818613          	addi	a2,gp,-984 # 200430 <__malloc_av_>
     a28:	9b71                	andi	a4,a4,-4
     a2a:	8905                	andi	a0,a0,1
     a2c:	02b81f63          	bne	a6,a1,a6a <_free_r+0x74>
     a30:	97ba                	add	a5,a5,a4
     a32:	e909                	bnez	a0,a44 <_free_r+0x4e>
     a34:	ff84a703          	lw	a4,-8(s1)
     a38:	8e99                	sub	a3,a3,a4
     a3a:	468c                	lw	a1,8(a3)
     a3c:	97ba                	add	a5,a5,a4
     a3e:	46d8                	lw	a4,12(a3)
     a40:	c5d8                	sw	a4,12(a1)
     a42:	c70c                	sw	a1,8(a4)
     a44:	0017e713          	ori	a4,a5,1
     a48:	c2d8                	sw	a4,4(a3)
     a4a:	0401a703          	lw	a4,64(gp) # 200848 <__malloc_trim_threshold>
     a4e:	c614                	sw	a3,8(a2)
     a50:	00e7e663          	bltu	a5,a4,a5c <_free_r+0x66>
     a54:	04c1a583          	lw	a1,76(gp) # 200854 <__malloc_top_pad>
     a58:	8522                	mv	a0,s0
     a5a:	35d5                	jal	93e <_malloc_trim_r>
     a5c:	8522                	mv	a0,s0
     a5e:	4422                	lw	s0,8(sp)
     a60:	40b2                	lw	ra,12(sp)
     a62:	4492                	lw	s1,4(sp)
     a64:	0141                	addi	sp,sp,16
     a66:	2790006f          	j	14de <__malloc_unlock>
     a6a:	c1d8                	sw	a4,4(a1)
     a6c:	4801                	li	a6,0
     a6e:	e105                	bnez	a0,a8e <_free_r+0x98>
     a70:	ff84a503          	lw	a0,-8(s1)
     a74:	c3018893          	addi	a7,gp,-976 # 200438 <__malloc_av_+0x8>
     a78:	8e89                	sub	a3,a3,a0
     a7a:	97aa                	add	a5,a5,a0
     a7c:	4688                	lw	a0,8(a3)
     a7e:	07150a63          	beq	a0,a7,af2 <_free_r+0xfc>
     a82:	00c6a883          	lw	a7,12(a3) # 200c <__TEST_RODATA_END+0x98>
     a86:	01152623          	sw	a7,12(a0)
     a8a:	00a8a423          	sw	a0,8(a7)
     a8e:	00e58533          	add	a0,a1,a4
     a92:	4148                	lw	a0,4(a0)
     a94:	8905                	andi	a0,a0,1
     a96:	ed11                	bnez	a0,ab2 <_free_r+0xbc>
     a98:	97ba                	add	a5,a5,a4
     a9a:	4598                	lw	a4,8(a1)
     a9c:	04081d63          	bnez	a6,af6 <_free_r+0x100>
     aa0:	c3018513          	addi	a0,gp,-976 # 200438 <__malloc_av_+0x8>
     aa4:	04a71963          	bne	a4,a0,af6 <_free_r+0x100>
     aa8:	ca54                	sw	a3,20(a2)
     aaa:	ca14                	sw	a3,16(a2)
     aac:	c6d8                	sw	a4,12(a3)
     aae:	c698                	sw	a4,8(a3)
     ab0:	4805                	li	a6,1
     ab2:	0017e713          	ori	a4,a5,1
     ab6:	c2d8                	sw	a4,4(a3)
     ab8:	00f68733          	add	a4,a3,a5
     abc:	c31c                	sw	a5,0(a4)
     abe:	f8081fe3          	bnez	a6,a5c <_free_r+0x66>
     ac2:	1ff00713          	li	a4,511
     ac6:	02f76c63          	bltu	a4,a5,afe <_free_r+0x108>
     aca:	838d                	srli	a5,a5,0x3
     acc:	4027d593          	srai	a1,a5,0x2
     ad0:	4705                	li	a4,1
     ad2:	00b71733          	sll	a4,a4,a1
     ad6:	424c                	lw	a1,4(a2)
     ad8:	0785                	addi	a5,a5,1
     ada:	078e                	slli	a5,a5,0x3
     adc:	97b2                	add	a5,a5,a2
     ade:	8f4d                	or	a4,a4,a1
     ae0:	c258                	sw	a4,4(a2)
     ae2:	4398                	lw	a4,0(a5)
     ae4:	ff878613          	addi	a2,a5,-8
     ae8:	c6d0                	sw	a2,12(a3)
     aea:	c698                	sw	a4,8(a3)
     aec:	c394                	sw	a3,0(a5)
     aee:	c754                	sw	a3,12(a4)
     af0:	b7b5                	j	a5c <_free_r+0x66>
     af2:	4805                	li	a6,1
     af4:	bf69                	j	a8e <_free_r+0x98>
     af6:	45cc                	lw	a1,12(a1)
     af8:	c74c                	sw	a1,12(a4)
     afa:	c598                	sw	a4,8(a1)
     afc:	bf5d                	j	ab2 <_free_r+0xbc>
     afe:	0097d593          	srli	a1,a5,0x9
     b02:	4711                	li	a4,4
     b04:	02b76b63          	bltu	a4,a1,b3a <_free_r+0x144>
     b08:	0067d713          	srli	a4,a5,0x6
     b0c:	03870713          	addi	a4,a4,56
     b10:	00170593          	addi	a1,a4,1
     b14:	058e                	slli	a1,a1,0x3
     b16:	95b2                	add	a1,a1,a2
     b18:	ff858513          	addi	a0,a1,-8
     b1c:	418c                	lw	a1,0(a1)
     b1e:	06b51463          	bne	a0,a1,b86 <_free_r+0x190>
     b22:	4785                	li	a5,1
     b24:	8709                	srai	a4,a4,0x2
     b26:	00e79733          	sll	a4,a5,a4
     b2a:	425c                	lw	a5,4(a2)
     b2c:	8f5d                	or	a4,a4,a5
     b2e:	c258                	sw	a4,4(a2)
     b30:	c6c8                	sw	a0,12(a3)
     b32:	c68c                	sw	a1,8(a3)
     b34:	c514                	sw	a3,8(a0)
     b36:	c5d4                	sw	a3,12(a1)
     b38:	b715                	j	a5c <_free_r+0x66>
     b3a:	4751                	li	a4,20
     b3c:	00b76563          	bltu	a4,a1,b46 <_free_r+0x150>
     b40:	05b58713          	addi	a4,a1,91
     b44:	b7f1                	j	b10 <_free_r+0x11a>
     b46:	05400713          	li	a4,84
     b4a:	00b76763          	bltu	a4,a1,b58 <_free_r+0x162>
     b4e:	00c7d713          	srli	a4,a5,0xc
     b52:	06e70713          	addi	a4,a4,110
     b56:	bf6d                	j	b10 <_free_r+0x11a>
     b58:	15400713          	li	a4,340
     b5c:	00b76763          	bltu	a4,a1,b6a <_free_r+0x174>
     b60:	00f7d713          	srli	a4,a5,0xf
     b64:	07770713          	addi	a4,a4,119
     b68:	b765                	j	b10 <_free_r+0x11a>
     b6a:	55400513          	li	a0,1364
     b6e:	07e00713          	li	a4,126
     b72:	f8b56fe3          	bltu	a0,a1,b10 <_free_r+0x11a>
     b76:	0127d713          	srli	a4,a5,0x12
     b7a:	07c70713          	addi	a4,a4,124
     b7e:	bf49                	j	b10 <_free_r+0x11a>
     b80:	458c                	lw	a1,8(a1)
     b82:	00b50663          	beq	a0,a1,b8e <_free_r+0x198>
     b86:	41d8                	lw	a4,4(a1)
     b88:	9b71                	andi	a4,a4,-4
     b8a:	fee7ebe3          	bltu	a5,a4,b80 <_free_r+0x18a>
     b8e:	45c8                	lw	a0,12(a1)
     b90:	b745                	j	b30 <_free_r+0x13a>
     b92:	8082                	ret

00000b94 <__sfvwrite_r>:
     b94:	461c                	lw	a5,8(a2)
     b96:	e781                	bnez	a5,b9e <__sfvwrite_r+0xa>
     b98:	4781                	li	a5,0
     b9a:	853e                	mv	a0,a5
     b9c:	8082                	ret
     b9e:	00c5d783          	lhu	a5,12(a1)
     ba2:	715d                	addi	sp,sp,-80
     ba4:	c4a2                	sw	s0,72(sp)
     ba6:	c0ca                	sw	s2,64(sp)
     ba8:	da56                	sw	s5,52(sp)
     baa:	c686                	sw	ra,76(sp)
     bac:	c2a6                	sw	s1,68(sp)
     bae:	de4e                	sw	s3,60(sp)
     bb0:	dc52                	sw	s4,56(sp)
     bb2:	d85a                	sw	s6,48(sp)
     bb4:	d65e                	sw	s7,44(sp)
     bb6:	d462                	sw	s8,40(sp)
     bb8:	d266                	sw	s9,36(sp)
     bba:	d06a                	sw	s10,32(sp)
     bbc:	ce6e                	sw	s11,28(sp)
     bbe:	8ba1                	andi	a5,a5,8
     bc0:	8ab2                	mv	s5,a2
     bc2:	842e                	mv	s0,a1
     bc4:	892a                	mv	s2,a0
     bc6:	cfd9                	beqz	a5,c64 <__sfvwrite_r+0xd0>
     bc8:	499c                	lw	a5,16(a1)
     bca:	cfc9                	beqz	a5,c64 <__sfvwrite_r+0xd0>
     bcc:	00c45783          	lhu	a5,12(s0)
     bd0:	000aaa03          	lw	s4,0(s5)
     bd4:	0027f713          	andi	a4,a5,2
     bd8:	0e071863          	bnez	a4,cc8 <__sfvwrite_r+0x134>
     bdc:	8b85                	andi	a5,a5,1
     bde:	16078063          	beqz	a5,d3e <__sfvwrite_r+0x1aa>
     be2:	4b81                	li	s7,0
     be4:	4501                	li	a0,0
     be6:	4b01                	li	s6,0
     be8:	4981                	li	s3,0
     bea:	24098363          	beqz	s3,e30 <__sfvwrite_r+0x29c>
     bee:	ed01                	bnez	a0,c06 <__sfvwrite_r+0x72>
     bf0:	864e                	mv	a2,s3
     bf2:	45a9                	li	a1,10
     bf4:	855a                	mv	a0,s6
     bf6:	7d0000ef          	jal	ra,13c6 <memchr>
     bfa:	00198b93          	addi	s7,s3,1
     bfe:	c501                	beqz	a0,c06 <__sfvwrite_r+0x72>
     c00:	0505                	addi	a0,a0,1
     c02:	41650bb3          	sub	s7,a0,s6
     c06:	8c5e                	mv	s8,s7
     c08:	0179f363          	bleu	s7,s3,c0e <__sfvwrite_r+0x7a>
     c0c:	8c4e                	mv	s8,s3
     c0e:	4008                	lw	a0,0(s0)
     c10:	481c                	lw	a5,16(s0)
     c12:	4854                	lw	a3,20(s0)
     c14:	22a7f563          	bleu	a0,a5,e3e <__sfvwrite_r+0x2aa>
     c18:	4404                	lw	s1,8(s0)
     c1a:	94b6                	add	s1,s1,a3
     c1c:	2384d163          	ble	s8,s1,e3e <__sfvwrite_r+0x2aa>
     c20:	85da                	mv	a1,s6
     c22:	8626                	mv	a2,s1
     c24:	07b000ef          	jal	ra,149e <memmove>
     c28:	401c                	lw	a5,0(s0)
     c2a:	85a2                	mv	a1,s0
     c2c:	854a                	mv	a0,s2
     c2e:	97a6                	add	a5,a5,s1
     c30:	c01c                	sw	a5,0(s0)
     c32:	04a010ef          	jal	ra,1c7c <_fflush_r>
     c36:	0e051c63          	bnez	a0,d2e <__sfvwrite_r+0x19a>
     c3a:	409b8bb3          	sub	s7,s7,s1
     c3e:	4505                	li	a0,1
     c40:	000b9763          	bnez	s7,c4e <__sfvwrite_r+0xba>
     c44:	85a2                	mv	a1,s0
     c46:	854a                	mv	a0,s2
     c48:	034010ef          	jal	ra,1c7c <_fflush_r>
     c4c:	e16d                	bnez	a0,d2e <__sfvwrite_r+0x19a>
     c4e:	008aa783          	lw	a5,8(s5)
     c52:	9b26                	add	s6,s6,s1
     c54:	409989b3          	sub	s3,s3,s1
     c58:	409784b3          	sub	s1,a5,s1
     c5c:	009aa423          	sw	s1,8(s5)
     c60:	f4c9                	bnez	s1,bea <__sfvwrite_r+0x56>
     c62:	a091                	j	ca6 <__sfvwrite_r+0x112>
     c64:	85a2                	mv	a1,s0
     c66:	854a                	mv	a0,s2
     c68:	521000ef          	jal	ra,1988 <__swsetup_r>
     c6c:	57fd                	li	a5,-1
     c6e:	dd39                	beqz	a0,bcc <__sfvwrite_r+0x38>
     c70:	a825                	j	ca8 <__sfvwrite_r+0x114>
     c72:	000a2983          	lw	s3,0(s4)
     c76:	004a2483          	lw	s1,4(s4)
     c7a:	0a21                	addi	s4,s4,8
     c7c:	d8fd                	beqz	s1,c72 <__sfvwrite_r+0xde>
     c7e:	86a6                	mv	a3,s1
     c80:	009b7363          	bleu	s1,s6,c86 <__sfvwrite_r+0xf2>
     c84:	86da                	mv	a3,s6
     c86:	505c                	lw	a5,36(s0)
     c88:	4c4c                	lw	a1,28(s0)
     c8a:	864e                	mv	a2,s3
     c8c:	854a                	mv	a0,s2
     c8e:	9782                	jalr	a5
     c90:	08a05f63          	blez	a0,d2e <__sfvwrite_r+0x19a>
     c94:	008aa783          	lw	a5,8(s5)
     c98:	99aa                	add	s3,s3,a0
     c9a:	8c89                	sub	s1,s1,a0
     c9c:	40a78533          	sub	a0,a5,a0
     ca0:	00aaa423          	sw	a0,8(s5)
     ca4:	fd61                	bnez	a0,c7c <__sfvwrite_r+0xe8>
     ca6:	4781                	li	a5,0
     ca8:	40b6                	lw	ra,76(sp)
     caa:	4426                	lw	s0,72(sp)
     cac:	4496                	lw	s1,68(sp)
     cae:	4906                	lw	s2,64(sp)
     cb0:	59f2                	lw	s3,60(sp)
     cb2:	5a62                	lw	s4,56(sp)
     cb4:	5ad2                	lw	s5,52(sp)
     cb6:	5b42                	lw	s6,48(sp)
     cb8:	5bb2                	lw	s7,44(sp)
     cba:	5c22                	lw	s8,40(sp)
     cbc:	5c92                	lw	s9,36(sp)
     cbe:	5d02                	lw	s10,32(sp)
     cc0:	4df2                	lw	s11,28(sp)
     cc2:	853e                	mv	a0,a5
     cc4:	6161                	addi	sp,sp,80
     cc6:	8082                	ret
     cc8:	80000b37          	lui	s6,0x80000
     ccc:	4981                	li	s3,0
     cce:	4481                	li	s1,0
     cd0:	c00b4b13          	xori	s6,s6,-1024
     cd4:	b765                	j	c7c <__sfvwrite_r+0xe8>
     cd6:	000a2b03          	lw	s6,0(s4)
     cda:	004a2483          	lw	s1,4(s4)
     cde:	0a21                	addi	s4,s4,8
     ce0:	d8fd                	beqz	s1,cd6 <__sfvwrite_r+0x142>
     ce2:	00c45703          	lhu	a4,12(s0)
     ce6:	441c                	lw	a5,8(s0)
     ce8:	4008                	lw	a0,0(s0)
     cea:	20077693          	andi	a3,a4,512
     cee:	0e068563          	beqz	a3,dd8 <__sfvwrite_r+0x244>
     cf2:	08f4e863          	bltu	s1,a5,d82 <__sfvwrite_r+0x1ee>
     cf6:	48077693          	andi	a3,a4,1152
     cfa:	c6c1                	beqz	a3,d82 <__sfvwrite_r+0x1ee>
     cfc:	01442d83          	lw	s11,20(s0)
     d00:	480c                	lw	a1,16(s0)
     d02:	03bc8db3          	mul	s11,s9,s11
     d06:	40b509b3          	sub	s3,a0,a1
     d0a:	00198793          	addi	a5,s3,1
     d0e:	97a6                	add	a5,a5,s1
     d10:	03adcdb3          	div	s11,s11,s10
     d14:	00fdf363          	bleu	a5,s11,d1a <__sfvwrite_r+0x186>
     d18:	8dbe                	mv	s11,a5
     d1a:	40077713          	andi	a4,a4,1024
     d1e:	cf51                	beqz	a4,dba <__sfvwrite_r+0x226>
     d20:	85ee                	mv	a1,s11
     d22:	854a                	mv	a0,s2
     d24:	2c19                	jal	f3a <_malloc_r>
     d26:	e51d                	bnez	a0,d54 <__sfvwrite_r+0x1c0>
     d28:	47b1                	li	a5,12
     d2a:	00f92023          	sw	a5,0(s2)
     d2e:	00c45783          	lhu	a5,12(s0)
     d32:	0407e793          	ori	a5,a5,64
     d36:	00f41623          	sh	a5,12(s0)
     d3a:	57fd                	li	a5,-1
     d3c:	b7b5                	j	ca8 <__sfvwrite_r+0x114>
     d3e:	80000bb7          	lui	s7,0x80000
     d42:	ffebcc13          	xori	s8,s7,-2
     d46:	4b01                	li	s6,0
     d48:	4481                	li	s1,0
     d4a:	fffbcb93          	not	s7,s7
     d4e:	4c8d                	li	s9,3
     d50:	4d09                	li	s10,2
     d52:	b779                	j	ce0 <__sfvwrite_r+0x14c>
     d54:	480c                	lw	a1,16(s0)
     d56:	864e                	mv	a2,s3
     d58:	c62a                	sw	a0,12(sp)
     d5a:	2559                	jal	13e0 <memcpy>
     d5c:	00c45703          	lhu	a4,12(s0)
     d60:	47b2                	lw	a5,12(sp)
     d62:	b7f77713          	andi	a4,a4,-1153
     d66:	08076713          	ori	a4,a4,128
     d6a:	00e41623          	sh	a4,12(s0)
     d6e:	c81c                	sw	a5,16(s0)
     d70:	01b42a23          	sw	s11,20(s0)
     d74:	97ce                	add	a5,a5,s3
     d76:	413d8db3          	sub	s11,s11,s3
     d7a:	c01c                	sw	a5,0(s0)
     d7c:	01b42423          	sw	s11,8(s0)
     d80:	87a6                	mv	a5,s1
     d82:	89a6                	mv	s3,s1
     d84:	00f4f363          	bleu	a5,s1,d8a <__sfvwrite_r+0x1f6>
     d88:	87a6                	mv	a5,s1
     d8a:	4008                	lw	a0,0(s0)
     d8c:	863e                	mv	a2,a5
     d8e:	85da                	mv	a1,s6
     d90:	c63e                	sw	a5,12(sp)
     d92:	2731                	jal	149e <memmove>
     d94:	47b2                	lw	a5,12(sp)
     d96:	4418                	lw	a4,8(s0)
     d98:	8f1d                	sub	a4,a4,a5
     d9a:	c418                	sw	a4,8(s0)
     d9c:	4018                	lw	a4,0(s0)
     d9e:	97ba                	add	a5,a5,a4
     da0:	c01c                	sw	a5,0(s0)
     da2:	008aa783          	lw	a5,8(s5)
     da6:	9b4e                	add	s6,s6,s3
     da8:	413484b3          	sub	s1,s1,s3
     dac:	413789b3          	sub	s3,a5,s3
     db0:	013aa423          	sw	s3,8(s5)
     db4:	f20996e3          	bnez	s3,ce0 <__sfvwrite_r+0x14c>
     db8:	b5fd                	j	ca6 <__sfvwrite_r+0x112>
     dba:	866e                	mv	a2,s11
     dbc:	854a                	mv	a0,s2
     dbe:	270d                	jal	14e0 <_realloc_r>
     dc0:	87aa                	mv	a5,a0
     dc2:	f555                	bnez	a0,d6e <__sfvwrite_r+0x1da>
     dc4:	480c                	lw	a1,16(s0)
     dc6:	854a                	mv	a0,s2
     dc8:	313d                	jal	9f6 <_free_r>
     dca:	00c45783          	lhu	a5,12(s0)
     dce:	f7f7f793          	andi	a5,a5,-129
     dd2:	00f41623          	sh	a5,12(s0)
     dd6:	bf89                	j	d28 <__sfvwrite_r+0x194>
     dd8:	4818                	lw	a4,16(s0)
     dda:	00a76563          	bltu	a4,a0,de4 <__sfvwrite_r+0x250>
     dde:	4854                	lw	a3,20(s0)
     de0:	02d4f763          	bleu	a3,s1,e0e <__sfvwrite_r+0x27a>
     de4:	89be                	mv	s3,a5
     de6:	00f4f363          	bleu	a5,s1,dec <__sfvwrite_r+0x258>
     dea:	89a6                	mv	s3,s1
     dec:	864e                	mv	a2,s3
     dee:	85da                	mv	a1,s6
     df0:	257d                	jal	149e <memmove>
     df2:	441c                	lw	a5,8(s0)
     df4:	4018                	lw	a4,0(s0)
     df6:	413787b3          	sub	a5,a5,s3
     dfa:	974e                	add	a4,a4,s3
     dfc:	c41c                	sw	a5,8(s0)
     dfe:	c018                	sw	a4,0(s0)
     e00:	f3cd                	bnez	a5,da2 <__sfvwrite_r+0x20e>
     e02:	85a2                	mv	a1,s0
     e04:	854a                	mv	a0,s2
     e06:	677000ef          	jal	ra,1c7c <_fflush_r>
     e0a:	dd41                	beqz	a0,da2 <__sfvwrite_r+0x20e>
     e0c:	b70d                	j	d2e <__sfvwrite_r+0x19a>
     e0e:	87de                	mv	a5,s7
     e10:	009c6363          	bltu	s8,s1,e16 <__sfvwrite_r+0x282>
     e14:	87a6                	mv	a5,s1
     e16:	02d7c7b3          	div	a5,a5,a3
     e1a:	5058                	lw	a4,36(s0)
     e1c:	4c4c                	lw	a1,28(s0)
     e1e:	865a                	mv	a2,s6
     e20:	854a                	mv	a0,s2
     e22:	02d786b3          	mul	a3,a5,a3
     e26:	9702                	jalr	a4
     e28:	89aa                	mv	s3,a0
     e2a:	f6a04ce3          	bgtz	a0,da2 <__sfvwrite_r+0x20e>
     e2e:	b701                	j	d2e <__sfvwrite_r+0x19a>
     e30:	000a2b03          	lw	s6,0(s4)
     e34:	004a2983          	lw	s3,4(s4)
     e38:	4501                	li	a0,0
     e3a:	0a21                	addi	s4,s4,8
     e3c:	b37d                	j	bea <__sfvwrite_r+0x56>
     e3e:	00dc4b63          	blt	s8,a3,e54 <__sfvwrite_r+0x2c0>
     e42:	505c                	lw	a5,36(s0)
     e44:	4c4c                	lw	a1,28(s0)
     e46:	865a                	mv	a2,s6
     e48:	854a                	mv	a0,s2
     e4a:	9782                	jalr	a5
     e4c:	84aa                	mv	s1,a0
     e4e:	dea046e3          	bgtz	a0,c3a <__sfvwrite_r+0xa6>
     e52:	bdf1                	j	d2e <__sfvwrite_r+0x19a>
     e54:	8662                	mv	a2,s8
     e56:	85da                	mv	a1,s6
     e58:	2599                	jal	149e <memmove>
     e5a:	441c                	lw	a5,8(s0)
     e5c:	84e2                	mv	s1,s8
     e5e:	418787b3          	sub	a5,a5,s8
     e62:	c41c                	sw	a5,8(s0)
     e64:	401c                	lw	a5,0(s0)
     e66:	97e2                	add	a5,a5,s8
     e68:	c01c                	sw	a5,0(s0)
     e6a:	bbc1                	j	c3a <__sfvwrite_r+0xa6>

00000e6c <_fwalk>:
     e6c:	7179                	addi	sp,sp,-48
     e6e:	d422                	sw	s0,40(sp)
     e70:	d04a                	sw	s2,32(sp)
     e72:	cc52                	sw	s4,24(sp)
     e74:	ca56                	sw	s5,20(sp)
     e76:	d606                	sw	ra,44(sp)
     e78:	d226                	sw	s1,36(sp)
     e7a:	ce4e                	sw	s3,28(sp)
     e7c:	2e050413          	addi	s0,a0,736
     e80:	4901                	li	s2,0
     e82:	4a05                	li	s4,1
     e84:	5afd                	li	s5,-1
     e86:	e819                	bnez	s0,e9c <_fwalk+0x30>
     e88:	50b2                	lw	ra,44(sp)
     e8a:	5422                	lw	s0,40(sp)
     e8c:	854a                	mv	a0,s2
     e8e:	5492                	lw	s1,36(sp)
     e90:	5902                	lw	s2,32(sp)
     e92:	49f2                	lw	s3,28(sp)
     e94:	4a62                	lw	s4,24(sp)
     e96:	4ad2                	lw	s5,20(sp)
     e98:	6145                	addi	sp,sp,48
     e9a:	8082                	ret
     e9c:	4404                	lw	s1,8(s0)
     e9e:	00442983          	lw	s3,4(s0)
     ea2:	19fd                	addi	s3,s3,-1
     ea4:	0009d463          	bgez	s3,eac <_fwalk+0x40>
     ea8:	4000                	lw	s0,0(s0)
     eaa:	bff1                	j	e86 <_fwalk+0x1a>
     eac:	00c4d783          	lhu	a5,12(s1)
     eb0:	00fa7c63          	bleu	a5,s4,ec8 <_fwalk+0x5c>
     eb4:	00e49783          	lh	a5,14(s1)
     eb8:	01578863          	beq	a5,s5,ec8 <_fwalk+0x5c>
     ebc:	c62e                	sw	a1,12(sp)
     ebe:	8526                	mv	a0,s1
     ec0:	9582                	jalr	a1
     ec2:	45b2                	lw	a1,12(sp)
     ec4:	00a96933          	or	s2,s2,a0
     ec8:	06848493          	addi	s1,s1,104
     ecc:	bfd9                	j	ea2 <_fwalk+0x36>

00000ece <_fwalk_reent>:
     ece:	7179                	addi	sp,sp,-48
     ed0:	d422                	sw	s0,40(sp)
     ed2:	d04a                	sw	s2,32(sp)
     ed4:	cc52                	sw	s4,24(sp)
     ed6:	ca56                	sw	s5,20(sp)
     ed8:	c85a                	sw	s6,16(sp)
     eda:	c65e                	sw	s7,12(sp)
     edc:	d606                	sw	ra,44(sp)
     ede:	d226                	sw	s1,36(sp)
     ee0:	ce4e                	sw	s3,28(sp)
     ee2:	8a2a                	mv	s4,a0
     ee4:	8aae                	mv	s5,a1
     ee6:	2e050413          	addi	s0,a0,736
     eea:	4901                	li	s2,0
     eec:	4b05                	li	s6,1
     eee:	5bfd                	li	s7,-1
     ef0:	ec09                	bnez	s0,f0a <_fwalk_reent+0x3c>
     ef2:	50b2                	lw	ra,44(sp)
     ef4:	5422                	lw	s0,40(sp)
     ef6:	854a                	mv	a0,s2
     ef8:	5492                	lw	s1,36(sp)
     efa:	5902                	lw	s2,32(sp)
     efc:	49f2                	lw	s3,28(sp)
     efe:	4a62                	lw	s4,24(sp)
     f00:	4ad2                	lw	s5,20(sp)
     f02:	4b42                	lw	s6,16(sp)
     f04:	4bb2                	lw	s7,12(sp)
     f06:	6145                	addi	sp,sp,48
     f08:	8082                	ret
     f0a:	4404                	lw	s1,8(s0)
     f0c:	00442983          	lw	s3,4(s0)
     f10:	19fd                	addi	s3,s3,-1
     f12:	0009d463          	bgez	s3,f1a <_fwalk_reent+0x4c>
     f16:	4000                	lw	s0,0(s0)
     f18:	bfe1                	j	ef0 <_fwalk_reent+0x22>
     f1a:	00c4d783          	lhu	a5,12(s1)
     f1e:	00fb7b63          	bleu	a5,s6,f34 <_fwalk_reent+0x66>
     f22:	00e49783          	lh	a5,14(s1)
     f26:	01778763          	beq	a5,s7,f34 <_fwalk_reent+0x66>
     f2a:	85a6                	mv	a1,s1
     f2c:	8552                	mv	a0,s4
     f2e:	9a82                	jalr	s5
     f30:	00a96933          	or	s2,s2,a0
     f34:	06848493          	addi	s1,s1,104
     f38:	bfe1                	j	f10 <_fwalk_reent+0x42>

00000f3a <_malloc_r>:
     f3a:	7179                	addi	sp,sp,-48
     f3c:	d606                	sw	ra,44(sp)
     f3e:	d422                	sw	s0,40(sp)
     f40:	d226                	sw	s1,36(sp)
     f42:	d04a                	sw	s2,32(sp)
     f44:	ce4e                	sw	s3,28(sp)
     f46:	cc52                	sw	s4,24(sp)
     f48:	ca56                	sw	s5,20(sp)
     f4a:	c85a                	sw	s6,16(sp)
     f4c:	c65e                	sw	s7,12(sp)
     f4e:	c462                	sw	s8,8(sp)
     f50:	00b58793          	addi	a5,a1,11
     f54:	4759                	li	a4,22
     f56:	02f77563          	bleu	a5,a4,f80 <_malloc_r+0x46>
     f5a:	ff87f493          	andi	s1,a5,-8
     f5e:	0204d263          	bgez	s1,f82 <_malloc_r+0x48>
     f62:	47b1                	li	a5,12
     f64:	c11c                	sw	a5,0(a0)
     f66:	4501                	li	a0,0
     f68:	50b2                	lw	ra,44(sp)
     f6a:	5422                	lw	s0,40(sp)
     f6c:	5492                	lw	s1,36(sp)
     f6e:	5902                	lw	s2,32(sp)
     f70:	49f2                	lw	s3,28(sp)
     f72:	4a62                	lw	s4,24(sp)
     f74:	4ad2                	lw	s5,20(sp)
     f76:	4b42                	lw	s6,16(sp)
     f78:	4bb2                	lw	s7,12(sp)
     f7a:	4c22                	lw	s8,8(sp)
     f7c:	6145                	addi	sp,sp,48
     f7e:	8082                	ret
     f80:	44c1                	li	s1,16
     f82:	feb4e0e3          	bltu	s1,a1,f62 <_malloc_r+0x28>
     f86:	89aa                	mv	s3,a0
     f88:	2b91                	jal	14dc <__malloc_lock>
     f8a:	1f700793          	li	a5,503
     f8e:	c2818913          	addi	s2,gp,-984 # 200430 <__malloc_av_>
     f92:	0297ec63          	bltu	a5,s1,fca <_malloc_r+0x90>
     f96:	00848713          	addi	a4,s1,8
     f9a:	974a                	add	a4,a4,s2
     f9c:	4340                	lw	s0,4(a4)
     f9e:	ff870693          	addi	a3,a4,-8
     fa2:	0034d793          	srli	a5,s1,0x3
     fa6:	00d41663          	bne	s0,a3,fb2 <_malloc_r+0x78>
     faa:	4740                	lw	s0,12(a4)
     fac:	0789                	addi	a5,a5,2
     fae:	04870c63          	beq	a4,s0,1006 <_malloc_r+0xcc>
     fb2:	405c                	lw	a5,4(s0)
     fb4:	4458                	lw	a4,12(s0)
     fb6:	4414                	lw	a3,8(s0)
     fb8:	9bf1                	andi	a5,a5,-4
     fba:	97a2                	add	a5,a5,s0
     fbc:	c6d8                	sw	a4,12(a3)
     fbe:	c714                	sw	a3,8(a4)
     fc0:	43d8                	lw	a4,4(a5)
     fc2:	00176713          	ori	a4,a4,1
     fc6:	c3d8                	sw	a4,4(a5)
     fc8:	a8b5                	j	1044 <_malloc_r+0x10a>
     fca:	0094d713          	srli	a4,s1,0x9
     fce:	03f00793          	li	a5,63
     fd2:	cb01                	beqz	a4,fe2 <_malloc_r+0xa8>
     fd4:	4791                	li	a5,4
     fd6:	06e7ec63          	bltu	a5,a4,104e <_malloc_r+0x114>
     fda:	0064d793          	srli	a5,s1,0x6
     fde:	03878793          	addi	a5,a5,56
     fe2:	00178713          	addi	a4,a5,1
     fe6:	070e                	slli	a4,a4,0x3
     fe8:	974a                	add	a4,a4,s2
     fea:	4340                	lw	s0,4(a4)
     fec:	ff870593          	addi	a1,a4,-8
     ff0:	453d                	li	a0,15
     ff2:	00b40963          	beq	s0,a1,1004 <_malloc_r+0xca>
     ff6:	4058                	lw	a4,4(s0)
     ff8:	9b71                	andi	a4,a4,-4
     ffa:	40970633          	sub	a2,a4,s1
     ffe:	08c55b63          	ble	a2,a0,1094 <_malloc_r+0x15a>
    1002:	17fd                	addi	a5,a5,-1
    1004:	0785                	addi	a5,a5,1
    1006:	01092403          	lw	s0,16(s2)
    100a:	00890693          	addi	a3,s2,8
    100e:	c3018593          	addi	a1,gp,-976 # 200438 <__malloc_av_+0x8>
    1012:	0ed40263          	beq	s0,a3,10f6 <_malloc_r+0x1bc>
    1016:	4058                	lw	a4,4(s0)
    1018:	463d                	li	a2,15
    101a:	9b71                	andi	a4,a4,-4
    101c:	40970533          	sub	a0,a4,s1
    1020:	08a65563          	ble	a0,a2,10aa <_malloc_r+0x170>
    1024:	0014e793          	ori	a5,s1,1
    1028:	c05c                	sw	a5,4(s0)
    102a:	00940633          	add	a2,s0,s1
    102e:	00c92a23          	sw	a2,20(s2)
    1032:	00c92823          	sw	a2,16(s2)
    1036:	00156793          	ori	a5,a0,1
    103a:	c654                	sw	a3,12(a2)
    103c:	c614                	sw	a3,8(a2)
    103e:	c25c                	sw	a5,4(a2)
    1040:	9722                	add	a4,a4,s0
    1042:	c308                	sw	a0,0(a4)
    1044:	854e                	mv	a0,s3
    1046:	2961                	jal	14de <__malloc_unlock>
    1048:	00840513          	addi	a0,s0,8
    104c:	bf31                	j	f68 <_malloc_r+0x2e>
    104e:	47d1                	li	a5,20
    1050:	00e7e563          	bltu	a5,a4,105a <_malloc_r+0x120>
    1054:	05b70793          	addi	a5,a4,91
    1058:	b769                	j	fe2 <_malloc_r+0xa8>
    105a:	05400793          	li	a5,84
    105e:	00e7e763          	bltu	a5,a4,106c <_malloc_r+0x132>
    1062:	00c4d793          	srli	a5,s1,0xc
    1066:	06e78793          	addi	a5,a5,110
    106a:	bfa5                	j	fe2 <_malloc_r+0xa8>
    106c:	15400793          	li	a5,340
    1070:	00e7e763          	bltu	a5,a4,107e <_malloc_r+0x144>
    1074:	00f4d793          	srli	a5,s1,0xf
    1078:	07778793          	addi	a5,a5,119
    107c:	b79d                	j	fe2 <_malloc_r+0xa8>
    107e:	55400693          	li	a3,1364
    1082:	07e00793          	li	a5,126
    1086:	f4e6eee3          	bltu	a3,a4,fe2 <_malloc_r+0xa8>
    108a:	0124d793          	srli	a5,s1,0x12
    108e:	07c78793          	addi	a5,a5,124
    1092:	bf81                	j	fe2 <_malloc_r+0xa8>
    1094:	4454                	lw	a3,12(s0)
    1096:	00064863          	bltz	a2,10a6 <_malloc_r+0x16c>
    109a:	441c                	lw	a5,8(s0)
    109c:	c7d4                	sw	a3,12(a5)
    109e:	c69c                	sw	a5,8(a3)
    10a0:	00e407b3          	add	a5,s0,a4
    10a4:	bf31                	j	fc0 <_malloc_r+0x86>
    10a6:	8436                	mv	s0,a3
    10a8:	b7a9                	j	ff2 <_malloc_r+0xb8>
    10aa:	00d92a23          	sw	a3,20(s2)
    10ae:	00d92823          	sw	a3,16(s2)
    10b2:	00054863          	bltz	a0,10c2 <_malloc_r+0x188>
    10b6:	9722                	add	a4,a4,s0
    10b8:	435c                	lw	a5,4(a4)
    10ba:	0017e793          	ori	a5,a5,1
    10be:	c35c                	sw	a5,4(a4)
    10c0:	b751                	j	1044 <_malloc_r+0x10a>
    10c2:	1ff00693          	li	a3,511
    10c6:	00492803          	lw	a6,4(s2)
    10ca:	10e6ee63          	bltu	a3,a4,11e6 <_malloc_r+0x2ac>
    10ce:	830d                	srli	a4,a4,0x3
    10d0:	40275613          	srai	a2,a4,0x2
    10d4:	4685                	li	a3,1
    10d6:	0705                	addi	a4,a4,1
    10d8:	00c696b3          	sll	a3,a3,a2
    10dc:	070e                	slli	a4,a4,0x3
    10de:	974a                	add	a4,a4,s2
    10e0:	0106e6b3          	or	a3,a3,a6
    10e4:	00d92223          	sw	a3,4(s2)
    10e8:	4314                	lw	a3,0(a4)
    10ea:	ff870613          	addi	a2,a4,-8
    10ee:	c450                	sw	a2,12(s0)
    10f0:	c414                	sw	a3,8(s0)
    10f2:	c300                	sw	s0,0(a4)
    10f4:	c6c0                	sw	s0,12(a3)
    10f6:	4027d713          	srai	a4,a5,0x2
    10fa:	4305                	li	t1,1
    10fc:	00e31333          	sll	t1,t1,a4
    1100:	00492703          	lw	a4,4(s2)
    1104:	04676c63          	bltu	a4,t1,115c <_malloc_r+0x222>
    1108:	006776b3          	and	a3,a4,t1
    110c:	e699                	bnez	a3,111a <_malloc_r+0x1e0>
    110e:	9bf1                	andi	a5,a5,-4
    1110:	0306                	slli	t1,t1,0x1
    1112:	006776b3          	and	a3,a4,t1
    1116:	0791                	addi	a5,a5,4
    1118:	dee5                	beqz	a3,1110 <_malloc_r+0x1d6>
    111a:	4e3d                	li	t3,15
    111c:	00379693          	slli	a3,a5,0x3
    1120:	96ca                	add	a3,a3,s2
    1122:	8836                	mv	a6,a3
    1124:	853e                	mv	a0,a5
    1126:	00c82403          	lw	s0,12(a6)
    112a:	15041963          	bne	s0,a6,127c <_malloc_r+0x342>
    112e:	0505                	addi	a0,a0,1
    1130:	00357713          	andi	a4,a0,3
    1134:	0821                	addi	a6,a6,8
    1136:	fb65                	bnez	a4,1126 <_malloc_r+0x1ec>
    1138:	0037f713          	andi	a4,a5,3
    113c:	18071963          	bnez	a4,12ce <_malloc_r+0x394>
    1140:	00492703          	lw	a4,4(s2)
    1144:	fff34793          	not	a5,t1
    1148:	8ff9                	and	a5,a5,a4
    114a:	00f92223          	sw	a5,4(s2)
    114e:	00492703          	lw	a4,4(s2)
    1152:	0306                	slli	t1,t1,0x1
    1154:	00676463          	bltu	a4,t1,115c <_malloc_r+0x222>
    1158:	18031863          	bnez	t1,12e8 <_malloc_r+0x3ae>
    115c:	00892b83          	lw	s7,8(s2)
    1160:	004ba403          	lw	s0,4(s7) # 80000004 <pulp__FC+0x80000005>
    1164:	ffc47a93          	andi	s5,s0,-4
    1168:	009ae763          	bltu	s5,s1,1176 <_malloc_r+0x23c>
    116c:	409a8733          	sub	a4,s5,s1
    1170:	47bd                	li	a5,15
    1172:	24e7c063          	blt	a5,a4,13b2 <_malloc_r+0x478>
    1176:	04c1a403          	lw	s0,76(gp) # 200854 <__malloc_top_pad>
    117a:	03c1a703          	lw	a4,60(gp) # 200844 <__malloc_sbrk_base>
    117e:	57fd                	li	a5,-1
    1180:	9426                	add	s0,s0,s1
    1182:	16f71563          	bne	a4,a5,12ec <_malloc_r+0x3b2>
    1186:	0441                	addi	s0,s0,16
    1188:	85a2                	mv	a1,s0
    118a:	854e                	mv	a0,s3
    118c:	25cd                	jal	186e <_sbrk_r>
    118e:	57fd                	li	a5,-1
    1190:	8b2a                	mv	s6,a0
    1192:	1cf50663          	beq	a0,a5,135e <_malloc_r+0x424>
    1196:	015b87b3          	add	a5,s7,s5
    119a:	00f57463          	bleu	a5,a0,11a2 <_malloc_r+0x268>
    119e:	1d2b9063          	bne	s7,s2,135e <_malloc_r+0x424>
    11a2:	05018693          	addi	a3,gp,80 # 200858 <__malloc_current_mallinfo>
    11a6:	4298                	lw	a4,0(a3)
    11a8:	05018c13          	addi	s8,gp,80 # 200858 <__malloc_current_mallinfo>
    11ac:	9722                	add	a4,a4,s0
    11ae:	c298                	sw	a4,0(a3)
    11b0:	15679463          	bne	a5,s6,12f8 <_malloc_r+0x3be>
    11b4:	01479693          	slli	a3,a5,0x14
    11b8:	14069063          	bnez	a3,12f8 <_malloc_r+0x3be>
    11bc:	00892783          	lw	a5,8(s2)
    11c0:	9456                	add	s0,s0,s5
    11c2:	00146413          	ori	s0,s0,1
    11c6:	c3c0                	sw	s0,4(a5)
    11c8:	000c2783          	lw	a5,0(s8)
    11cc:	0481a683          	lw	a3,72(gp) # 200850 <__malloc_max_sbrked_mem>
    11d0:	00f6f463          	bleu	a5,a3,11d8 <_malloc_r+0x29e>
    11d4:	04f1a423          	sw	a5,72(gp) # 200850 <__malloc_max_sbrked_mem>
    11d8:	0441a683          	lw	a3,68(gp) # 20084c <_edata>
    11dc:	18f6f163          	bleu	a5,a3,135e <_malloc_r+0x424>
    11e0:	04f1a223          	sw	a5,68(gp) # 20084c <_edata>
    11e4:	aaad                	j	135e <_malloc_r+0x424>
    11e6:	00975613          	srli	a2,a4,0x9
    11ea:	4691                	li	a3,4
    11ec:	02c6ec63          	bltu	a3,a2,1224 <_malloc_r+0x2ea>
    11f0:	00675693          	srli	a3,a4,0x6
    11f4:	03868693          	addi	a3,a3,56
    11f8:	00168613          	addi	a2,a3,1
    11fc:	060e                	slli	a2,a2,0x3
    11fe:	964a                	add	a2,a2,s2
    1200:	ff860513          	addi	a0,a2,-8
    1204:	4210                	lw	a2,0(a2)
    1206:	06c51563          	bne	a0,a2,1270 <_malloc_r+0x336>
    120a:	8689                	srai	a3,a3,0x2
    120c:	4705                	li	a4,1
    120e:	00d716b3          	sll	a3,a4,a3
    1212:	0106e6b3          	or	a3,a3,a6
    1216:	00d92223          	sw	a3,4(s2)
    121a:	c448                	sw	a0,12(s0)
    121c:	c410                	sw	a2,8(s0)
    121e:	c500                	sw	s0,8(a0)
    1220:	c640                	sw	s0,12(a2)
    1222:	bdd1                	j	10f6 <_malloc_r+0x1bc>
    1224:	46d1                	li	a3,20
    1226:	00c6e563          	bltu	a3,a2,1230 <_malloc_r+0x2f6>
    122a:	05b60693          	addi	a3,a2,91
    122e:	b7e9                	j	11f8 <_malloc_r+0x2be>
    1230:	05400693          	li	a3,84
    1234:	00c6e763          	bltu	a3,a2,1242 <_malloc_r+0x308>
    1238:	00c75693          	srli	a3,a4,0xc
    123c:	06e68693          	addi	a3,a3,110
    1240:	bf65                	j	11f8 <_malloc_r+0x2be>
    1242:	15400693          	li	a3,340
    1246:	00c6e763          	bltu	a3,a2,1254 <_malloc_r+0x31a>
    124a:	00f75693          	srli	a3,a4,0xf
    124e:	07768693          	addi	a3,a3,119
    1252:	b75d                	j	11f8 <_malloc_r+0x2be>
    1254:	55400513          	li	a0,1364
    1258:	07e00693          	li	a3,126
    125c:	f8c56ee3          	bltu	a0,a2,11f8 <_malloc_r+0x2be>
    1260:	01275693          	srli	a3,a4,0x12
    1264:	07c68693          	addi	a3,a3,124
    1268:	bf41                	j	11f8 <_malloc_r+0x2be>
    126a:	4610                	lw	a2,8(a2)
    126c:	00c50663          	beq	a0,a2,1278 <_malloc_r+0x33e>
    1270:	4254                	lw	a3,4(a2)
    1272:	9af1                	andi	a3,a3,-4
    1274:	fed76be3          	bltu	a4,a3,126a <_malloc_r+0x330>
    1278:	4648                	lw	a0,12(a2)
    127a:	b745                	j	121a <_malloc_r+0x2e0>
    127c:	4058                	lw	a4,4(s0)
    127e:	4450                	lw	a2,12(s0)
    1280:	9b71                	andi	a4,a4,-4
    1282:	409708b3          	sub	a7,a4,s1
    1286:	031e5763          	ble	a7,t3,12b4 <_malloc_r+0x37a>
    128a:	0014e793          	ori	a5,s1,1
    128e:	c05c                	sw	a5,4(s0)
    1290:	441c                	lw	a5,8(s0)
    1292:	009406b3          	add	a3,s0,s1
    1296:	9722                	add	a4,a4,s0
    1298:	c7d0                	sw	a2,12(a5)
    129a:	c61c                	sw	a5,8(a2)
    129c:	00d92a23          	sw	a3,20(s2)
    12a0:	00d92823          	sw	a3,16(s2)
    12a4:	0018e793          	ori	a5,a7,1
    12a8:	c6cc                	sw	a1,12(a3)
    12aa:	c68c                	sw	a1,8(a3)
    12ac:	c2dc                	sw	a5,4(a3)
    12ae:	01172023          	sw	a7,0(a4)
    12b2:	bb49                	j	1044 <_malloc_r+0x10a>
    12b4:	0008cb63          	bltz	a7,12ca <_malloc_r+0x390>
    12b8:	9722                	add	a4,a4,s0
    12ba:	435c                	lw	a5,4(a4)
    12bc:	0017e793          	ori	a5,a5,1
    12c0:	c35c                	sw	a5,4(a4)
    12c2:	441c                	lw	a5,8(s0)
    12c4:	c7d0                	sw	a2,12(a5)
    12c6:	c61c                	sw	a5,8(a2)
    12c8:	bbb5                	j	1044 <_malloc_r+0x10a>
    12ca:	8432                	mv	s0,a2
    12cc:	bdb9                	j	112a <_malloc_r+0x1f0>
    12ce:	ff868713          	addi	a4,a3,-8
    12d2:	4294                	lw	a3,0(a3)
    12d4:	17fd                	addi	a5,a5,-1
    12d6:	e6e681e3          	beq	a3,a4,1138 <_malloc_r+0x1fe>
    12da:	bd95                	j	114e <_malloc_r+0x214>
    12dc:	0791                	addi	a5,a5,4
    12de:	0306                	slli	t1,t1,0x1
    12e0:	006776b3          	and	a3,a4,t1
    12e4:	dee5                	beqz	a3,12dc <_malloc_r+0x3a2>
    12e6:	bd1d                	j	111c <_malloc_r+0x1e2>
    12e8:	87aa                	mv	a5,a0
    12ea:	bfdd                	j	12e0 <_malloc_r+0x3a6>
    12ec:	6785                	lui	a5,0x1
    12ee:	07bd                	addi	a5,a5,15
    12f0:	943e                	add	s0,s0,a5
    12f2:	77fd                	lui	a5,0xfffff
    12f4:	8c7d                	and	s0,s0,a5
    12f6:	bd49                	j	1188 <_malloc_r+0x24e>
    12f8:	03c1a603          	lw	a2,60(gp) # 200844 <__malloc_sbrk_base>
    12fc:	56fd                	li	a3,-1
    12fe:	06d61e63          	bne	a2,a3,137a <_malloc_r+0x440>
    1302:	0361ae23          	sw	s6,60(gp) # 200844 <__malloc_sbrk_base>
    1306:	007b7593          	andi	a1,s6,7
    130a:	c589                	beqz	a1,1314 <_malloc_r+0x3da>
    130c:	47a1                	li	a5,8
    130e:	40b785b3          	sub	a1,a5,a1
    1312:	9b2e                	add	s6,s6,a1
    1314:	6785                	lui	a5,0x1
    1316:	95be                	add	a1,a1,a5
    1318:	945a                	add	s0,s0,s6
    131a:	17fd                	addi	a5,a5,-1
    131c:	8c7d                	and	s0,s0,a5
    131e:	40858a33          	sub	s4,a1,s0
    1322:	85d2                	mv	a1,s4
    1324:	854e                	mv	a0,s3
    1326:	23a1                	jal	186e <_sbrk_r>
    1328:	57fd                	li	a5,-1
    132a:	00f51463          	bne	a0,a5,1332 <_malloc_r+0x3f8>
    132e:	855a                	mv	a0,s6
    1330:	4a01                	li	s4,0
    1332:	000c2783          	lw	a5,0(s8)
    1336:	41650533          	sub	a0,a0,s6
    133a:	01692423          	sw	s6,8(s2)
    133e:	97d2                	add	a5,a5,s4
    1340:	9a2a                	add	s4,s4,a0
    1342:	001a6a13          	ori	s4,s4,1
    1346:	00fc2023          	sw	a5,0(s8)
    134a:	014b2223          	sw	s4,4(s6) # 80000004 <pulp__FC+0x80000005>
    134e:	e72b8de3          	beq	s7,s2,11c8 <_malloc_r+0x28e>
    1352:	473d                	li	a4,15
    1354:	03576963          	bltu	a4,s5,1386 <_malloc_r+0x44c>
    1358:	4785                	li	a5,1
    135a:	00fb2223          	sw	a5,4(s6)
    135e:	00892783          	lw	a5,8(s2)
    1362:	43dc                	lw	a5,4(a5)
    1364:	9bf1                	andi	a5,a5,-4
    1366:	40978733          	sub	a4,a5,s1
    136a:	0097e563          	bltu	a5,s1,1374 <_malloc_r+0x43a>
    136e:	47bd                	li	a5,15
    1370:	04e7c163          	blt	a5,a4,13b2 <_malloc_r+0x478>
    1374:	854e                	mv	a0,s3
    1376:	22a5                	jal	14de <__malloc_unlock>
    1378:	b6fd                	j	f66 <_malloc_r+0x2c>
    137a:	40fb07b3          	sub	a5,s6,a5
    137e:	97ba                	add	a5,a5,a4
    1380:	00fc2023          	sw	a5,0(s8)
    1384:	b749                	j	1306 <_malloc_r+0x3cc>
    1386:	004ba783          	lw	a5,4(s7)
    138a:	ff4a8413          	addi	s0,s5,-12
    138e:	9861                	andi	s0,s0,-8
    1390:	8b85                	andi	a5,a5,1
    1392:	8fc1                	or	a5,a5,s0
    1394:	00fba223          	sw	a5,4(s7)
    1398:	4695                	li	a3,5
    139a:	008b87b3          	add	a5,s7,s0
    139e:	c3d4                	sw	a3,4(a5)
    13a0:	c794                	sw	a3,8(a5)
    13a2:	e28773e3          	bleu	s0,a4,11c8 <_malloc_r+0x28e>
    13a6:	008b8593          	addi	a1,s7,8
    13aa:	854e                	mv	a0,s3
    13ac:	e4aff0ef          	jal	ra,9f6 <_free_r>
    13b0:	bd21                	j	11c8 <_malloc_r+0x28e>
    13b2:	00892403          	lw	s0,8(s2)
    13b6:	0014e793          	ori	a5,s1,1
    13ba:	c05c                	sw	a5,4(s0)
    13bc:	009407b3          	add	a5,s0,s1
    13c0:	00f92423          	sw	a5,8(s2)
    13c4:	befd                	j	fc2 <_malloc_r+0x88>

000013c6 <memchr>:
    13c6:	0ff5f593          	andi	a1,a1,255
    13ca:	962a                	add	a2,a2,a0
    13cc:	00c51463          	bne	a0,a2,13d4 <memchr+0xe>
    13d0:	4501                	li	a0,0
    13d2:	8082                	ret
    13d4:	00054783          	lbu	a5,0(a0)
    13d8:	feb78de3          	beq	a5,a1,13d2 <memchr+0xc>
    13dc:	0505                	addi	a0,a0,1
    13de:	b7fd                	j	13cc <memchr+0x6>

000013e0 <memcpy>:
    13e0:	00a5c7b3          	xor	a5,a1,a0
    13e4:	8b8d                	andi	a5,a5,3
    13e6:	00c50733          	add	a4,a0,a2
    13ea:	e781                	bnez	a5,13f2 <memcpy+0x12>
    13ec:	478d                	li	a5,3
    13ee:	00c7ef63          	bltu	a5,a2,140c <memcpy+0x2c>
    13f2:	87aa                	mv	a5,a0
    13f4:	00e56963          	bltu	a0,a4,1406 <memcpy+0x26>
    13f8:	8082                	ret
    13fa:	0005c683          	lbu	a3,0(a1)
    13fe:	0785                	addi	a5,a5,1
    1400:	0585                	addi	a1,a1,1
    1402:	fed78fa3          	sb	a3,-1(a5) # fff <_malloc_r+0xc5>
    1406:	fee7eae3          	bltu	a5,a4,13fa <memcpy+0x1a>
    140a:	8082                	ret
    140c:	00357793          	andi	a5,a0,3
    1410:	ebbd                	bnez	a5,1486 <memcpy+0xa6>
    1412:	87aa                	mv	a5,a0
    1414:	ffc77693          	andi	a3,a4,-4
    1418:	fe068613          	addi	a2,a3,-32
    141c:	06c7fc63          	bleu	a2,a5,1494 <memcpy+0xb4>
    1420:	0005a383          	lw	t2,0(a1)
    1424:	0045a283          	lw	t0,4(a1)
    1428:	0085af83          	lw	t6,8(a1)
    142c:	00c5af03          	lw	t5,12(a1)
    1430:	0105ae83          	lw	t4,16(a1)
    1434:	0145ae03          	lw	t3,20(a1)
    1438:	0185a303          	lw	t1,24(a1)
    143c:	01c5a883          	lw	a7,28(a1)
    1440:	02458593          	addi	a1,a1,36
    1444:	02478793          	addi	a5,a5,36
    1448:	ffc5a803          	lw	a6,-4(a1)
    144c:	fc77ae23          	sw	t2,-36(a5)
    1450:	fe57a023          	sw	t0,-32(a5)
    1454:	fff7a223          	sw	t6,-28(a5)
    1458:	ffe7a423          	sw	t5,-24(a5)
    145c:	ffd7a623          	sw	t4,-20(a5)
    1460:	ffc7a823          	sw	t3,-16(a5)
    1464:	fe67aa23          	sw	t1,-12(a5)
    1468:	ff17ac23          	sw	a7,-8(a5)
    146c:	ff07ae23          	sw	a6,-4(a5)
    1470:	b775                	j	141c <memcpy+0x3c>
    1472:	0005c683          	lbu	a3,0(a1)
    1476:	0785                	addi	a5,a5,1
    1478:	0585                	addi	a1,a1,1
    147a:	fed78fa3          	sb	a3,-1(a5)
    147e:	0037f693          	andi	a3,a5,3
    1482:	fae5                	bnez	a3,1472 <memcpy+0x92>
    1484:	bf41                	j	1414 <memcpy+0x34>
    1486:	87aa                	mv	a5,a0
    1488:	bfdd                	j	147e <memcpy+0x9e>
    148a:	4190                	lw	a2,0(a1)
    148c:	0791                	addi	a5,a5,4
    148e:	0591                	addi	a1,a1,4
    1490:	fec7ae23          	sw	a2,-4(a5)
    1494:	fed7ebe3          	bltu	a5,a3,148a <memcpy+0xaa>
    1498:	f6e7e7e3          	bltu	a5,a4,1406 <memcpy+0x26>
    149c:	8082                	ret

0000149e <memmove>:
    149e:	00c50733          	add	a4,a0,a2
    14a2:	00a5e663          	bltu	a1,a0,14ae <memmove+0x10>
    14a6:	87aa                	mv	a5,a0
    14a8:	02f71363          	bne	a4,a5,14ce <memmove+0x30>
    14ac:	8082                	ret
    14ae:	00c587b3          	add	a5,a1,a2
    14b2:	8e1d                	sub	a2,a2,a5
    14b4:	fef579e3          	bleu	a5,a0,14a6 <memmove+0x8>
    14b8:	00c786b3          	add	a3,a5,a2
    14bc:	e291                	bnez	a3,14c0 <memmove+0x22>
    14be:	8082                	ret
    14c0:	17fd                	addi	a5,a5,-1
    14c2:	0007c683          	lbu	a3,0(a5)
    14c6:	177d                	addi	a4,a4,-1
    14c8:	00d70023          	sb	a3,0(a4)
    14cc:	b7f5                	j	14b8 <memmove+0x1a>
    14ce:	0585                	addi	a1,a1,1
    14d0:	fff5c683          	lbu	a3,-1(a1)
    14d4:	0785                	addi	a5,a5,1
    14d6:	fed78fa3          	sb	a3,-1(a5)
    14da:	b7f9                	j	14a8 <memmove+0xa>

000014dc <__malloc_lock>:
    14dc:	8082                	ret

000014de <__malloc_unlock>:
    14de:	8082                	ret

000014e0 <_realloc_r>:
    14e0:	7139                	addi	sp,sp,-64
    14e2:	dc22                	sw	s0,56(sp)
    14e4:	de06                	sw	ra,60(sp)
    14e6:	842e                	mv	s0,a1
    14e8:	da26                	sw	s1,52(sp)
    14ea:	d84a                	sw	s2,48(sp)
    14ec:	d64e                	sw	s3,44(sp)
    14ee:	d452                	sw	s4,40(sp)
    14f0:	d256                	sw	s5,36(sp)
    14f2:	d05a                	sw	s6,32(sp)
    14f4:	ce5e                	sw	s7,28(sp)
    14f6:	cc62                	sw	s8,24(sp)
    14f8:	85b2                	mv	a1,a2
    14fa:	ec09                	bnez	s0,1514 <_realloc_r+0x34>
    14fc:	5462                	lw	s0,56(sp)
    14fe:	50f2                	lw	ra,60(sp)
    1500:	54d2                	lw	s1,52(sp)
    1502:	5942                	lw	s2,48(sp)
    1504:	59b2                	lw	s3,44(sp)
    1506:	5a22                	lw	s4,40(sp)
    1508:	5a92                	lw	s5,36(sp)
    150a:	5b02                	lw	s6,32(sp)
    150c:	4bf2                	lw	s7,28(sp)
    150e:	4c62                	lw	s8,24(sp)
    1510:	6121                	addi	sp,sp,64
    1512:	b425                	j	f3a <_malloc_r>
    1514:	8aaa                	mv	s5,a0
    1516:	c632                	sw	a2,12(sp)
    1518:	37d1                	jal	14dc <__malloc_lock>
    151a:	45b2                	lw	a1,12(sp)
    151c:	ffc42683          	lw	a3,-4(s0)
    1520:	47d9                	li	a5,22
    1522:	00b58993          	addi	s3,a1,11
    1526:	ff840b93          	addi	s7,s0,-8
    152a:	ffc6f913          	andi	s2,a3,-4
    152e:	0337f763          	bleu	s3,a5,155c <_realloc_r+0x7c>
    1532:	ff89fb13          	andi	s6,s3,-8
    1536:	020b5463          	bgez	s6,155e <_realloc_r+0x7e>
    153a:	47b1                	li	a5,12
    153c:	00faa023          	sw	a5,0(s5)
    1540:	4a01                	li	s4,0
    1542:	50f2                	lw	ra,60(sp)
    1544:	5462                	lw	s0,56(sp)
    1546:	8552                	mv	a0,s4
    1548:	54d2                	lw	s1,52(sp)
    154a:	5942                	lw	s2,48(sp)
    154c:	59b2                	lw	s3,44(sp)
    154e:	5a22                	lw	s4,40(sp)
    1550:	5a92                	lw	s5,36(sp)
    1552:	5b02                	lw	s6,32(sp)
    1554:	4bf2                	lw	s7,28(sp)
    1556:	4c62                	lw	s8,24(sp)
    1558:	6121                	addi	sp,sp,64
    155a:	8082                	ret
    155c:	4b41                	li	s6,16
    155e:	fcbb6ee3          	bltu	s6,a1,153a <_realloc_r+0x5a>
    1562:	2f695b63          	ble	s6,s2,1858 <_realloc_r+0x378>
    1566:	c2818713          	addi	a4,gp,-984 # 200430 <__malloc_av_>
    156a:	4710                	lw	a2,8(a4)
    156c:	012b87b3          	add	a5,s7,s2
    1570:	43d8                	lw	a4,4(a5)
    1572:	c2818c13          	addi	s8,gp,-984 # 200430 <__malloc_av_>
    1576:	00f60863          	beq	a2,a5,1586 <_realloc_r+0xa6>
    157a:	ffe77513          	andi	a0,a4,-2
    157e:	953e                	add	a0,a0,a5
    1580:	4148                	lw	a0,4(a0)
    1582:	8905                	andi	a0,a0,1
    1584:	e549                	bnez	a0,160e <_realloc_r+0x12e>
    1586:	9b71                	andi	a4,a4,-4
    1588:	00e909b3          	add	s3,s2,a4
    158c:	02f61b63          	bne	a2,a5,15c2 <_realloc_r+0xe2>
    1590:	010b0513          	addi	a0,s6,16
    1594:	06a9cf63          	blt	s3,a0,1612 <_realloc_r+0x132>
    1598:	9bda                	add	s7,s7,s6
    159a:	416989b3          	sub	s3,s3,s6
    159e:	017c2423          	sw	s7,8(s8)
    15a2:	0019e993          	ori	s3,s3,1
    15a6:	013ba223          	sw	s3,4(s7)
    15aa:	ffc42983          	lw	s3,-4(s0)
    15ae:	8556                	mv	a0,s5
    15b0:	8a22                	mv	s4,s0
    15b2:	0019f993          	andi	s3,s3,1
    15b6:	0169e9b3          	or	s3,s3,s6
    15ba:	ff342e23          	sw	s3,-4(s0)
    15be:	3705                	jal	14de <__malloc_unlock>
    15c0:	b749                	j	1542 <_realloc_r+0x62>
    15c2:	0569c863          	blt	s3,s6,1612 <_realloc_r+0x132>
    15c6:	47d8                	lw	a4,12(a5)
    15c8:	479c                	lw	a5,8(a5)
    15ca:	c7d8                	sw	a4,12(a5)
    15cc:	c71c                	sw	a5,8(a4)
    15ce:	004ba703          	lw	a4,4(s7)
    15d2:	416986b3          	sub	a3,s3,s6
    15d6:	463d                	li	a2,15
    15d8:	8b05                	andi	a4,a4,1
    15da:	013b87b3          	add	a5,s7,s3
    15de:	26d67f63          	bleu	a3,a2,185c <_realloc_r+0x37c>
    15e2:	00eb69b3          	or	s3,s6,a4
    15e6:	013ba223          	sw	s3,4(s7)
    15ea:	016b85b3          	add	a1,s7,s6
    15ee:	0016e693          	ori	a3,a3,1
    15f2:	c1d4                	sw	a3,4(a1)
    15f4:	43d8                	lw	a4,4(a5)
    15f6:	05a1                	addi	a1,a1,8
    15f8:	8556                	mv	a0,s5
    15fa:	00176713          	ori	a4,a4,1
    15fe:	c3d8                	sw	a4,4(a5)
    1600:	bf6ff0ef          	jal	ra,9f6 <_free_r>
    1604:	8556                	mv	a0,s5
    1606:	3de1                	jal	14de <__malloc_unlock>
    1608:	008b8a13          	addi	s4,s7,8
    160c:	bf1d                	j	1542 <_realloc_r+0x62>
    160e:	4701                	li	a4,0
    1610:	4781                	li	a5,0
    1612:	8a85                	andi	a3,a3,1
    1614:	1a069563          	bnez	a3,17be <_realloc_r+0x2de>
    1618:	ff842483          	lw	s1,-8(s0)
    161c:	409b84b3          	sub	s1,s7,s1
    1620:	0044aa03          	lw	s4,4(s1)
    1624:	ffca7a13          	andi	s4,s4,-4
    1628:	9a4a                	add	s4,s4,s2
    162a:	12078163          	beqz	a5,174c <_realloc_r+0x26c>
    162e:	014709b3          	add	s3,a4,s4
    1632:	0af61063          	bne	a2,a5,16d2 <_realloc_r+0x1f2>
    1636:	010b0793          	addi	a5,s6,16
    163a:	10f9c963          	blt	s3,a5,174c <_realloc_r+0x26c>
    163e:	4498                	lw	a4,8(s1)
    1640:	44dc                	lw	a5,12(s1)
    1642:	ffc90613          	addi	a2,s2,-4
    1646:	00848a13          	addi	s4,s1,8
    164a:	c75c                	sw	a5,12(a4)
    164c:	c798                	sw	a4,8(a5)
    164e:	02400713          	li	a4,36
    1652:	06c76c63          	bltu	a4,a2,16ca <_realloc_r+0x1ea>
    1656:	46cd                	li	a3,19
    1658:	87d2                	mv	a5,s4
    165a:	00c6fc63          	bleu	a2,a3,1672 <_realloc_r+0x192>
    165e:	401c                	lw	a5,0(s0)
    1660:	c49c                	sw	a5,8(s1)
    1662:	405c                	lw	a5,4(s0)
    1664:	c4dc                	sw	a5,12(s1)
    1666:	47ed                	li	a5,27
    1668:	02c7ee63          	bltu	a5,a2,16a4 <_realloc_r+0x1c4>
    166c:	0421                	addi	s0,s0,8
    166e:	01048793          	addi	a5,s1,16
    1672:	4018                	lw	a4,0(s0)
    1674:	c398                	sw	a4,0(a5)
    1676:	4058                	lw	a4,4(s0)
    1678:	c3d8                	sw	a4,4(a5)
    167a:	4418                	lw	a4,8(s0)
    167c:	c798                	sw	a4,8(a5)
    167e:	016487b3          	add	a5,s1,s6
    1682:	416989b3          	sub	s3,s3,s6
    1686:	00fc2423          	sw	a5,8(s8)
    168a:	0019e993          	ori	s3,s3,1
    168e:	0137a223          	sw	s3,4(a5)
    1692:	40dc                	lw	a5,4(s1)
    1694:	8b85                	andi	a5,a5,1
    1696:	0167e9b3          	or	s3,a5,s6
    169a:	0134a223          	sw	s3,4(s1)
    169e:	8556                	mv	a0,s5
    16a0:	3d3d                	jal	14de <__malloc_unlock>
    16a2:	b545                	j	1542 <_realloc_r+0x62>
    16a4:	441c                	lw	a5,8(s0)
    16a6:	c89c                	sw	a5,16(s1)
    16a8:	445c                	lw	a5,12(s0)
    16aa:	c8dc                	sw	a5,20(s1)
    16ac:	00e60663          	beq	a2,a4,16b8 <_realloc_r+0x1d8>
    16b0:	0441                	addi	s0,s0,16
    16b2:	01848793          	addi	a5,s1,24
    16b6:	bf75                	j	1672 <_realloc_r+0x192>
    16b8:	481c                	lw	a5,16(s0)
    16ba:	0461                	addi	s0,s0,24
    16bc:	cc9c                	sw	a5,24(s1)
    16be:	ffc42703          	lw	a4,-4(s0)
    16c2:	02048793          	addi	a5,s1,32
    16c6:	ccd8                	sw	a4,28(s1)
    16c8:	b76d                	j	1672 <_realloc_r+0x192>
    16ca:	85a2                	mv	a1,s0
    16cc:	8552                	mv	a0,s4
    16ce:	3bc1                	jal	149e <memmove>
    16d0:	b77d                	j	167e <_realloc_r+0x19e>
    16d2:	0769cd63          	blt	s3,s6,174c <_realloc_r+0x26c>
    16d6:	47d8                	lw	a4,12(a5)
    16d8:	479c                	lw	a5,8(a5)
    16da:	ffc90613          	addi	a2,s2,-4
    16de:	00848513          	addi	a0,s1,8
    16e2:	c7d8                	sw	a4,12(a5)
    16e4:	c71c                	sw	a5,8(a4)
    16e6:	4498                	lw	a4,8(s1)
    16e8:	44dc                	lw	a5,12(s1)
    16ea:	c75c                	sw	a5,12(a4)
    16ec:	c798                	sw	a4,8(a5)
    16ee:	02400793          	li	a5,36
    16f2:	04c7ea63          	bltu	a5,a2,1746 <_realloc_r+0x266>
    16f6:	474d                	li	a4,19
    16f8:	00c77c63          	bleu	a2,a4,1710 <_realloc_r+0x230>
    16fc:	4018                	lw	a4,0(s0)
    16fe:	c498                	sw	a4,8(s1)
    1700:	4058                	lw	a4,4(s0)
    1702:	c4d8                	sw	a4,12(s1)
    1704:	476d                	li	a4,27
    1706:	00c76d63          	bltu	a4,a2,1720 <_realloc_r+0x240>
    170a:	0421                	addi	s0,s0,8
    170c:	01048513          	addi	a0,s1,16
    1710:	401c                	lw	a5,0(s0)
    1712:	c11c                	sw	a5,0(a0)
    1714:	405c                	lw	a5,4(s0)
    1716:	c15c                	sw	a5,4(a0)
    1718:	441c                	lw	a5,8(s0)
    171a:	c51c                	sw	a5,8(a0)
    171c:	8ba6                	mv	s7,s1
    171e:	bd45                	j	15ce <_realloc_r+0xee>
    1720:	4418                	lw	a4,8(s0)
    1722:	c898                	sw	a4,16(s1)
    1724:	4458                	lw	a4,12(s0)
    1726:	c8d8                	sw	a4,20(s1)
    1728:	00f60663          	beq	a2,a5,1734 <_realloc_r+0x254>
    172c:	0441                	addi	s0,s0,16
    172e:	01848513          	addi	a0,s1,24
    1732:	bff9                	j	1710 <_realloc_r+0x230>
    1734:	481c                	lw	a5,16(s0)
    1736:	02048513          	addi	a0,s1,32
    173a:	0461                	addi	s0,s0,24
    173c:	cc9c                	sw	a5,24(s1)
    173e:	ffc42783          	lw	a5,-4(s0)
    1742:	ccdc                	sw	a5,28(s1)
    1744:	b7f1                	j	1710 <_realloc_r+0x230>
    1746:	85a2                	mv	a1,s0
    1748:	3b99                	jal	149e <memmove>
    174a:	bfc9                	j	171c <_realloc_r+0x23c>
    174c:	076a4963          	blt	s4,s6,17be <_realloc_r+0x2de>
    1750:	44dc                	lw	a5,12(s1)
    1752:	4498                	lw	a4,8(s1)
    1754:	ffc90613          	addi	a2,s2,-4
    1758:	00848513          	addi	a0,s1,8
    175c:	c75c                	sw	a5,12(a4)
    175e:	c798                	sw	a4,8(a5)
    1760:	02400793          	li	a5,36
    1764:	04c7ea63          	bltu	a5,a2,17b8 <_realloc_r+0x2d8>
    1768:	474d                	li	a4,19
    176a:	00c77c63          	bleu	a2,a4,1782 <_realloc_r+0x2a2>
    176e:	4018                	lw	a4,0(s0)
    1770:	c498                	sw	a4,8(s1)
    1772:	4058                	lw	a4,4(s0)
    1774:	c4d8                	sw	a4,12(s1)
    1776:	476d                	li	a4,27
    1778:	00c76d63          	bltu	a4,a2,1792 <_realloc_r+0x2b2>
    177c:	0421                	addi	s0,s0,8
    177e:	01048513          	addi	a0,s1,16
    1782:	401c                	lw	a5,0(s0)
    1784:	c11c                	sw	a5,0(a0)
    1786:	405c                	lw	a5,4(s0)
    1788:	c15c                	sw	a5,4(a0)
    178a:	441c                	lw	a5,8(s0)
    178c:	c51c                	sw	a5,8(a0)
    178e:	89d2                	mv	s3,s4
    1790:	b771                	j	171c <_realloc_r+0x23c>
    1792:	4418                	lw	a4,8(s0)
    1794:	c898                	sw	a4,16(s1)
    1796:	4458                	lw	a4,12(s0)
    1798:	c8d8                	sw	a4,20(s1)
    179a:	00f60663          	beq	a2,a5,17a6 <_realloc_r+0x2c6>
    179e:	0441                	addi	s0,s0,16
    17a0:	01848513          	addi	a0,s1,24
    17a4:	bff9                	j	1782 <_realloc_r+0x2a2>
    17a6:	481c                	lw	a5,16(s0)
    17a8:	02048513          	addi	a0,s1,32
    17ac:	0461                	addi	s0,s0,24
    17ae:	cc9c                	sw	a5,24(s1)
    17b0:	ffc42783          	lw	a5,-4(s0)
    17b4:	ccdc                	sw	a5,28(s1)
    17b6:	b7f1                	j	1782 <_realloc_r+0x2a2>
    17b8:	85a2                	mv	a1,s0
    17ba:	31d5                	jal	149e <memmove>
    17bc:	bfc9                	j	178e <_realloc_r+0x2ae>
    17be:	8556                	mv	a0,s5
    17c0:	f7aff0ef          	jal	ra,f3a <_malloc_r>
    17c4:	8a2a                	mv	s4,a0
    17c6:	ec050ce3          	beqz	a0,169e <_realloc_r+0x1be>
    17ca:	ffc42783          	lw	a5,-4(s0)
    17ce:	ff850713          	addi	a4,a0,-8
    17d2:	9bf9                	andi	a5,a5,-2
    17d4:	97de                	add	a5,a5,s7
    17d6:	00e79863          	bne	a5,a4,17e6 <_realloc_r+0x306>
    17da:	ffc52983          	lw	s3,-4(a0)
    17de:	ffc9f993          	andi	s3,s3,-4
    17e2:	99ca                	add	s3,s3,s2
    17e4:	b3ed                	j	15ce <_realloc_r+0xee>
    17e6:	ffc90613          	addi	a2,s2,-4
    17ea:	02400793          	li	a5,36
    17ee:	06c7e263          	bltu	a5,a2,1852 <_realloc_r+0x372>
    17f2:	474d                	li	a4,19
    17f4:	04c77c63          	bleu	a2,a4,184c <_realloc_r+0x36c>
    17f8:	4018                	lw	a4,0(s0)
    17fa:	c118                	sw	a4,0(a0)
    17fc:	4058                	lw	a4,4(s0)
    17fe:	c158                	sw	a4,4(a0)
    1800:	476d                	li	a4,27
    1802:	02c76163          	bltu	a4,a2,1824 <_realloc_r+0x344>
    1806:	00840713          	addi	a4,s0,8
    180a:	00850793          	addi	a5,a0,8
    180e:	4314                	lw	a3,0(a4)
    1810:	c394                	sw	a3,0(a5)
    1812:	4354                	lw	a3,4(a4)
    1814:	c3d4                	sw	a3,4(a5)
    1816:	4718                	lw	a4,8(a4)
    1818:	c798                	sw	a4,8(a5)
    181a:	85a2                	mv	a1,s0
    181c:	8556                	mv	a0,s5
    181e:	9d8ff0ef          	jal	ra,9f6 <_free_r>
    1822:	bdb5                	j	169e <_realloc_r+0x1be>
    1824:	4418                	lw	a4,8(s0)
    1826:	c518                	sw	a4,8(a0)
    1828:	4458                	lw	a4,12(s0)
    182a:	c558                	sw	a4,12(a0)
    182c:	00f60763          	beq	a2,a5,183a <_realloc_r+0x35a>
    1830:	01040713          	addi	a4,s0,16
    1834:	01050793          	addi	a5,a0,16
    1838:	bfd9                	j	180e <_realloc_r+0x32e>
    183a:	481c                	lw	a5,16(s0)
    183c:	01840713          	addi	a4,s0,24
    1840:	c91c                	sw	a5,16(a0)
    1842:	4854                	lw	a3,20(s0)
    1844:	01850793          	addi	a5,a0,24
    1848:	c954                	sw	a3,20(a0)
    184a:	b7d1                	j	180e <_realloc_r+0x32e>
    184c:	87aa                	mv	a5,a0
    184e:	8722                	mv	a4,s0
    1850:	bf7d                	j	180e <_realloc_r+0x32e>
    1852:	85a2                	mv	a1,s0
    1854:	31a9                	jal	149e <memmove>
    1856:	b7d1                	j	181a <_realloc_r+0x33a>
    1858:	89ca                	mv	s3,s2
    185a:	bb95                	j	15ce <_realloc_r+0xee>
    185c:	00e9e9b3          	or	s3,s3,a4
    1860:	013ba223          	sw	s3,4(s7)
    1864:	43d8                	lw	a4,4(a5)
    1866:	00176713          	ori	a4,a4,1
    186a:	c3d8                	sw	a4,4(a5)
    186c:	bb61                	j	1604 <_realloc_r+0x124>

0000186e <_sbrk_r>:
    186e:	1141                	addi	sp,sp,-16
    1870:	c422                	sw	s0,8(sp)
    1872:	c226                	sw	s1,4(sp)
    1874:	84aa                	mv	s1,a0
    1876:	852e                	mv	a0,a1
    1878:	c606                	sw	ra,12(sp)
    187a:	0601ac23          	sw	zero,120(gp) # 200880 <errno>
    187e:	a59fe0ef          	jal	ra,2d6 <sbrk>
    1882:	57fd                	li	a5,-1
    1884:	00f51663          	bne	a0,a5,1890 <_sbrk_r+0x22>
    1888:	0781a783          	lw	a5,120(gp) # 200880 <errno>
    188c:	c391                	beqz	a5,1890 <_sbrk_r+0x22>
    188e:	c09c                	sw	a5,0(s1)
    1890:	40b2                	lw	ra,12(sp)
    1892:	4422                	lw	s0,8(sp)
    1894:	4492                	lw	s1,4(sp)
    1896:	0141                	addi	sp,sp,16
    1898:	8082                	ret

0000189a <__sread>:
    189a:	1141                	addi	sp,sp,-16
    189c:	c422                	sw	s0,8(sp)
    189e:	842e                	mv	s0,a1
    18a0:	00e59583          	lh	a1,14(a1)
    18a4:	c606                	sw	ra,12(sp)
    18a6:	2b89                	jal	1df8 <_read_r>
    18a8:	00054963          	bltz	a0,18ba <__sread+0x20>
    18ac:	483c                	lw	a5,80(s0)
    18ae:	97aa                	add	a5,a5,a0
    18b0:	c83c                	sw	a5,80(s0)
    18b2:	40b2                	lw	ra,12(sp)
    18b4:	4422                	lw	s0,8(sp)
    18b6:	0141                	addi	sp,sp,16
    18b8:	8082                	ret
    18ba:	00c45783          	lhu	a5,12(s0)
    18be:	777d                	lui	a4,0xfffff
    18c0:	177d                	addi	a4,a4,-1
    18c2:	8ff9                	and	a5,a5,a4
    18c4:	00f41623          	sh	a5,12(s0)
    18c8:	b7ed                	j	18b2 <__sread+0x18>

000018ca <__seofread>:
    18ca:	4501                	li	a0,0
    18cc:	8082                	ret

000018ce <__swrite>:
    18ce:	00c5d783          	lhu	a5,12(a1)
    18d2:	1101                	addi	sp,sp,-32
    18d4:	cc22                	sw	s0,24(sp)
    18d6:	ca26                	sw	s1,20(sp)
    18d8:	c84a                	sw	s2,16(sp)
    18da:	c64e                	sw	s3,12(sp)
    18dc:	ce06                	sw	ra,28(sp)
    18de:	1007f793          	andi	a5,a5,256
    18e2:	84aa                	mv	s1,a0
    18e4:	842e                	mv	s0,a1
    18e6:	8932                	mv	s2,a2
    18e8:	89b6                	mv	s3,a3
    18ea:	c791                	beqz	a5,18f6 <__swrite+0x28>
    18ec:	00e59583          	lh	a1,14(a1)
    18f0:	4689                	li	a3,2
    18f2:	4601                	li	a2,0
    18f4:	2ec9                	jal	1cc6 <_lseek_r>
    18f6:	00c45783          	lhu	a5,12(s0)
    18fa:	777d                	lui	a4,0xfffff
    18fc:	177d                	addi	a4,a4,-1
    18fe:	8ff9                	and	a5,a5,a4
    1900:	00f41623          	sh	a5,12(s0)
    1904:	00e41583          	lh	a1,14(s0)
    1908:	4462                	lw	s0,24(sp)
    190a:	40f2                	lw	ra,28(sp)
    190c:	86ce                	mv	a3,s3
    190e:	864a                	mv	a2,s2
    1910:	49b2                	lw	s3,12(sp)
    1912:	4942                	lw	s2,16(sp)
    1914:	8526                	mv	a0,s1
    1916:	44d2                	lw	s1,20(sp)
    1918:	6105                	addi	sp,sp,32
    191a:	a83d                	j	1958 <_write_r>

0000191c <__sseek>:
    191c:	1141                	addi	sp,sp,-16
    191e:	c422                	sw	s0,8(sp)
    1920:	842e                	mv	s0,a1
    1922:	00e59583          	lh	a1,14(a1)
    1926:	c606                	sw	ra,12(sp)
    1928:	2e79                	jal	1cc6 <_lseek_r>
    192a:	57fd                	li	a5,-1
    192c:	00c45703          	lhu	a4,12(s0)
    1930:	00f51b63          	bne	a0,a5,1946 <__sseek+0x2a>
    1934:	77fd                	lui	a5,0xfffff
    1936:	17fd                	addi	a5,a5,-1
    1938:	8ff9                	and	a5,a5,a4
    193a:	00f41623          	sh	a5,12(s0)
    193e:	40b2                	lw	ra,12(sp)
    1940:	4422                	lw	s0,8(sp)
    1942:	0141                	addi	sp,sp,16
    1944:	8082                	ret
    1946:	6785                	lui	a5,0x1
    1948:	8fd9                	or	a5,a5,a4
    194a:	00f41623          	sh	a5,12(s0)
    194e:	c828                	sw	a0,80(s0)
    1950:	b7fd                	j	193e <__sseek+0x22>

00001952 <__sclose>:
    1952:	00e59583          	lh	a1,14(a1)
    1956:	a229                	j	1a60 <_close_r>

00001958 <_write_r>:
    1958:	1141                	addi	sp,sp,-16
    195a:	c422                	sw	s0,8(sp)
    195c:	c226                	sw	s1,4(sp)
    195e:	84aa                	mv	s1,a0
    1960:	852e                	mv	a0,a1
    1962:	85b2                	mv	a1,a2
    1964:	8636                	mv	a2,a3
    1966:	c606                	sw	ra,12(sp)
    1968:	0601ac23          	sw	zero,120(gp) # 200880 <errno>
    196c:	939fe0ef          	jal	ra,2a4 <write>
    1970:	57fd                	li	a5,-1
    1972:	00f51663          	bne	a0,a5,197e <_write_r+0x26>
    1976:	0781a783          	lw	a5,120(gp) # 200880 <errno>
    197a:	c391                	beqz	a5,197e <_write_r+0x26>
    197c:	c09c                	sw	a5,0(s1)
    197e:	40b2                	lw	ra,12(sp)
    1980:	4422                	lw	s0,8(sp)
    1982:	4492                	lw	s1,4(sp)
    1984:	0141                	addi	sp,sp,16
    1986:	8082                	ret

00001988 <__swsetup_r>:
    1988:	1141                	addi	sp,sp,-16
    198a:	c226                	sw	s1,4(sp)
    198c:	84aa                	mv	s1,a0
    198e:	0381a503          	lw	a0,56(gp) # 200840 <_impure_ptr>
    1992:	c422                	sw	s0,8(sp)
    1994:	c606                	sw	ra,12(sp)
    1996:	842e                	mv	s0,a1
    1998:	c509                	beqz	a0,19a2 <__swsetup_r+0x1a>
    199a:	5d1c                	lw	a5,56(a0)
    199c:	e399                	bnez	a5,19a2 <__swsetup_r+0x1a>
    199e:	e97fe0ef          	jal	ra,834 <__sinit>
    19a2:	00c41703          	lh	a4,12(s0)
    19a6:	01071793          	slli	a5,a4,0x10
    19aa:	83c1                	srli	a5,a5,0x10
    19ac:	0087f693          	andi	a3,a5,8
    19b0:	eea9                	bnez	a3,1a0a <__swsetup_r+0x82>
    19b2:	0107f693          	andi	a3,a5,16
    19b6:	ee89                	bnez	a3,19d0 <__swsetup_r+0x48>
    19b8:	47a5                	li	a5,9
    19ba:	c09c                	sw	a5,0(s1)
    19bc:	04076713          	ori	a4,a4,64
    19c0:	00e41623          	sh	a4,12(s0)
    19c4:	557d                	li	a0,-1
    19c6:	40b2                	lw	ra,12(sp)
    19c8:	4422                	lw	s0,8(sp)
    19ca:	4492                	lw	s1,4(sp)
    19cc:	0141                	addi	sp,sp,16
    19ce:	8082                	ret
    19d0:	8b91                	andi	a5,a5,4
    19d2:	c795                	beqz	a5,19fe <__swsetup_r+0x76>
    19d4:	580c                	lw	a1,48(s0)
    19d6:	c991                	beqz	a1,19ea <__swsetup_r+0x62>
    19d8:	04040793          	addi	a5,s0,64
    19dc:	00f58563          	beq	a1,a5,19e6 <__swsetup_r+0x5e>
    19e0:	8526                	mv	a0,s1
    19e2:	814ff0ef          	jal	ra,9f6 <_free_r>
    19e6:	02042823          	sw	zero,48(s0)
    19ea:	00c45783          	lhu	a5,12(s0)
    19ee:	00042223          	sw	zero,4(s0)
    19f2:	fdb7f793          	andi	a5,a5,-37
    19f6:	00f41623          	sh	a5,12(s0)
    19fa:	481c                	lw	a5,16(s0)
    19fc:	c01c                	sw	a5,0(s0)
    19fe:	00c45783          	lhu	a5,12(s0)
    1a02:	0087e793          	ori	a5,a5,8
    1a06:	00f41623          	sh	a5,12(s0)
    1a0a:	481c                	lw	a5,16(s0)
    1a0c:	ef81                	bnez	a5,1a24 <__swsetup_r+0x9c>
    1a0e:	00c45783          	lhu	a5,12(s0)
    1a12:	20000713          	li	a4,512
    1a16:	2807f793          	andi	a5,a5,640
    1a1a:	00e78563          	beq	a5,a4,1a24 <__swsetup_r+0x9c>
    1a1e:	85a2                	mv	a1,s0
    1a20:	8526                	mv	a0,s1
    1a22:	2e25                	jal	1d5a <__smakebuf_r>
    1a24:	00c45783          	lhu	a5,12(s0)
    1a28:	0017f713          	andi	a4,a5,1
    1a2c:	c705                	beqz	a4,1a54 <__swsetup_r+0xcc>
    1a2e:	485c                	lw	a5,20(s0)
    1a30:	00042423          	sw	zero,8(s0)
    1a34:	40f007b3          	neg	a5,a5
    1a38:	cc1c                	sw	a5,24(s0)
    1a3a:	481c                	lw	a5,16(s0)
    1a3c:	4501                	li	a0,0
    1a3e:	f7c1                	bnez	a5,19c6 <__swsetup_r+0x3e>
    1a40:	00c41783          	lh	a5,12(s0)
    1a44:	0807f713          	andi	a4,a5,128
    1a48:	df3d                	beqz	a4,19c6 <__swsetup_r+0x3e>
    1a4a:	0407e793          	ori	a5,a5,64
    1a4e:	00f41623          	sh	a5,12(s0)
    1a52:	bf8d                	j	19c4 <__swsetup_r+0x3c>
    1a54:	8b89                	andi	a5,a5,2
    1a56:	4701                	li	a4,0
    1a58:	e391                	bnez	a5,1a5c <__swsetup_r+0xd4>
    1a5a:	4858                	lw	a4,20(s0)
    1a5c:	c418                	sw	a4,8(s0)
    1a5e:	bff1                	j	1a3a <__swsetup_r+0xb2>

00001a60 <_close_r>:
    1a60:	1141                	addi	sp,sp,-16
    1a62:	c422                	sw	s0,8(sp)
    1a64:	c226                	sw	s1,4(sp)
    1a66:	84aa                	mv	s1,a0
    1a68:	852e                	mv	a0,a1
    1a6a:	c606                	sw	ra,12(sp)
    1a6c:	0601ac23          	sw	zero,120(gp) # 200880 <errno>
    1a70:	f58fe0ef          	jal	ra,1c8 <close>
    1a74:	57fd                	li	a5,-1
    1a76:	00f51663          	bne	a0,a5,1a82 <_close_r+0x22>
    1a7a:	0781a783          	lw	a5,120(gp) # 200880 <errno>
    1a7e:	c391                	beqz	a5,1a82 <_close_r+0x22>
    1a80:	c09c                	sw	a5,0(s1)
    1a82:	40b2                	lw	ra,12(sp)
    1a84:	4422                	lw	s0,8(sp)
    1a86:	4492                	lw	s1,4(sp)
    1a88:	0141                	addi	sp,sp,16
    1a8a:	8082                	ret

00001a8c <_fclose_r>:
    1a8c:	1141                	addi	sp,sp,-16
    1a8e:	c606                	sw	ra,12(sp)
    1a90:	c422                	sw	s0,8(sp)
    1a92:	c226                	sw	s1,4(sp)
    1a94:	c04a                	sw	s2,0(sp)
    1a96:	e989                	bnez	a1,1aa8 <_fclose_r+0x1c>
    1a98:	4901                	li	s2,0
    1a9a:	40b2                	lw	ra,12(sp)
    1a9c:	4422                	lw	s0,8(sp)
    1a9e:	854a                	mv	a0,s2
    1aa0:	4492                	lw	s1,4(sp)
    1aa2:	4902                	lw	s2,0(sp)
    1aa4:	0141                	addi	sp,sp,16
    1aa6:	8082                	ret
    1aa8:	84aa                	mv	s1,a0
    1aaa:	842e                	mv	s0,a1
    1aac:	c509                	beqz	a0,1ab6 <_fclose_r+0x2a>
    1aae:	5d1c                	lw	a5,56(a0)
    1ab0:	e399                	bnez	a5,1ab6 <_fclose_r+0x2a>
    1ab2:	d83fe0ef          	jal	ra,834 <__sinit>
    1ab6:	00c41783          	lh	a5,12(s0)
    1aba:	dff9                	beqz	a5,1a98 <_fclose_r+0xc>
    1abc:	85a2                	mv	a1,s0
    1abe:	8526                	mv	a0,s1
    1ac0:	2085                	jal	1b20 <__sflush_r>
    1ac2:	545c                	lw	a5,44(s0)
    1ac4:	892a                	mv	s2,a0
    1ac6:	c799                	beqz	a5,1ad4 <_fclose_r+0x48>
    1ac8:	4c4c                	lw	a1,28(s0)
    1aca:	8526                	mv	a0,s1
    1acc:	9782                	jalr	a5
    1ace:	00055363          	bgez	a0,1ad4 <_fclose_r+0x48>
    1ad2:	597d                	li	s2,-1
    1ad4:	00c45783          	lhu	a5,12(s0)
    1ad8:	0807f793          	andi	a5,a5,128
    1adc:	c789                	beqz	a5,1ae6 <_fclose_r+0x5a>
    1ade:	480c                	lw	a1,16(s0)
    1ae0:	8526                	mv	a0,s1
    1ae2:	f15fe0ef          	jal	ra,9f6 <_free_r>
    1ae6:	580c                	lw	a1,48(s0)
    1ae8:	c991                	beqz	a1,1afc <_fclose_r+0x70>
    1aea:	04040793          	addi	a5,s0,64
    1aee:	00f58563          	beq	a1,a5,1af8 <_fclose_r+0x6c>
    1af2:	8526                	mv	a0,s1
    1af4:	f03fe0ef          	jal	ra,9f6 <_free_r>
    1af8:	02042823          	sw	zero,48(s0)
    1afc:	406c                	lw	a1,68(s0)
    1afe:	c591                	beqz	a1,1b0a <_fclose_r+0x7e>
    1b00:	8526                	mv	a0,s1
    1b02:	ef5fe0ef          	jal	ra,9f6 <_free_r>
    1b06:	04042223          	sw	zero,68(s0)
    1b0a:	e11fe0ef          	jal	ra,91a <__sfp_lock_acquire>
    1b0e:	00041623          	sh	zero,12(s0)
    1b12:	e0bfe0ef          	jal	ra,91c <__sfp_lock_release>
    1b16:	b751                	j	1a9a <_fclose_r+0xe>

00001b18 <fclose>:
    1b18:	85aa                	mv	a1,a0
    1b1a:	0381a503          	lw	a0,56(gp) # 200840 <_impure_ptr>
    1b1e:	b7bd                	j	1a8c <_fclose_r>

00001b20 <__sflush_r>:
    1b20:	00c59783          	lh	a5,12(a1)
    1b24:	1101                	addi	sp,sp,-32
    1b26:	cc22                	sw	s0,24(sp)
    1b28:	01079713          	slli	a4,a5,0x10
    1b2c:	8341                	srli	a4,a4,0x10
    1b2e:	ca26                	sw	s1,20(sp)
    1b30:	ce06                	sw	ra,28(sp)
    1b32:	c84a                	sw	s2,16(sp)
    1b34:	c64e                	sw	s3,12(sp)
    1b36:	00877693          	andi	a3,a4,8
    1b3a:	84aa                	mv	s1,a0
    1b3c:	842e                	mv	s0,a1
    1b3e:	eeed                	bnez	a3,1c38 <__sflush_r+0x118>
    1b40:	6705                	lui	a4,0x1
    1b42:	80070713          	addi	a4,a4,-2048 # 800 <__sfmoreglue+0x18>
    1b46:	8fd9                	or	a5,a5,a4
    1b48:	41d8                	lw	a4,4(a1)
    1b4a:	00f59623          	sh	a5,12(a1)
    1b4e:	00e04d63          	bgtz	a4,1b68 <__sflush_r+0x48>
    1b52:	5dd8                	lw	a4,60(a1)
    1b54:	00e04a63          	bgtz	a4,1b68 <__sflush_r+0x48>
    1b58:	4501                	li	a0,0
    1b5a:	40f2                	lw	ra,28(sp)
    1b5c:	4462                	lw	s0,24(sp)
    1b5e:	44d2                	lw	s1,20(sp)
    1b60:	4942                	lw	s2,16(sp)
    1b62:	49b2                	lw	s3,12(sp)
    1b64:	6105                	addi	sp,sp,32
    1b66:	8082                	ret
    1b68:	5418                	lw	a4,40(s0)
    1b6a:	d77d                	beqz	a4,1b58 <__sflush_r+0x38>
    1b6c:	0004a903          	lw	s2,0(s1)
    1b70:	01379693          	slli	a3,a5,0x13
    1b74:	0004a023          	sw	zero,0(s1)
    1b78:	4c4c                	lw	a1,28(s0)
    1b7a:	0806d663          	bgez	a3,1c06 <__sflush_r+0xe6>
    1b7e:	4830                	lw	a2,80(s0)
    1b80:	00c45783          	lhu	a5,12(s0)
    1b84:	8b91                	andi	a5,a5,4
    1b86:	c799                	beqz	a5,1b94 <__sflush_r+0x74>
    1b88:	405c                	lw	a5,4(s0)
    1b8a:	8e1d                	sub	a2,a2,a5
    1b8c:	581c                	lw	a5,48(s0)
    1b8e:	c399                	beqz	a5,1b94 <__sflush_r+0x74>
    1b90:	5c5c                	lw	a5,60(s0)
    1b92:	8e1d                	sub	a2,a2,a5
    1b94:	541c                	lw	a5,40(s0)
    1b96:	4c4c                	lw	a1,28(s0)
    1b98:	4681                	li	a3,0
    1b9a:	8526                	mv	a0,s1
    1b9c:	9782                	jalr	a5
    1b9e:	57fd                	li	a5,-1
    1ba0:	00c45683          	lhu	a3,12(s0)
    1ba4:	00f51d63          	bne	a0,a5,1bbe <__sflush_r+0x9e>
    1ba8:	409c                	lw	a5,0(s1)
    1baa:	4775                	li	a4,29
    1bac:	08f76063          	bltu	a4,a5,1c2c <__sflush_r+0x10c>
    1bb0:	20400737          	lui	a4,0x20400
    1bb4:	0705                	addi	a4,a4,1
    1bb6:	00f75733          	srl	a4,a4,a5
    1bba:	8b05                	andi	a4,a4,1
    1bbc:	cb25                	beqz	a4,1c2c <__sflush_r+0x10c>
    1bbe:	77fd                	lui	a5,0xfffff
    1bc0:	7ff78793          	addi	a5,a5,2047 # fffff7ff <pulp__FC+0xfffff800>
    1bc4:	4818                	lw	a4,16(s0)
    1bc6:	8ff5                	and	a5,a5,a3
    1bc8:	07c2                	slli	a5,a5,0x10
    1bca:	87c1                	srai	a5,a5,0x10
    1bcc:	c018                	sw	a4,0(s0)
    1bce:	00f41623          	sh	a5,12(s0)
    1bd2:	00042223          	sw	zero,4(s0)
    1bd6:	01379713          	slli	a4,a5,0x13
    1bda:	00075863          	bgez	a4,1bea <__sflush_r+0xca>
    1bde:	57fd                	li	a5,-1
    1be0:	00f51463          	bne	a0,a5,1be8 <__sflush_r+0xc8>
    1be4:	409c                	lw	a5,0(s1)
    1be6:	e391                	bnez	a5,1bea <__sflush_r+0xca>
    1be8:	c828                	sw	a0,80(s0)
    1bea:	580c                	lw	a1,48(s0)
    1bec:	0124a023          	sw	s2,0(s1)
    1bf0:	d5a5                	beqz	a1,1b58 <__sflush_r+0x38>
    1bf2:	04040793          	addi	a5,s0,64
    1bf6:	00f58563          	beq	a1,a5,1c00 <__sflush_r+0xe0>
    1bfa:	8526                	mv	a0,s1
    1bfc:	dfbfe0ef          	jal	ra,9f6 <_free_r>
    1c00:	02042823          	sw	zero,48(s0)
    1c04:	bf91                	j	1b58 <__sflush_r+0x38>
    1c06:	4601                	li	a2,0
    1c08:	4685                	li	a3,1
    1c0a:	8526                	mv	a0,s1
    1c0c:	9702                	jalr	a4
    1c0e:	57fd                	li	a5,-1
    1c10:	862a                	mv	a2,a0
    1c12:	f6f517e3          	bne	a0,a5,1b80 <__sflush_r+0x60>
    1c16:	409c                	lw	a5,0(s1)
    1c18:	d7a5                	beqz	a5,1b80 <__sflush_r+0x60>
    1c1a:	4775                	li	a4,29
    1c1c:	00e78563          	beq	a5,a4,1c26 <__sflush_r+0x106>
    1c20:	4759                	li	a4,22
    1c22:	04e79463          	bne	a5,a4,1c6a <__sflush_r+0x14a>
    1c26:	0124a023          	sw	s2,0(s1)
    1c2a:	b73d                	j	1b58 <__sflush_r+0x38>
    1c2c:	0406e793          	ori	a5,a3,64
    1c30:	00f41623          	sh	a5,12(s0)
    1c34:	557d                	li	a0,-1
    1c36:	b715                	j	1b5a <__sflush_r+0x3a>
    1c38:	0105a983          	lw	s3,16(a1)
    1c3c:	f0098ee3          	beqz	s3,1b58 <__sflush_r+0x38>
    1c40:	0005a903          	lw	s2,0(a1)
    1c44:	8b0d                	andi	a4,a4,3
    1c46:	0135a023          	sw	s3,0(a1)
    1c4a:	41390933          	sub	s2,s2,s3
    1c4e:	4781                	li	a5,0
    1c50:	e311                	bnez	a4,1c54 <__sflush_r+0x134>
    1c52:	49dc                	lw	a5,20(a1)
    1c54:	c41c                	sw	a5,8(s0)
    1c56:	f12051e3          	blez	s2,1b58 <__sflush_r+0x38>
    1c5a:	505c                	lw	a5,36(s0)
    1c5c:	4c4c                	lw	a1,28(s0)
    1c5e:	86ca                	mv	a3,s2
    1c60:	864e                	mv	a2,s3
    1c62:	8526                	mv	a0,s1
    1c64:	9782                	jalr	a5
    1c66:	00a04763          	bgtz	a0,1c74 <__sflush_r+0x154>
    1c6a:	00c45783          	lhu	a5,12(s0)
    1c6e:	0407e793          	ori	a5,a5,64
    1c72:	bf7d                	j	1c30 <__sflush_r+0x110>
    1c74:	99aa                	add	s3,s3,a0
    1c76:	40a90933          	sub	s2,s2,a0
    1c7a:	bff1                	j	1c56 <__sflush_r+0x136>

00001c7c <_fflush_r>:
    1c7c:	1101                	addi	sp,sp,-32
    1c7e:	cc22                	sw	s0,24(sp)
    1c80:	ce06                	sw	ra,28(sp)
    1c82:	842a                	mv	s0,a0
    1c84:	c519                	beqz	a0,1c92 <_fflush_r+0x16>
    1c86:	5d1c                	lw	a5,56(a0)
    1c88:	e789                	bnez	a5,1c92 <_fflush_r+0x16>
    1c8a:	c62e                	sw	a1,12(sp)
    1c8c:	ba9fe0ef          	jal	ra,834 <__sinit>
    1c90:	45b2                	lw	a1,12(sp)
    1c92:	00c59783          	lh	a5,12(a1)
    1c96:	c791                	beqz	a5,1ca2 <_fflush_r+0x26>
    1c98:	8522                	mv	a0,s0
    1c9a:	4462                	lw	s0,24(sp)
    1c9c:	40f2                	lw	ra,28(sp)
    1c9e:	6105                	addi	sp,sp,32
    1ca0:	b541                	j	1b20 <__sflush_r>
    1ca2:	40f2                	lw	ra,28(sp)
    1ca4:	4462                	lw	s0,24(sp)
    1ca6:	4501                	li	a0,0
    1ca8:	6105                	addi	sp,sp,32
    1caa:	8082                	ret

00001cac <fflush>:
    1cac:	85aa                	mv	a1,a0
    1cae:	e909                	bnez	a0,1cc0 <fflush+0x14>
    1cb0:	0341a503          	lw	a0,52(gp) # 20083c <_global_impure_ptr>
    1cb4:	000025b7          	lui	a1,0x2
    1cb8:	c7c58593          	addi	a1,a1,-900 # 1c7c <_fflush_r>
    1cbc:	a12ff06f          	j	ece <_fwalk_reent>
    1cc0:	0381a503          	lw	a0,56(gp) # 200840 <_impure_ptr>
    1cc4:	bf65                	j	1c7c <_fflush_r>

00001cc6 <_lseek_r>:
    1cc6:	1141                	addi	sp,sp,-16
    1cc8:	c422                	sw	s0,8(sp)
    1cca:	c226                	sw	s1,4(sp)
    1ccc:	84aa                	mv	s1,a0
    1cce:	852e                	mv	a0,a1
    1cd0:	85b2                	mv	a1,a2
    1cd2:	8636                	mv	a2,a3
    1cd4:	c606                	sw	ra,12(sp)
    1cd6:	0601ac23          	sw	zero,120(gp) # 200880 <errno>
    1cda:	d76fe0ef          	jal	ra,250 <lseek>
    1cde:	57fd                	li	a5,-1
    1ce0:	00f51663          	bne	a0,a5,1cec <_lseek_r+0x26>
    1ce4:	0781a783          	lw	a5,120(gp) # 200880 <errno>
    1ce8:	c391                	beqz	a5,1cec <_lseek_r+0x26>
    1cea:	c09c                	sw	a5,0(s1)
    1cec:	40b2                	lw	ra,12(sp)
    1cee:	4422                	lw	s0,8(sp)
    1cf0:	4492                	lw	s1,4(sp)
    1cf2:	0141                	addi	sp,sp,16
    1cf4:	8082                	ret

00001cf6 <__swhatbuf_r>:
    1cf6:	711d                	addi	sp,sp,-96
    1cf8:	caa6                	sw	s1,84(sp)
    1cfa:	84ae                	mv	s1,a1
    1cfc:	00e59583          	lh	a1,14(a1)
    1d00:	cca2                	sw	s0,88(sp)
    1d02:	ce86                	sw	ra,92(sp)
    1d04:	8432                	mv	s0,a2
    1d06:	0005dc63          	bgez	a1,1d1e <__swhatbuf_r+0x28>
    1d0a:	00c4d783          	lhu	a5,12(s1)
    1d0e:	0006a023          	sw	zero,0(a3)
    1d12:	0807f793          	andi	a5,a5,128
    1d16:	eb8d                	bnez	a5,1d48 <__swhatbuf_r+0x52>
    1d18:	40000793          	li	a5,1024
    1d1c:	a805                	j	1d4c <__swhatbuf_r+0x56>
    1d1e:	0850                	addi	a2,sp,20
    1d20:	c636                	sw	a3,12(sp)
    1d22:	2219                	jal	1e28 <_fstat_r>
    1d24:	46b2                	lw	a3,12(sp)
    1d26:	fe0542e3          	bltz	a0,1d0a <__swhatbuf_r+0x14>
    1d2a:	4762                	lw	a4,24(sp)
    1d2c:	67bd                	lui	a5,0xf
    1d2e:	6505                	lui	a0,0x1
    1d30:	8ff9                	and	a5,a5,a4
    1d32:	7779                	lui	a4,0xffffe
    1d34:	97ba                	add	a5,a5,a4
    1d36:	0017b793          	seqz	a5,a5
    1d3a:	c29c                	sw	a5,0(a3)
    1d3c:	40000793          	li	a5,1024
    1d40:	c01c                	sw	a5,0(s0)
    1d42:	80050513          	addi	a0,a0,-2048 # 800 <__sfmoreglue+0x18>
    1d46:	a029                	j	1d50 <__swhatbuf_r+0x5a>
    1d48:	04000793          	li	a5,64
    1d4c:	c01c                	sw	a5,0(s0)
    1d4e:	4501                	li	a0,0
    1d50:	40f6                	lw	ra,92(sp)
    1d52:	4466                	lw	s0,88(sp)
    1d54:	44d6                	lw	s1,84(sp)
    1d56:	6125                	addi	sp,sp,96
    1d58:	8082                	ret

00001d5a <__smakebuf_r>:
    1d5a:	00c5d783          	lhu	a5,12(a1)
    1d5e:	1101                	addi	sp,sp,-32
    1d60:	cc22                	sw	s0,24(sp)
    1d62:	ce06                	sw	ra,28(sp)
    1d64:	ca26                	sw	s1,20(sp)
    1d66:	c84a                	sw	s2,16(sp)
    1d68:	8b89                	andi	a5,a5,2
    1d6a:	842e                	mv	s0,a1
    1d6c:	cf89                	beqz	a5,1d86 <__smakebuf_r+0x2c>
    1d6e:	04340793          	addi	a5,s0,67
    1d72:	c01c                	sw	a5,0(s0)
    1d74:	c81c                	sw	a5,16(s0)
    1d76:	4785                	li	a5,1
    1d78:	c85c                	sw	a5,20(s0)
    1d7a:	40f2                	lw	ra,28(sp)
    1d7c:	4462                	lw	s0,24(sp)
    1d7e:	44d2                	lw	s1,20(sp)
    1d80:	4942                	lw	s2,16(sp)
    1d82:	6105                	addi	sp,sp,32
    1d84:	8082                	ret
    1d86:	0074                	addi	a3,sp,12
    1d88:	0030                	addi	a2,sp,8
    1d8a:	84aa                	mv	s1,a0
    1d8c:	37ad                	jal	1cf6 <__swhatbuf_r>
    1d8e:	45a2                	lw	a1,8(sp)
    1d90:	892a                	mv	s2,a0
    1d92:	8526                	mv	a0,s1
    1d94:	9a6ff0ef          	jal	ra,f3a <_malloc_r>
    1d98:	ed01                	bnez	a0,1db0 <__smakebuf_r+0x56>
    1d9a:	00c41783          	lh	a5,12(s0)
    1d9e:	2007f713          	andi	a4,a5,512
    1da2:	ff61                	bnez	a4,1d7a <__smakebuf_r+0x20>
    1da4:	9bf1                	andi	a5,a5,-4
    1da6:	0027e793          	ori	a5,a5,2
    1daa:	00f41623          	sh	a5,12(s0)
    1dae:	b7c1                	j	1d6e <__smakebuf_r+0x14>
    1db0:	000007b7          	lui	a5,0x0
    1db4:	77078793          	addi	a5,a5,1904 # 770 <_cleanup_r>
    1db8:	dcdc                	sw	a5,60(s1)
    1dba:	00c45783          	lhu	a5,12(s0)
    1dbe:	c008                	sw	a0,0(s0)
    1dc0:	c808                	sw	a0,16(s0)
    1dc2:	0807e793          	ori	a5,a5,128
    1dc6:	00f41623          	sh	a5,12(s0)
    1dca:	47a2                	lw	a5,8(sp)
    1dcc:	c85c                	sw	a5,20(s0)
    1dce:	47b2                	lw	a5,12(sp)
    1dd0:	cf89                	beqz	a5,1dea <__smakebuf_r+0x90>
    1dd2:	00e41583          	lh	a1,14(s0)
    1dd6:	8526                	mv	a0,s1
    1dd8:	28bd                	jal	1e56 <_isatty_r>
    1dda:	c901                	beqz	a0,1dea <__smakebuf_r+0x90>
    1ddc:	00c45783          	lhu	a5,12(s0)
    1de0:	9bf1                	andi	a5,a5,-4
    1de2:	0017e793          	ori	a5,a5,1
    1de6:	00f41623          	sh	a5,12(s0)
    1dea:	00c45783          	lhu	a5,12(s0)
    1dee:	00f96933          	or	s2,s2,a5
    1df2:	01241623          	sh	s2,12(s0)
    1df6:	b751                	j	1d7a <__smakebuf_r+0x20>

00001df8 <_read_r>:
    1df8:	1141                	addi	sp,sp,-16
    1dfa:	c422                	sw	s0,8(sp)
    1dfc:	c226                	sw	s1,4(sp)
    1dfe:	84aa                	mv	s1,a0
    1e00:	852e                	mv	a0,a1
    1e02:	85b2                	mv	a1,a2
    1e04:	8636                	mv	a2,a3
    1e06:	c606                	sw	ra,12(sp)
    1e08:	0601ac23          	sw	zero,120(gp) # 200880 <errno>
    1e0c:	c64fe0ef          	jal	ra,270 <read>
    1e10:	57fd                	li	a5,-1
    1e12:	00f51663          	bne	a0,a5,1e1e <_read_r+0x26>
    1e16:	0781a783          	lw	a5,120(gp) # 200880 <errno>
    1e1a:	c391                	beqz	a5,1e1e <_read_r+0x26>
    1e1c:	c09c                	sw	a5,0(s1)
    1e1e:	40b2                	lw	ra,12(sp)
    1e20:	4422                	lw	s0,8(sp)
    1e22:	4492                	lw	s1,4(sp)
    1e24:	0141                	addi	sp,sp,16
    1e26:	8082                	ret

00001e28 <_fstat_r>:
    1e28:	1141                	addi	sp,sp,-16
    1e2a:	c422                	sw	s0,8(sp)
    1e2c:	c226                	sw	s1,4(sp)
    1e2e:	84aa                	mv	s1,a0
    1e30:	852e                	mv	a0,a1
    1e32:	85b2                	mv	a1,a2
    1e34:	c606                	sw	ra,12(sp)
    1e36:	0601ac23          	sw	zero,120(gp) # 200880 <errno>
    1e3a:	bbefe0ef          	jal	ra,1f8 <fstat>
    1e3e:	57fd                	li	a5,-1
    1e40:	00f51663          	bne	a0,a5,1e4c <_fstat_r+0x24>
    1e44:	0781a783          	lw	a5,120(gp) # 200880 <errno>
    1e48:	c391                	beqz	a5,1e4c <_fstat_r+0x24>
    1e4a:	c09c                	sw	a5,0(s1)
    1e4c:	40b2                	lw	ra,12(sp)
    1e4e:	4422                	lw	s0,8(sp)
    1e50:	4492                	lw	s1,4(sp)
    1e52:	0141                	addi	sp,sp,16
    1e54:	8082                	ret

00001e56 <_isatty_r>:
    1e56:	1141                	addi	sp,sp,-16
    1e58:	c422                	sw	s0,8(sp)
    1e5a:	c226                	sw	s1,4(sp)
    1e5c:	84aa                	mv	s1,a0
    1e5e:	852e                	mv	a0,a1
    1e60:	c606                	sw	ra,12(sp)
    1e62:	0601ac23          	sw	zero,120(gp) # 200880 <errno>
    1e66:	bcefe0ef          	jal	ra,234 <isatty>
    1e6a:	57fd                	li	a5,-1
    1e6c:	00f51663          	bne	a0,a5,1e78 <_isatty_r+0x22>
    1e70:	0781a783          	lw	a5,120(gp) # 200880 <errno>
    1e74:	c391                	beqz	a5,1e78 <_isatty_r+0x22>
    1e76:	c09c                	sw	a5,0(s1)
    1e78:	40b2                	lw	ra,12(sp)
    1e7a:	4422                	lw	s0,8(sp)
    1e7c:	4492                	lw	s1,4(sp)
    1e7e:	0141                	addi	sp,sp,16
    1e80:	8082                	ret

Disassembly of section .rodata:

00001e84 <illegal_insn_msg-0x23>:
    1e84:	6e55                	lui	t3,0x15
    1e86:	6d69                	lui	s10,0x1a
    1e88:	6c70                	flw	fa2,92(s0)
    1e8a:	6d65                	lui	s10,0x19
    1e8c:	6e65                	lui	t3,0x19
    1e8e:	6574                	flw	fa3,76(a0)
    1e90:	2064                	fld	fs1,192(s0)
    1e92:	74737973          	csrrci	s2,0x747,6
    1e96:	6d65                	lui	s10,0x19
    1e98:	6320                	flw	fs0,64(a4)
    1e9a:	6c61                	lui	s8,0x18
    1e9c:	206c                	fld	fa1,192(s0)
    1e9e:	6c6c6163          	bltu	s8,t1,2560 <__TEST_RODATA_END+0x5ec>
    1ea2:	6465                	lui	s0,0x19
    1ea4:	0a21                	addi	s4,s4,8
	...

00001ea7 <illegal_insn_msg>:
    1ea7:	6c69                	lui	s8,0x1a
    1ea9:	656c                	flw	fa1,76(a0)
    1eab:	206c6167          	0x206c6167
    1eaf:	6e69                	lui	t3,0x1a
    1eb1:	75727473          	csrrci	s0,0x757,4
    1eb5:	6f697463          	bleu	s6,s2,259d <__TEST_RODATA_END+0x629>
    1eb9:	206e                	fld	ft0,216(sp)
    1ebb:	7865                	lui	a6,0xffff9
    1ebd:	74706563          	bltu	zero,t2,2607 <__TEST_RODATA_END+0x693>
    1ec1:	6f69                	lui	t5,0x1a
    1ec3:	206e                	fld	ft0,216(sp)
    1ec5:	6168                	flw	fa0,68(a0)
    1ec7:	646e                	flw	fs0,216(sp)
    1ec9:	656c                	flw	fa1,76(a0)
    1ecb:	2072                	fld	ft0,280(sp)
    1ecd:	6e65                	lui	t3,0x19
    1ecf:	6574                	flw	fa3,76(a0)
    1ed1:	6572                	flw	fa0,28(sp)
    1ed3:	0a64                	addi	s1,sp,284
	...

00001ed6 <ecall_msg>:
    1ed6:	6365                	lui	t1,0x19
    1ed8:	6c61                	lui	s8,0x18
    1eda:	206c                	fld	fa1,192(s0)
    1edc:	7865                	lui	a6,0xffff9
    1ede:	74706563          	bltu	zero,t2,2628 <__TEST_RODATA_END+0x6b4>
    1ee2:	6f69                	lui	t5,0x1a
    1ee4:	206e                	fld	ft0,216(sp)
    1ee6:	6168                	flw	fa0,68(a0)
    1ee8:	646e                	flw	fs0,216(sp)
    1eea:	656c                	flw	fa1,76(a0)
    1eec:	2072                	fld	ft0,280(sp)
    1eee:	6e65                	lui	t3,0x19
    1ef0:	6574                	flw	fa3,76(a0)
    1ef2:	6572                	flw	fa0,28(sp)
    1ef4:	0a64                	addi	s1,sp,284
	...

00001ef7 <ebreak_msg>:
    1ef7:	6265                	lui	tp,0x19
    1ef9:	6572                	flw	fa0,28(sp)
    1efb:	6b61                	lui	s6,0x18
    1efd:	6520                	flw	fs0,72(a0)
    1eff:	6378                	flw	fa4,68(a4)
    1f01:	7065                	0x7065
    1f03:	6974                	flw	fa3,84(a0)
    1f05:	68206e6f          	jal	t3,8587 <__TEST_RODATA_END+0x6613>
    1f09:	6e61                	lui	t3,0x18
    1f0b:	6c64                	flw	fs1,92(s0)
    1f0d:	7265                	lui	tp,0xffff9
    1f0f:	6520                	flw	fs0,72(a0)
    1f11:	746e                	flw	fs0,248(sp)
    1f13:	7265                	lui	tp,0xffff9
    1f15:	6465                	lui	s0,0x19
    1f17:	000a                	0xa

00001f19 <unknown_msg>:
    1f19:	6e75                	lui	t3,0x1d
    1f1b:	776f6e6b          	0x776f6e6b
    1f1f:	206e                	fld	ft0,216(sp)
    1f21:	7865                	lui	a6,0xffff9
    1f23:	74706563          	bltu	zero,t2,266d <__TEST_RODATA_END+0x6f9>
    1f27:	6f69                	lui	t5,0x1a
    1f29:	206e                	fld	ft0,216(sp)
    1f2b:	6168                	flw	fa0,68(a0)
    1f2d:	646e                	flw	fs0,216(sp)
    1f2f:	656c                	flw	fa1,76(a0)
    1f31:	2072                	fld	ft0,280(sp)
    1f33:	6e65                	lui	t3,0x19
    1f35:	6574                	flw	fa3,76(a0)
    1f37:	6572                	flw	fa0,28(sp)
    1f39:	0a64                	addi	s1,sp,284
	...

00001f3c <no_exception_handler_msg>:
    1f3c:	6f6e                	flw	ft10,216(sp)
    1f3e:	6520                	flw	fs0,72(a0)
    1f40:	6378                	flw	fa4,68(a4)
    1f42:	7065                	0x7065
    1f44:	6974                	flw	fa3,84(a0)
    1f46:	68206e6f          	jal	t3,85c8 <__TEST_RODATA_END+0x6654>
    1f4a:	6e61                	lui	t3,0x18
    1f4c:	6c64                	flw	fs1,92(s0)
    1f4e:	7265                	lui	tp,0xffff9
    1f50:	6920                	flw	fs0,80(a0)
    1f52:	736e                	flw	ft6,248(sp)
    1f54:	6174                	flw	fa3,68(a0)
    1f56:	6c6c                	flw	fa1,92(s0)
    1f58:	6465                	lui	s0,0x19
    1f5a:	000a                	0xa
    1f5c:	000a                	0xa
	...

Disassembly of section .TEST_RODATA:

00001f60 <__TEST_RODATA_START>:
    1f60:	5678                	lw	a4,108(a2)
    1f62:	1234                	addi	a3,sp,296
    1f64:	cafe                	sw	t6,84(sp)
    1f66:	cafe                	sw	t6,84(sp)
    1f68:	deadbeef          	jal	t4,fffdd552 <pulp__FC+0xfffdd553>

00001f6c <OTHER_PATTERNS>:
	...

Disassembly of section .TEST_DATA:

00200000 <__TEST_DATA_START>:
  200000:	0000                	unimp
	...

Disassembly of section .data:

00200008 <__DATA_BEGIN__>:
  200008:	0000                	unimp
  20000a:	0000                	unimp
  20000c:	02f4                	addi	a3,sp,332
  20000e:	0020                	addi	s0,sp,8
  200010:	035c                	addi	a5,sp,388
  200012:	0020                	addi	s0,sp,8
  200014:	03c4                	addi	s1,sp,452
  200016:	0020                	addi	s0,sp,8
	...
  2000b0:	0001                	nop
  2000b2:	0000                	unimp
  2000b4:	0000                	unimp
  2000b6:	0000                	unimp
  2000b8:	330e                	fld	ft6,224(sp)
  2000ba:	abcd                	j	2006ac <__malloc_av_+0x27c>
  2000bc:	1234                	addi	a3,sp,296
  2000be:	e66d                	bnez	a2,2001a8 <__DATA_BEGIN__+0x1a0>
  2000c0:	deec                	sw	a1,124(a3)
  2000c2:	0005                	c.addi	zero,1
  2000c4:	0000000b          	p.lb	zero,0(zero!) # 0 <__vector_start>
	...

00200430 <__malloc_av_>:
	...
  200438:	0430                	addi	a2,sp,520
  20043a:	0020                	addi	s0,sp,8
  20043c:	0430                	addi	a2,sp,520
  20043e:	0020                	addi	s0,sp,8
  200440:	0438                	addi	a4,sp,520
  200442:	0020                	addi	s0,sp,8
  200444:	0438                	addi	a4,sp,520
  200446:	0020                	addi	s0,sp,8
  200448:	0440                	addi	s0,sp,516
  20044a:	0020                	addi	s0,sp,8
  20044c:	0440                	addi	s0,sp,516
  20044e:	0020                	addi	s0,sp,8
  200450:	0448                	addi	a0,sp,516
  200452:	0020                	addi	s0,sp,8
  200454:	0448                	addi	a0,sp,516
  200456:	0020                	addi	s0,sp,8
  200458:	0450                	addi	a2,sp,516
  20045a:	0020                	addi	s0,sp,8
  20045c:	0450                	addi	a2,sp,516
  20045e:	0020                	addi	s0,sp,8
  200460:	0458                	addi	a4,sp,516
  200462:	0020                	addi	s0,sp,8
  200464:	0458                	addi	a4,sp,516
  200466:	0020                	addi	s0,sp,8
  200468:	0460                	addi	s0,sp,524
  20046a:	0020                	addi	s0,sp,8
  20046c:	0460                	addi	s0,sp,524
  20046e:	0020                	addi	s0,sp,8
  200470:	0468                	addi	a0,sp,524
  200472:	0020                	addi	s0,sp,8
  200474:	0468                	addi	a0,sp,524
  200476:	0020                	addi	s0,sp,8
  200478:	0470                	addi	a2,sp,524
  20047a:	0020                	addi	s0,sp,8
  20047c:	0470                	addi	a2,sp,524
  20047e:	0020                	addi	s0,sp,8
  200480:	0478                	addi	a4,sp,524
  200482:	0020                	addi	s0,sp,8
  200484:	0478                	addi	a4,sp,524
  200486:	0020                	addi	s0,sp,8
  200488:	0480                	addi	s0,sp,576
  20048a:	0020                	addi	s0,sp,8
  20048c:	0480                	addi	s0,sp,576
  20048e:	0020                	addi	s0,sp,8
  200490:	0488                	addi	a0,sp,576
  200492:	0020                	addi	s0,sp,8
  200494:	0488                	addi	a0,sp,576
  200496:	0020                	addi	s0,sp,8
  200498:	0490                	addi	a2,sp,576
  20049a:	0020                	addi	s0,sp,8
  20049c:	0490                	addi	a2,sp,576
  20049e:	0020                	addi	s0,sp,8
  2004a0:	0498                	addi	a4,sp,576
  2004a2:	0020                	addi	s0,sp,8
  2004a4:	0498                	addi	a4,sp,576
  2004a6:	0020                	addi	s0,sp,8
  2004a8:	04a0                	addi	s0,sp,584
  2004aa:	0020                	addi	s0,sp,8
  2004ac:	04a0                	addi	s0,sp,584
  2004ae:	0020                	addi	s0,sp,8
  2004b0:	04a8                	addi	a0,sp,584
  2004b2:	0020                	addi	s0,sp,8
  2004b4:	04a8                	addi	a0,sp,584
  2004b6:	0020                	addi	s0,sp,8
  2004b8:	04b0                	addi	a2,sp,584
  2004ba:	0020                	addi	s0,sp,8
  2004bc:	04b0                	addi	a2,sp,584
  2004be:	0020                	addi	s0,sp,8
  2004c0:	04b8                	addi	a4,sp,584
  2004c2:	0020                	addi	s0,sp,8
  2004c4:	04b8                	addi	a4,sp,584
  2004c6:	0020                	addi	s0,sp,8
  2004c8:	04c0                	addi	s0,sp,580
  2004ca:	0020                	addi	s0,sp,8
  2004cc:	04c0                	addi	s0,sp,580
  2004ce:	0020                	addi	s0,sp,8
  2004d0:	04c8                	addi	a0,sp,580
  2004d2:	0020                	addi	s0,sp,8
  2004d4:	04c8                	addi	a0,sp,580
  2004d6:	0020                	addi	s0,sp,8
  2004d8:	04d0                	addi	a2,sp,580
  2004da:	0020                	addi	s0,sp,8
  2004dc:	04d0                	addi	a2,sp,580
  2004de:	0020                	addi	s0,sp,8
  2004e0:	04d8                	addi	a4,sp,580
  2004e2:	0020                	addi	s0,sp,8
  2004e4:	04d8                	addi	a4,sp,580
  2004e6:	0020                	addi	s0,sp,8
  2004e8:	04e0                	addi	s0,sp,588
  2004ea:	0020                	addi	s0,sp,8
  2004ec:	04e0                	addi	s0,sp,588
  2004ee:	0020                	addi	s0,sp,8
  2004f0:	04e8                	addi	a0,sp,588
  2004f2:	0020                	addi	s0,sp,8
  2004f4:	04e8                	addi	a0,sp,588
  2004f6:	0020                	addi	s0,sp,8
  2004f8:	04f0                	addi	a2,sp,588
  2004fa:	0020                	addi	s0,sp,8
  2004fc:	04f0                	addi	a2,sp,588
  2004fe:	0020                	addi	s0,sp,8
  200500:	04f8                	addi	a4,sp,588
  200502:	0020                	addi	s0,sp,8
  200504:	04f8                	addi	a4,sp,588
  200506:	0020                	addi	s0,sp,8
  200508:	0500                	addi	s0,sp,640
  20050a:	0020                	addi	s0,sp,8
  20050c:	0500                	addi	s0,sp,640
  20050e:	0020                	addi	s0,sp,8
  200510:	0508                	addi	a0,sp,640
  200512:	0020                	addi	s0,sp,8
  200514:	0508                	addi	a0,sp,640
  200516:	0020                	addi	s0,sp,8
  200518:	0510                	addi	a2,sp,640
  20051a:	0020                	addi	s0,sp,8
  20051c:	0510                	addi	a2,sp,640
  20051e:	0020                	addi	s0,sp,8
  200520:	0518                	addi	a4,sp,640
  200522:	0020                	addi	s0,sp,8
  200524:	0518                	addi	a4,sp,640
  200526:	0020                	addi	s0,sp,8
  200528:	0520                	addi	s0,sp,648
  20052a:	0020                	addi	s0,sp,8
  20052c:	0520                	addi	s0,sp,648
  20052e:	0020                	addi	s0,sp,8
  200530:	0528                	addi	a0,sp,648
  200532:	0020                	addi	s0,sp,8
  200534:	0528                	addi	a0,sp,648
  200536:	0020                	addi	s0,sp,8
  200538:	0530                	addi	a2,sp,648
  20053a:	0020                	addi	s0,sp,8
  20053c:	0530                	addi	a2,sp,648
  20053e:	0020                	addi	s0,sp,8
  200540:	0538                	addi	a4,sp,648
  200542:	0020                	addi	s0,sp,8
  200544:	0538                	addi	a4,sp,648
  200546:	0020                	addi	s0,sp,8
  200548:	0540                	addi	s0,sp,644
  20054a:	0020                	addi	s0,sp,8
  20054c:	0540                	addi	s0,sp,644
  20054e:	0020                	addi	s0,sp,8
  200550:	0548                	addi	a0,sp,644
  200552:	0020                	addi	s0,sp,8
  200554:	0548                	addi	a0,sp,644
  200556:	0020                	addi	s0,sp,8
  200558:	0550                	addi	a2,sp,644
  20055a:	0020                	addi	s0,sp,8
  20055c:	0550                	addi	a2,sp,644
  20055e:	0020                	addi	s0,sp,8
  200560:	0558                	addi	a4,sp,644
  200562:	0020                	addi	s0,sp,8
  200564:	0558                	addi	a4,sp,644
  200566:	0020                	addi	s0,sp,8
  200568:	0560                	addi	s0,sp,652
  20056a:	0020                	addi	s0,sp,8
  20056c:	0560                	addi	s0,sp,652
  20056e:	0020                	addi	s0,sp,8
  200570:	0568                	addi	a0,sp,652
  200572:	0020                	addi	s0,sp,8
  200574:	0568                	addi	a0,sp,652
  200576:	0020                	addi	s0,sp,8
  200578:	0570                	addi	a2,sp,652
  20057a:	0020                	addi	s0,sp,8
  20057c:	0570                	addi	a2,sp,652
  20057e:	0020                	addi	s0,sp,8
  200580:	0578                	addi	a4,sp,652
  200582:	0020                	addi	s0,sp,8
  200584:	0578                	addi	a4,sp,652
  200586:	0020                	addi	s0,sp,8
  200588:	0580                	addi	s0,sp,704
  20058a:	0020                	addi	s0,sp,8
  20058c:	0580                	addi	s0,sp,704
  20058e:	0020                	addi	s0,sp,8
  200590:	0588                	addi	a0,sp,704
  200592:	0020                	addi	s0,sp,8
  200594:	0588                	addi	a0,sp,704
  200596:	0020                	addi	s0,sp,8
  200598:	0590                	addi	a2,sp,704
  20059a:	0020                	addi	s0,sp,8
  20059c:	0590                	addi	a2,sp,704
  20059e:	0020                	addi	s0,sp,8
  2005a0:	0598                	addi	a4,sp,704
  2005a2:	0020                	addi	s0,sp,8
  2005a4:	0598                	addi	a4,sp,704
  2005a6:	0020                	addi	s0,sp,8
  2005a8:	05a0                	addi	s0,sp,712
  2005aa:	0020                	addi	s0,sp,8
  2005ac:	05a0                	addi	s0,sp,712
  2005ae:	0020                	addi	s0,sp,8
  2005b0:	05a8                	addi	a0,sp,712
  2005b2:	0020                	addi	s0,sp,8
  2005b4:	05a8                	addi	a0,sp,712
  2005b6:	0020                	addi	s0,sp,8
  2005b8:	05b0                	addi	a2,sp,712
  2005ba:	0020                	addi	s0,sp,8
  2005bc:	05b0                	addi	a2,sp,712
  2005be:	0020                	addi	s0,sp,8
  2005c0:	05b8                	addi	a4,sp,712
  2005c2:	0020                	addi	s0,sp,8
  2005c4:	05b8                	addi	a4,sp,712
  2005c6:	0020                	addi	s0,sp,8
  2005c8:	05c0                	addi	s0,sp,708
  2005ca:	0020                	addi	s0,sp,8
  2005cc:	05c0                	addi	s0,sp,708
  2005ce:	0020                	addi	s0,sp,8
  2005d0:	05c8                	addi	a0,sp,708
  2005d2:	0020                	addi	s0,sp,8
  2005d4:	05c8                	addi	a0,sp,708
  2005d6:	0020                	addi	s0,sp,8
  2005d8:	05d0                	addi	a2,sp,708
  2005da:	0020                	addi	s0,sp,8
  2005dc:	05d0                	addi	a2,sp,708
  2005de:	0020                	addi	s0,sp,8
  2005e0:	05d8                	addi	a4,sp,708
  2005e2:	0020                	addi	s0,sp,8
  2005e4:	05d8                	addi	a4,sp,708
  2005e6:	0020                	addi	s0,sp,8
  2005e8:	05e0                	addi	s0,sp,716
  2005ea:	0020                	addi	s0,sp,8
  2005ec:	05e0                	addi	s0,sp,716
  2005ee:	0020                	addi	s0,sp,8
  2005f0:	05e8                	addi	a0,sp,716
  2005f2:	0020                	addi	s0,sp,8
  2005f4:	05e8                	addi	a0,sp,716
  2005f6:	0020                	addi	s0,sp,8
  2005f8:	05f0                	addi	a2,sp,716
  2005fa:	0020                	addi	s0,sp,8
  2005fc:	05f0                	addi	a2,sp,716
  2005fe:	0020                	addi	s0,sp,8
  200600:	05f8                	addi	a4,sp,716
  200602:	0020                	addi	s0,sp,8
  200604:	05f8                	addi	a4,sp,716
  200606:	0020                	addi	s0,sp,8
  200608:	0600                	addi	s0,sp,768
  20060a:	0020                	addi	s0,sp,8
  20060c:	0600                	addi	s0,sp,768
  20060e:	0020                	addi	s0,sp,8
  200610:	0608                	addi	a0,sp,768
  200612:	0020                	addi	s0,sp,8
  200614:	0608                	addi	a0,sp,768
  200616:	0020                	addi	s0,sp,8
  200618:	0610                	addi	a2,sp,768
  20061a:	0020                	addi	s0,sp,8
  20061c:	0610                	addi	a2,sp,768
  20061e:	0020                	addi	s0,sp,8
  200620:	0618                	addi	a4,sp,768
  200622:	0020                	addi	s0,sp,8
  200624:	0618                	addi	a4,sp,768
  200626:	0020                	addi	s0,sp,8
  200628:	0620                	addi	s0,sp,776
  20062a:	0020                	addi	s0,sp,8
  20062c:	0620                	addi	s0,sp,776
  20062e:	0020                	addi	s0,sp,8
  200630:	0628                	addi	a0,sp,776
  200632:	0020                	addi	s0,sp,8
  200634:	0628                	addi	a0,sp,776
  200636:	0020                	addi	s0,sp,8
  200638:	0630                	addi	a2,sp,776
  20063a:	0020                	addi	s0,sp,8
  20063c:	0630                	addi	a2,sp,776
  20063e:	0020                	addi	s0,sp,8
  200640:	0638                	addi	a4,sp,776
  200642:	0020                	addi	s0,sp,8
  200644:	0638                	addi	a4,sp,776
  200646:	0020                	addi	s0,sp,8
  200648:	0640                	addi	s0,sp,772
  20064a:	0020                	addi	s0,sp,8
  20064c:	0640                	addi	s0,sp,772
  20064e:	0020                	addi	s0,sp,8
  200650:	0648                	addi	a0,sp,772
  200652:	0020                	addi	s0,sp,8
  200654:	0648                	addi	a0,sp,772
  200656:	0020                	addi	s0,sp,8
  200658:	0650                	addi	a2,sp,772
  20065a:	0020                	addi	s0,sp,8
  20065c:	0650                	addi	a2,sp,772
  20065e:	0020                	addi	s0,sp,8
  200660:	0658                	addi	a4,sp,772
  200662:	0020                	addi	s0,sp,8
  200664:	0658                	addi	a4,sp,772
  200666:	0020                	addi	s0,sp,8
  200668:	0660                	addi	s0,sp,780
  20066a:	0020                	addi	s0,sp,8
  20066c:	0660                	addi	s0,sp,780
  20066e:	0020                	addi	s0,sp,8
  200670:	0668                	addi	a0,sp,780
  200672:	0020                	addi	s0,sp,8
  200674:	0668                	addi	a0,sp,780
  200676:	0020                	addi	s0,sp,8
  200678:	0670                	addi	a2,sp,780
  20067a:	0020                	addi	s0,sp,8
  20067c:	0670                	addi	a2,sp,780
  20067e:	0020                	addi	s0,sp,8
  200680:	0678                	addi	a4,sp,780
  200682:	0020                	addi	s0,sp,8
  200684:	0678                	addi	a4,sp,780
  200686:	0020                	addi	s0,sp,8
  200688:	0680                	addi	s0,sp,832
  20068a:	0020                	addi	s0,sp,8
  20068c:	0680                	addi	s0,sp,832
  20068e:	0020                	addi	s0,sp,8
  200690:	0688                	addi	a0,sp,832
  200692:	0020                	addi	s0,sp,8
  200694:	0688                	addi	a0,sp,832
  200696:	0020                	addi	s0,sp,8
  200698:	0690                	addi	a2,sp,832
  20069a:	0020                	addi	s0,sp,8
  20069c:	0690                	addi	a2,sp,832
  20069e:	0020                	addi	s0,sp,8
  2006a0:	0698                	addi	a4,sp,832
  2006a2:	0020                	addi	s0,sp,8
  2006a4:	0698                	addi	a4,sp,832
  2006a6:	0020                	addi	s0,sp,8
  2006a8:	06a0                	addi	s0,sp,840
  2006aa:	0020                	addi	s0,sp,8
  2006ac:	06a0                	addi	s0,sp,840
  2006ae:	0020                	addi	s0,sp,8
  2006b0:	06a8                	addi	a0,sp,840
  2006b2:	0020                	addi	s0,sp,8
  2006b4:	06a8                	addi	a0,sp,840
  2006b6:	0020                	addi	s0,sp,8
  2006b8:	06b0                	addi	a2,sp,840
  2006ba:	0020                	addi	s0,sp,8
  2006bc:	06b0                	addi	a2,sp,840
  2006be:	0020                	addi	s0,sp,8
  2006c0:	06b8                	addi	a4,sp,840
  2006c2:	0020                	addi	s0,sp,8
  2006c4:	06b8                	addi	a4,sp,840
  2006c6:	0020                	addi	s0,sp,8
  2006c8:	06c0                	addi	s0,sp,836
  2006ca:	0020                	addi	s0,sp,8
  2006cc:	06c0                	addi	s0,sp,836
  2006ce:	0020                	addi	s0,sp,8
  2006d0:	06c8                	addi	a0,sp,836
  2006d2:	0020                	addi	s0,sp,8
  2006d4:	06c8                	addi	a0,sp,836
  2006d6:	0020                	addi	s0,sp,8
  2006d8:	06d0                	addi	a2,sp,836
  2006da:	0020                	addi	s0,sp,8
  2006dc:	06d0                	addi	a2,sp,836
  2006de:	0020                	addi	s0,sp,8
  2006e0:	06d8                	addi	a4,sp,836
  2006e2:	0020                	addi	s0,sp,8
  2006e4:	06d8                	addi	a4,sp,836
  2006e6:	0020                	addi	s0,sp,8
  2006e8:	06e0                	addi	s0,sp,844
  2006ea:	0020                	addi	s0,sp,8
  2006ec:	06e0                	addi	s0,sp,844
  2006ee:	0020                	addi	s0,sp,8
  2006f0:	06e8                	addi	a0,sp,844
  2006f2:	0020                	addi	s0,sp,8
  2006f4:	06e8                	addi	a0,sp,844
  2006f6:	0020                	addi	s0,sp,8
  2006f8:	06f0                	addi	a2,sp,844
  2006fa:	0020                	addi	s0,sp,8
  2006fc:	06f0                	addi	a2,sp,844
  2006fe:	0020                	addi	s0,sp,8
  200700:	06f8                	addi	a4,sp,844
  200702:	0020                	addi	s0,sp,8
  200704:	06f8                	addi	a4,sp,844
  200706:	0020                	addi	s0,sp,8
  200708:	0700                	addi	s0,sp,896
  20070a:	0020                	addi	s0,sp,8
  20070c:	0700                	addi	s0,sp,896
  20070e:	0020                	addi	s0,sp,8
  200710:	0708                	addi	a0,sp,896
  200712:	0020                	addi	s0,sp,8
  200714:	0708                	addi	a0,sp,896
  200716:	0020                	addi	s0,sp,8
  200718:	0710                	addi	a2,sp,896
  20071a:	0020                	addi	s0,sp,8
  20071c:	0710                	addi	a2,sp,896
  20071e:	0020                	addi	s0,sp,8
  200720:	0718                	addi	a4,sp,896
  200722:	0020                	addi	s0,sp,8
  200724:	0718                	addi	a4,sp,896
  200726:	0020                	addi	s0,sp,8
  200728:	0720                	addi	s0,sp,904
  20072a:	0020                	addi	s0,sp,8
  20072c:	0720                	addi	s0,sp,904
  20072e:	0020                	addi	s0,sp,8
  200730:	0728                	addi	a0,sp,904
  200732:	0020                	addi	s0,sp,8
  200734:	0728                	addi	a0,sp,904
  200736:	0020                	addi	s0,sp,8
  200738:	0730                	addi	a2,sp,904
  20073a:	0020                	addi	s0,sp,8
  20073c:	0730                	addi	a2,sp,904
  20073e:	0020                	addi	s0,sp,8
  200740:	0738                	addi	a4,sp,904
  200742:	0020                	addi	s0,sp,8
  200744:	0738                	addi	a4,sp,904
  200746:	0020                	addi	s0,sp,8
  200748:	0740                	addi	s0,sp,900
  20074a:	0020                	addi	s0,sp,8
  20074c:	0740                	addi	s0,sp,900
  20074e:	0020                	addi	s0,sp,8
  200750:	0748                	addi	a0,sp,900
  200752:	0020                	addi	s0,sp,8
  200754:	0748                	addi	a0,sp,900
  200756:	0020                	addi	s0,sp,8
  200758:	0750                	addi	a2,sp,900
  20075a:	0020                	addi	s0,sp,8
  20075c:	0750                	addi	a2,sp,900
  20075e:	0020                	addi	s0,sp,8
  200760:	0758                	addi	a4,sp,900
  200762:	0020                	addi	s0,sp,8
  200764:	0758                	addi	a4,sp,900
  200766:	0020                	addi	s0,sp,8
  200768:	0760                	addi	s0,sp,908
  20076a:	0020                	addi	s0,sp,8
  20076c:	0760                	addi	s0,sp,908
  20076e:	0020                	addi	s0,sp,8
  200770:	0768                	addi	a0,sp,908
  200772:	0020                	addi	s0,sp,8
  200774:	0768                	addi	a0,sp,908
  200776:	0020                	addi	s0,sp,8
  200778:	0770                	addi	a2,sp,908
  20077a:	0020                	addi	s0,sp,8
  20077c:	0770                	addi	a2,sp,908
  20077e:	0020                	addi	s0,sp,8
  200780:	0778                	addi	a4,sp,908
  200782:	0020                	addi	s0,sp,8
  200784:	0778                	addi	a4,sp,908
  200786:	0020                	addi	s0,sp,8
  200788:	0780                	addi	s0,sp,960
  20078a:	0020                	addi	s0,sp,8
  20078c:	0780                	addi	s0,sp,960
  20078e:	0020                	addi	s0,sp,8
  200790:	0788                	addi	a0,sp,960
  200792:	0020                	addi	s0,sp,8
  200794:	0788                	addi	a0,sp,960
  200796:	0020                	addi	s0,sp,8
  200798:	0790                	addi	a2,sp,960
  20079a:	0020                	addi	s0,sp,8
  20079c:	0790                	addi	a2,sp,960
  20079e:	0020                	addi	s0,sp,8
  2007a0:	0798                	addi	a4,sp,960
  2007a2:	0020                	addi	s0,sp,8
  2007a4:	0798                	addi	a4,sp,960
  2007a6:	0020                	addi	s0,sp,8
  2007a8:	07a0                	addi	s0,sp,968
  2007aa:	0020                	addi	s0,sp,8
  2007ac:	07a0                	addi	s0,sp,968
  2007ae:	0020                	addi	s0,sp,8
  2007b0:	07a8                	addi	a0,sp,968
  2007b2:	0020                	addi	s0,sp,8
  2007b4:	07a8                	addi	a0,sp,968
  2007b6:	0020                	addi	s0,sp,8
  2007b8:	07b0                	addi	a2,sp,968
  2007ba:	0020                	addi	s0,sp,8
  2007bc:	07b0                	addi	a2,sp,968
  2007be:	0020                	addi	s0,sp,8
  2007c0:	07b8                	addi	a4,sp,968
  2007c2:	0020                	addi	s0,sp,8
  2007c4:	07b8                	addi	a4,sp,968
  2007c6:	0020                	addi	s0,sp,8
  2007c8:	07c0                	addi	s0,sp,964
  2007ca:	0020                	addi	s0,sp,8
  2007cc:	07c0                	addi	s0,sp,964
  2007ce:	0020                	addi	s0,sp,8
  2007d0:	07c8                	addi	a0,sp,964
  2007d2:	0020                	addi	s0,sp,8
  2007d4:	07c8                	addi	a0,sp,964
  2007d6:	0020                	addi	s0,sp,8
  2007d8:	07d0                	addi	a2,sp,964
  2007da:	0020                	addi	s0,sp,8
  2007dc:	07d0                	addi	a2,sp,964
  2007de:	0020                	addi	s0,sp,8
  2007e0:	07d8                	addi	a4,sp,964
  2007e2:	0020                	addi	s0,sp,8
  2007e4:	07d8                	addi	a4,sp,964
  2007e6:	0020                	addi	s0,sp,8
  2007e8:	07e0                	addi	s0,sp,972
  2007ea:	0020                	addi	s0,sp,8
  2007ec:	07e0                	addi	s0,sp,972
  2007ee:	0020                	addi	s0,sp,8
  2007f0:	07e8                	addi	a0,sp,972
  2007f2:	0020                	addi	s0,sp,8
  2007f4:	07e8                	addi	a0,sp,972
  2007f6:	0020                	addi	s0,sp,8
  2007f8:	07f0                	addi	a2,sp,972
  2007fa:	0020                	addi	s0,sp,8
  2007fc:	07f0                	addi	a2,sp,972
  2007fe:	0020                	addi	s0,sp,8
  200800:	07f8                	addi	a4,sp,972
  200802:	0020                	addi	s0,sp,8
  200804:	07f8                	addi	a4,sp,972
  200806:	0020                	addi	s0,sp,8
  200808:	0800                	addi	s0,sp,16
  20080a:	0020                	addi	s0,sp,8
  20080c:	0800                	addi	s0,sp,16
  20080e:	0020                	addi	s0,sp,8
  200810:	0808                	addi	a0,sp,16
  200812:	0020                	addi	s0,sp,8
  200814:	0808                	addi	a0,sp,16
  200816:	0020                	addi	s0,sp,8
  200818:	0810                	addi	a2,sp,16
  20081a:	0020                	addi	s0,sp,8
  20081c:	0810                	addi	a2,sp,16
  20081e:	0020                	addi	s0,sp,8
  200820:	0818                	addi	a4,sp,16
  200822:	0020                	addi	s0,sp,8
  200824:	0818                	addi	a4,sp,16
  200826:	0020                	addi	s0,sp,8
  200828:	0820                	addi	s0,sp,24
  20082a:	0020                	addi	s0,sp,8
  20082c:	0820                	addi	s0,sp,24
  20082e:	0020                	addi	s0,sp,8
  200830:	0828                	addi	a0,sp,24
  200832:	0020                	addi	s0,sp,8
  200834:	0828                	addi	a0,sp,24
  200836:	0020                	addi	s0,sp,8

Disassembly of section .sdata:

00200838 <__SDATA_BEGIN__>:
  200838:	0884                	addi	s1,sp,80
  20083a:	0020                	addi	s0,sp,8

0020083c <_global_impure_ptr>:
  20083c:	0008                	addi	a0,sp,0
  20083e:	0020                	addi	s0,sp,8

00200840 <_impure_ptr>:
  200840:	0008                	addi	a0,sp,0
  200842:	0020                	addi	s0,sp,8

00200844 <__malloc_sbrk_base>:
  200844:	ffff                	0xffff
  200846:	ffff                	0xffff

00200848 <__malloc_trim_threshold>:
  200848:	0000                	unimp
  20084a:	0002                	0x2

Disassembly of section .sbss:

0020084c <__malloc_max_total_mem>:
  20084c:	0000                	unimp
	...

00200850 <__malloc_max_sbrked_mem>:
  200850:	0000                	unimp
	...

00200854 <__malloc_top_pad>:
  200854:	0000                	unimp
	...

Disassembly of section .bss:

00200858 <__malloc_current_mallinfo>:
	...

00200880 <errno>:
  200880:	0000                	unimp
	...

Disassembly of section .heap:

00200884 <__heap_start>:
	...

Disassembly of section .stack:

00200c90 <_sp-0x400>:
	...

Disassembly of section .comment:

00000000 <.comment>:
   0:	3a434347          	fmsub.d	ft6,ft6,ft4,ft7,rmm
   4:	2820                	fld	fs0,80(s0)
   6:	29554e47          	fmsub.s	ft8,fa0,fs5,ft5,rmm
   a:	3720                	fld	fs0,104(a4)
   c:	312e                	fld	ft2,232(sp)
   e:	312e                	fld	ft2,232(sp)
  10:	3220                	fld	fs0,96(a2)
  12:	3130                	fld	fa2,96(a0)
  14:	30353037          	lui	zero,0x30353
  18:	0039                	c.addi	zero,14

Disassembly of section .Pulp_Chip.Info:

00000000 <.Pulp_Chip.Info>:
   0:	000a                	0xa
   2:	0000                	unimp
   4:	0038                	addi	a4,sp,8
   6:	0000                	unimp
   8:	0001                	nop
   a:	0000                	unimp
   c:	7550                	flw	fa2,44(a0)
   e:	706c                	flw	fa1,100(s0)
  10:	495f 666e 006f      	0x6f666e495f
  16:	70696863          	bltu	s2,t1,726 <__call_exitprocs+0x64>
  1a:	6e3d                	lui	t3,0xf
  1c:	20656e6f          	jal	t3,56222 <__TEST_RODATA_END+0x542ae>
  20:	3d757063          	bleu	s7,a0,3e0 <__libc_fini_array+0x10>
  24:	6f6e                	flw	ft10,216(sp)
  26:	656e                	flw	fa0,216(sp)
  28:	7020                	flw	fs0,96(s0)
  2a:	3d65                	jal	fffffee2 <pulp__FC+0xfffffee3>
  2c:	312d                	jal	fffffc56 <pulp__FC+0xfffffc57>
  2e:	6620                	flw	fs0,72(a2)
  30:	312d3d63          	p.bneimm	s10,-14,34a <handle_ecall+0xc>
  34:	6c20                	flw	fs0,88(s0)
  36:	3d32                	fld	fs10,296(sp)
  38:	312d                	jal	fffffc62 <pulp__FC+0xfffffc63>
  3a:	6c20                	flw	fs0,88(s0)
  3c:	6331                	lui	t1,0xc
  3e:	3d6c                	fld	fa1,248(a0)
  40:	312d                	jal	fffffc6a <pulp__FC+0xfffffc6b>
  42:	6c20                	flw	fs0,88(s0)
  44:	6631                	lui	a2,0xc
  46:	312d3d63          	p.bneimm	s10,-14,360 <handle_illegal_insn+0x2>
  4a:	0000                	unimp
	...

Disassembly of section .debug_aranges:

00000000 <.debug_aranges>:
   0:	001c                	addi	a5,sp,0
   2:	0000                	unimp
   4:	0002                	0x2
   6:	0000                	unimp
   8:	0000                	unimp
   a:	0004                	addi	s1,sp,0
   c:	0000                	unimp
   e:	0000                	unimp
  10:	0080                	addi	s0,sp,64
  12:	0000                	unimp
  14:	008a                	slli	ra,ra,0x2
	...
  1e:	0000                	unimp
  20:	001c                	addi	a5,sp,0
  22:	0000                	unimp
  24:	0002                	0x2
  26:	0055                	c.addi	zero,21
  28:	0000                	unimp
  2a:	0004                	addi	s1,sp,0
  2c:	0000                	unimp
  2e:	0000                	unimp
  30:	010a                	slli	sp,sp,0x2
  32:	0000                	unimp
  34:	0068                	addi	a0,sp,12
	...
  3e:	0000                	unimp
  40:	001c                	addi	a5,sp,0
  42:	0000                	unimp
  44:	0002                	0x2
  46:	098e                	slli	s3,s3,0x3
  48:	0000                	unimp
  4a:	0004                	addi	s1,sp,0
  4c:	0000                	unimp
  4e:	0000                	unimp
  50:	0172                	slli	sp,sp,0x1c
  52:	0000                	unimp
  54:	0194                	addi	a3,sp,192
	...
  5e:	0000                	unimp
  60:	0024                	addi	s1,sp,8
  62:	0000                	unimp
  64:	0002                	0x2
  66:	1ca6                	slli	s9,s9,0x29
  68:	0000                	unimp
  6a:	0004                	addi	s1,sp,0
	...
  74:	0080                	addi	s0,sp,64
  76:	0000                	unimp
  78:	0306                	slli	t1,t1,0x1
  7a:	0000                	unimp
  7c:	008c                	addi	a1,sp,64
	...
  86:	0000                	unimp
  88:	001c                	addi	a5,sp,0
  8a:	0000                	unimp
  8c:	0002                	0x2
  8e:	1cfa                	slli	s9,s9,0x3e
  90:	0000                	unimp
  92:	0004                	addi	s1,sp,0
  94:	0000                	unimp
  96:	0000                	unimp
  98:	0392                	slli	t2,t2,0x4
  9a:	0000                	unimp
  9c:	001a                	0x1a
	...

Disassembly of section .debug_info:

00000000 <.debug_info>:
       0:	0051                	c.addi	zero,20
       2:	0000                	unimp
       4:	0002                	0x2
       6:	0000                	unimp
       8:	0000                	unimp
       a:	0104                	addi	s1,sp,128
       c:	0000                	unimp
       e:	0000                	unimp
      10:	0080                	addi	s0,sp,64
      12:	0000                	unimp
      14:	010a                	slli	sp,sp,0x2
      16:	0000                	unimp
      18:	30747263          	bleu	t2,s0,31c <sw_irq_handler+0x6>
      1c:	532e                	lw	t1,232(sp)
      1e:	2f00                	fld	fs0,24(a4)
      20:	6f68                	flw	fa0,92(a4)
      22:	656d                	lui	a0,0x1b
      24:	3832732f          	0x3832732f
      28:	3931                	jal	fffffc44 <pulp__FC+0xfffffc45>
      2a:	3631                	jal	fffffb36 <pulp__FC+0xfffffb37>
      2c:	7369722f          	0x7369722f
      30:	745f7663          	bleu	t0,t5,77c <std.isra.0>
      34:	7365                	lui	t1,0xffff9
      36:	6974                	flw	fa3,84(a0)
      38:	676e                	flw	fa4,216(sp)
      3a:	325f 3230 2f31      	0x2f313230325f
      40:	74736273          	csrrsi	tp,0x747,6
      44:	4700                	lw	s0,8(a4)
      46:	554e                	lw	a0,240(sp)
      48:	4120                	lw	s0,64(a0)
      4a:	2e322053          	0x2e322053
      4e:	3832                	fld	fa6,296(sp)
      50:	302e                	fld	ft0,232(sp)
      52:	0100                	addi	s0,sp,128
      54:	3580                	fld	fs0,40(a1)
      56:	0009                	c.addi	zero,2
      58:	0400                	addi	s0,sp,512
      5a:	1400                	addi	s0,sp,544
      5c:	0000                	unimp
      5e:	0400                	addi	s0,sp,512
      60:	6501                	lui	a0,0x0
      62:	0000                	unimp
      64:	0c00                	addi	s0,sp,528
      66:	0212                	slli	tp,tp,0x4
      68:	0000                	unimp
      6a:	037d                	addi	t1,t1,31
	...
      74:	0000                	unimp
      76:	00000163          	beqz	zero,78 <__vector_start+0x78>
      7a:	0102                	slli	sp,sp,0x0
      7c:	9f06                	add	t5,t5,ra
      7e:	0002                	0x2
      80:	0200                	addi	s0,sp,256
      82:	0801                	addi	a6,a6,0
      84:	029d                	addi	t0,t0,7
      86:	0000                	unimp
      88:	0202                	slli	tp,tp,0x0
      8a:	b905                	j	fffffcba <pulp__FC+0xfffffcbb>
      8c:	0002                	0x2
      8e:	0200                	addi	s0,sp,256
      90:	0702                	slli	a4,a4,0x0
      92:	000001cf          	fnmadd.s	ft3,ft0,ft0,ft0,rne
      96:	0402                	slli	s0,s0,0x0
      98:	d405                	beqz	s0,ffffffc0 <pulp__FC+0xffffffc1>
      9a:	0000                	unimp
      9c:	0200                	addi	s0,sp,256
      9e:	0704                	addi	s1,sp,896
      a0:	004a                	0x4a
      a2:	0000                	unimp
      a4:	0802                	slli	a6,a6,0x0
      a6:	cf05                	beqz	a4,de <__boot_address+0x5e>
      a8:	0000                	unimp
      aa:	0200                	addi	s0,sp,256
      ac:	0708                	addi	a0,sp,896
      ae:	0045                	c.addi	zero,17
      b0:	0000                	unimp
      b2:	69050403          	lb	s0,1680(a0) # 690 <__register_exitproc+0x2e>
      b6:	746e                	flw	fs0,248(sp)
      b8:	0400                	addi	s0,sp,512
      ba:	005d                	c.addi	zero,23
      bc:	0000                	unimp
      be:	0402                	slli	s0,s0,0x0
      c0:	00004f07          	0x4f07
      c4:	0200                	addi	s0,sp,256
      c6:	0410                	addi	a2,sp,512
      c8:	0248                	addi	a0,sp,260
      ca:	0000                	unimp
      cc:	8b05                	andi	a4,a4,1
      ce:	0002                	0x2
      d0:	0200                	addi	s0,sp,256
      d2:	00005d07          	0x5d07
      d6:	0500                	addi	s0,sp,640
      d8:	0755                	addi	a4,a4,21
      da:	0000                	unimp
      dc:	00412c03          	lw	s8,4(sp)
      e0:	0000                	unimp
      e2:	7505                	lui	a0,0xfffe1
      e4:	03000003          	lb	zero,48(zero) # 30 <__vector_start+0x30>
      e8:	4172                	lw	sp,28(sp)
      ea:	0000                	unimp
      ec:	0500                	addi	s0,sp,640
      ee:	041c                	addi	a5,sp,512
      f0:	0000                	unimp
      f2:	005d9103          	lh	sp,5(s11)
      f6:	0000                	unimp
      f8:	1906                	slli	s2,s2,0x21
      fa:	0002                	0x2
      fc:	0400                	addi	s0,sp,512
      fe:	0165                	addi	sp,sp,25
     100:	0069                	c.addi	zero,26
     102:	0000                	unimp
     104:	a6030407          	0xa6030407
     108:	00ce                	slli	ra,ra,0x13
     10a:	0000                	unimp
     10c:	0c08                	addi	a0,sp,528
     10e:	0002                	0x2
     110:	0300                	addi	s0,sp,384
     112:	a3a8                	fsd	fa0,64(a5)
     114:	0000                	unimp
     116:	0800                	addi	s0,sp,16
     118:	000001ab          	p.sb	zero,3(zero!) # 3 <__vector_start+0x3>
     11c:	00cea903          	lw	s2,12(t4)
     120:	0000                	unimp
     122:	0900                	addi	s0,sp,144
     124:	002c                	addi	a1,sp,8
     126:	0000                	unimp
     128:	00de                	slli	ra,ra,0x17
     12a:	0000                	unimp
     12c:	690a                	flw	fs2,128(sp)
     12e:	0000                	unimp
     130:	0300                	addi	s0,sp,384
     132:	0b00                	addi	s0,sp,400
     134:	0308                	addi	a0,sp,384
     136:	0000ffa3          	0xffa3
     13a:	0c00                	addi	s0,sp,528
     13c:	035f 0000 a503      	0xa5030000035f
     142:	005d                	c.addi	zero,23
     144:	0000                	unimp
     146:	0c00                	addi	s0,sp,528
     148:	00000367          	jalr	t1,zero
     14c:	00afaa03          	lw	s4,10(t6)
     150:	0000                	unimp
     152:	0004                	addi	s1,sp,0
     154:	e105                	bnez	a0,174 <unimplemented_syscall+0x2>
     156:	0002                	0x2
     158:	0300                	addi	s0,sp,384
     15a:	0000deab          	p.sh	zero,t4(ra!)
     15e:	0500                	addi	s0,sp,640
     160:	016e                	slli	sp,sp,0x1b
     162:	0000                	unimp
     164:	0077af03          	lw	t5,7(a5)
     168:	0000                	unimp
     16a:	040d                	addi	s0,s0,3
     16c:	cd05                	beqz	a0,1a4 <_chdir>
     16e:	05000003          	lb	zero,80(zero) # 50 <__vector_start+0x50>
     172:	4816                	lw	a6,68(sp)
     174:	0000                	unimp
     176:	0e00                	addi	s0,sp,784
     178:	017f                	0x17f
     17a:	0000                	unimp
     17c:	0518                	addi	a4,sp,640
     17e:	0001752f          	0x1752f
     182:	0c00                	addi	s0,sp,528
     184:	0302                	slli	t1,t1,0x0
     186:	0000                	unimp
     188:	3105                	jal	fffffda8 <pulp__FC+0xfffffda9>
     18a:	0175                	addi	sp,sp,29
     18c:	0000                	unimp
     18e:	0f00                	addi	s0,sp,912
     190:	6b5f 0500 5d32      	0x5d3205006b5f
     196:	0000                	unimp
     198:	0400                	addi	s0,sp,512
     19a:	4a0c                	lw	a1,16(a2)
     19c:	05000003          	lb	zero,80(zero) # 50 <__vector_start+0x50>
     1a0:	5d32                	lw	s10,44(sp)
     1a2:	0000                	unimp
     1a4:	0800                	addi	s0,sp,16
     1a6:	680c                	flw	fa1,16(s0)
     1a8:	0001                	nop
     1aa:	0500                	addi	s0,sp,640
     1ac:	5d32                	lw	s10,44(sp)
     1ae:	0000                	unimp
     1b0:	0c00                	addi	s0,sp,528
     1b2:	070c                	addi	a1,sp,896
     1b4:	0004                	addi	s1,sp,0
     1b6:	0500                	addi	s0,sp,640
     1b8:	5d32                	lw	s10,44(sp)
     1ba:	0000                	unimp
     1bc:	1000                	addi	s0,sp,32
     1be:	00785f0f          	0x785f0f
     1c2:	3305                	jal	fffffee2 <pulp__FC+0xfffffee3>
     1c4:	0000017b          	lp.starti	x2,1c4 <_chown+0x8>
     1c8:	0014                	addi	a3,sp,0
     1ca:	0410                	addi	a2,sp,512
     1cc:	0122                	slli	sp,sp,0x8
     1ce:	0000                	unimp
     1d0:	1709                	addi	a4,a4,-30
     1d2:	0001                	nop
     1d4:	8b00                	0x8b00
     1d6:	0001                	nop
     1d8:	0a00                	addi	s0,sp,272
     1da:	0069                	c.addi	zero,26
     1dc:	0000                	unimp
     1de:	0000                	unimp
     1e0:	a60e                	fsd	ft3,264(sp)
     1e2:	0001                	nop
     1e4:	2400                	fld	fs0,8(s0)
     1e6:	3705                	jal	106 <__boot_address+0x86>
     1e8:	0204                	addi	s1,sp,256
     1ea:	0000                	unimp
     1ec:	c60c                	sw	a1,8(a2)
     1ee:	0000                	unimp
     1f0:	0500                	addi	s0,sp,640
     1f2:	5d39                	li	s10,-18
     1f4:	0000                	unimp
     1f6:	0000                	unimp
     1f8:	a30c                	fsd	fa1,0(a4)
     1fa:	05000003          	lb	zero,80(zero) # 50 <__vector_start+0x50>
     1fe:	5d3a                	lw	s10,172(sp)
     200:	0000                	unimp
     202:	0400                	addi	s0,sp,512
     204:	e90c                	fsw	fa1,16(a0)
     206:	0000                	unimp
     208:	0500                	addi	s0,sp,640
     20a:	00005d3b          	0x5d3b
     20e:	0800                	addi	s0,sp,16
     210:	8a0c                	0x8a0c
     212:	0004                	addi	s1,sp,0
     214:	0500                	addi	s0,sp,640
     216:	5d3c                	lw	a5,120(a0)
     218:	0000                	unimp
     21a:	0c00                	addi	s0,sp,528
     21c:	5b0c                	lw	a1,48(a4)
     21e:	0002                	0x2
     220:	0500                	addi	s0,sp,640
     222:	5d3d                	li	s10,-17
     224:	0000                	unimp
     226:	1000                	addi	s0,sp,32
     228:	350c                	fld	fa1,40(a0)
     22a:	0002                	0x2
     22c:	0500                	addi	s0,sp,640
     22e:	5d3e                	lw	s10,236(sp)
     230:	0000                	unimp
     232:	1400                	addi	s0,sp,544
     234:	0c0c                	addi	a1,sp,528
     236:	0004                	addi	s1,sp,0
     238:	0500                	addi	s0,sp,640
     23a:	00005d3f c30c1800 	0xc30c180000005d3f
     242:	0002                	0x2
     244:	0500                	addi	s0,sp,640
     246:	5d40                	lw	s0,60(a0)
     248:	0000                	unimp
     24a:	1c00                	addi	s0,sp,560
     24c:	4c0c                	lw	a1,24(s0)
     24e:	0004                	addi	s1,sp,0
     250:	0500                	addi	s0,sp,640
     252:	5d41                	li	s10,-16
     254:	0000                	unimp
     256:	2000                	fld	fs0,0(s0)
     258:	1100                	addi	s0,sp,160
     25a:	00f8                	addi	a4,sp,76
     25c:	0000                	unimp
     25e:	0108                	addi	a0,sp,128
     260:	4a05                	li	s4,1
     262:	0244                	addi	s1,sp,260
     264:	0000                	unimp
     266:	5b0c                	lw	a1,48(a4)
     268:	0001                	nop
     26a:	0500                	addi	s0,sp,640
     26c:	0002444b          	fnmsub.s	fs0,ft4,ft0,ft0,rmm
     270:	0000                	unimp
     272:	000c                	addi	a1,sp,0
     274:	0000                	unimp
     276:	0500                	addi	s0,sp,640
     278:	444c                	lw	a1,12(s0)
     27a:	0002                	0x2
     27c:	8000                	0x8000
     27e:	bf12                	fsd	ft4,440(sp)
     280:	05000003          	lb	zero,80(zero) # 50 <__vector_start+0x50>
     284:	174e                	slli	a4,a4,0x33
     286:	0001                	nop
     288:	0000                	unimp
     28a:	1201                	addi	tp,tp,-32
     28c:	011d                	addi	sp,sp,7
     28e:	0000                	unimp
     290:	5105                	li	sp,-31
     292:	00000117          	auipc	sp,0x0
     296:	0104                	addi	s1,sp,128
     298:	0900                	addi	s0,sp,144
     29a:	0115                	addi	sp,sp,5
     29c:	0000                	unimp
     29e:	0254                	addi	a3,sp,260
     2a0:	0000                	unimp
     2a2:	690a                	flw	fs2,128(sp)
     2a4:	0000                	unimp
     2a6:	1f00                	addi	s0,sp,944
     2a8:	1100                	addi	s0,sp,160
     2aa:	0264                	addi	s1,sp,268
     2ac:	0000                	unimp
     2ae:	0190                	addi	a2,sp,192
     2b0:	5d05                	li	s10,-31
     2b2:	0292                	slli	t0,t0,0x4
     2b4:	0000                	unimp
     2b6:	020c                	addi	a1,sp,256
     2b8:	05000003          	lb	zero,80(zero) # 50 <__vector_start+0x50>
     2bc:	925e                	add	tp,tp,s7
     2be:	0002                	0x2
     2c0:	0000                	unimp
     2c2:	1a0c                	addi	a1,sp,304
     2c4:	05000003          	lb	zero,80(zero) # 50 <__vector_start+0x50>
     2c8:	5d5f 0000 0400      	0x40000005d5f
     2ce:	630c                	flw	fa1,0(a4)
     2d0:	0001                	nop
     2d2:	0500                	addi	s0,sp,640
     2d4:	9861                	andi	s0,s0,-8
     2d6:	0002                	0x2
     2d8:	0800                	addi	s0,sp,16
     2da:	f80c                	fsw	fa1,48(s0)
     2dc:	0000                	unimp
     2de:	0500                	addi	s0,sp,640
     2e0:	0462                	slli	s0,s0,0x18
     2e2:	0002                	0x2
     2e4:	8800                	0x8800
     2e6:	1000                	addi	s0,sp,32
     2e8:	5404                	lw	s1,40(s0)
     2ea:	0002                	0x2
     2ec:	0900                	addi	s0,sp,144
     2ee:	02a8                	addi	a0,sp,328
     2f0:	0000                	unimp
     2f2:	02a8                	addi	a0,sp,328
     2f4:	0000                	unimp
     2f6:	690a                	flw	fs2,128(sp)
     2f8:	0000                	unimp
     2fa:	1f00                	addi	s0,sp,944
     2fc:	1000                	addi	s0,sp,32
     2fe:	ae04                	fsd	fs1,24(a2)
     300:	0002                	0x2
     302:	1300                	addi	s0,sp,416
     304:	cd0e                	sw	gp,152(sp)
     306:	0002                	0x2
     308:	0800                	addi	s0,sp,16
     30a:	7505                	lui	a0,0xfffe1
     30c:	02d4                	addi	a3,sp,324
     30e:	0000                	unimp
     310:	e30c                	fsw	fa1,0(a4)
     312:	0000                	unimp
     314:	0500                	addi	s0,sp,640
     316:	d476                	sw	t4,40(sp)
     318:	0002                	0x2
     31a:	0000                	unimp
     31c:	4e0c                	lw	a1,24(a2)
     31e:	05000007          	0x5000007
     322:	00005d77          	0x5d77
     326:	0400                	addi	s0,sp,512
     328:	1000                	addi	s0,sp,32
     32a:	2c04                	fld	fs1,24(s0)
     32c:	0000                	unimp
     32e:	0e00                	addi	s0,sp,784
     330:	02ec                	addi	a1,sp,332
     332:	0000                	unimp
     334:	0568                	addi	a0,sp,652
     336:	04b5                	addi	s1,s1,13
     338:	0004                	addi	s1,sp,0
     33a:	0f00                	addi	s0,sp,912
     33c:	705f 0500 d4b6      	0xd4b60500705f
     342:	0002                	0x2
     344:	0000                	unimp
     346:	00725f0f          	0x725f0f
     34a:	b705                	j	26a <_openat+0x6>
     34c:	005d                	c.addi	zero,23
     34e:	0000                	unimp
     350:	0f04                	addi	s1,sp,912
     352:	775f 0500 5db8      	0x5db80500775f
     358:	0000                	unimp
     35a:	0800                	addi	s0,sp,16
     35c:	160c                	addi	a1,sp,800
     35e:	0001                	nop
     360:	0500                	addi	s0,sp,640
     362:	33b9                	jal	b0 <__boot_address+0x30>
     364:	0000                	unimp
     366:	0c00                	addi	s0,sp,528
     368:	c20c                	sw	a1,0(a2)
     36a:	0001                	nop
     36c:	0500                	addi	s0,sp,640
     36e:	33ba                	fld	ft7,424(sp)
     370:	0000                	unimp
     372:	0e00                	addi	s0,sp,784
     374:	66625f0f          	0x66625f0f
     378:	0500                	addi	s0,sp,640
     37a:	0002afbb          	0x2afbb
     37e:	1000                	addi	s0,sp,32
     380:	5c0c                	lw	a1,56(s0)
     382:	0000                	unimp
     384:	0500                	addi	s0,sp,640
     386:	5dbc                	lw	a5,120(a1)
     388:	0000                	unimp
     38a:	1800                	addi	s0,sp,48
     38c:	060c                	addi	a1,sp,768
     38e:	0001                	nop
     390:	0500                	addi	s0,sp,640
     392:	000115c3          	fmadd.s	fa1,ft2,ft0,ft0,rtz
     396:	1c00                	addi	s0,sp,560
     398:	960c                	0x960c
     39a:	0001                	nop
     39c:	0500                	addi	s0,sp,640
     39e:	71c5                	lui	gp,0xffff1
     3a0:	0005                	c.addi	zero,1
     3a2:	2000                	fld	fs0,0(s0)
     3a4:	2e0c                	fld	fa1,24(a2)
     3a6:	0002                	0x2
     3a8:	0500                	addi	s0,sp,640
     3aa:	00059bc7          	fmsub.s	fs7,fa1,ft0,ft0,rtz
     3ae:	2400                	fld	fs0,8(s0)
     3b0:	6f0c                	flw	fa1,24(a4)
     3b2:	05000003          	lb	zero,80(zero) # 50 <__vector_start+0x50>
     3b6:	bfca                	fsd	fs2,504(sp)
     3b8:	0005                	c.addi	zero,1
     3ba:	2800                	fld	fs0,16(s0)
     3bc:	660c                	flw	fa1,8(a2)
     3be:	0004                	addi	s1,sp,0
     3c0:	0500                	addi	s0,sp,640
     3c2:	0005d9cb          	fnmsub.s	fs3,fa1,ft0,ft0,unknown
     3c6:	2c00                	fld	fs0,24(s0)
     3c8:	62755f0f          	0x62755f0f
     3cc:	0500                	addi	s0,sp,640
     3ce:	afce                	fsd	fs3,472(sp)
     3d0:	0002                	0x2
     3d2:	3000                	fld	fs0,32(s0)
     3d4:	70755f0f          	0x70755f0f
     3d8:	0500                	addi	s0,sp,640
     3da:	0002d4cf          	fnmadd.s	fs1,ft5,ft0,ft0,unknown
     3de:	3800                	fld	fs0,48(s0)
     3e0:	72755f0f          	0x72755f0f
     3e4:	0500                	addi	s0,sp,640
     3e6:	5dd0                	lw	a2,60(a1)
     3e8:	0000                	unimp
     3ea:	3c00                	fld	fs0,56(s0)
     3ec:	dd0c                	sw	a1,56(a0)
     3ee:	0000                	unimp
     3f0:	0500                	addi	s0,sp,640
     3f2:	0005dfd3          	fadd.s	ft11,fa1,ft0,unknown
     3f6:	4000                	lw	s0,0(s0)
     3f8:	390c                	fld	fa1,48(a0)
     3fa:	0004                	addi	s1,sp,0
     3fc:	0500                	addi	s0,sp,640
     3fe:	efd4                	fsw	fa3,28(a5)
     400:	0005                	c.addi	zero,1
     402:	4300                	lw	s0,0(a4)
     404:	626c5f0f          	0x626c5f0f
     408:	0500                	addi	s0,sp,640
     40a:	0002afd7          	pv.add.h.div2	t6,t0,zero
     40e:	4400                	lw	s0,8(s0)
     410:	cc0c                	sw	a1,24(s0)
     412:	0004                	addi	s1,sp,0
     414:	0500                	addi	s0,sp,640
     416:	5dda                	lw	s11,180(sp)
     418:	0000                	unimp
     41a:	4c00                	lw	s0,24(s0)
     41c:	340c                	fld	fa1,40(s0)
     41e:	0001                	nop
     420:	0500                	addi	s0,sp,640
     422:	000082db          	p.mac	t0,ra,zero,zero
     426:	5000                	lw	s0,32(s0)
     428:	1f0c                	addi	a1,sp,944
     42a:	0000                	unimp
     42c:	0500                	addi	s0,sp,640
     42e:	22de                	fld	ft5,464(sp)
     430:	0004                	addi	s1,sp,0
     432:	5400                	lw	s0,40(s0)
     434:	200c                	fld	fa1,0(s0)
     436:	0002                	0x2
     438:	0500                	addi	s0,sp,640
     43a:	0ae2                	slli	s5,s5,0x18
     43c:	0001                	nop
     43e:	5800                	lw	s0,48(s0)
     440:	f40c                	fsw	fa1,40(s0)
     442:	0002                	0x2
     444:	0500                	addi	s0,sp,640
     446:	ffe4                	fsw	fs1,124(a5)
     448:	0000                	unimp
     44a:	5c00                	lw	s0,56(s0)
     44c:	260c                	fld	fa1,8(a2)
     44e:	0002                	0x2
     450:	0500                	addi	s0,sp,640
     452:	5de5                	li	s11,-7
     454:	0000                	unimp
     456:	6400                	flw	fs0,8(s0)
     458:	1400                	addi	s0,sp,544
     45a:	0098                	addi	a4,sp,64
     45c:	0000                	unimp
     45e:	0422                	slli	s0,s0,0x8
     460:	0000                	unimp
     462:	2215                	jal	586 <_puts_r+0x68>
     464:	0004                	addi	s1,sp,0
     466:	1500                	addi	s0,sp,672
     468:	0115                	addi	sp,sp,5
     46a:	0000                	unimp
     46c:	5f15                	li	t5,-27
     46e:	0005                	c.addi	zero,1
     470:	1500                	addi	s0,sp,672
     472:	005d                	c.addi	zero,23
     474:	0000                	unimp
     476:	1000                	addi	s0,sp,32
     478:	2d04                	fld	fs1,24(a0)
     47a:	0004                	addi	s1,sp,0
     47c:	1600                	addi	s0,sp,800
     47e:	0422                	slli	s0,s0,0x8
     480:	0000                	unimp
     482:	00035217          	auipc	tp,0x35
     486:	2800                	fld	fs0,16(s0)
     488:	0504                	addi	s1,sp,640
     48a:	0239                	addi	tp,tp,14
     48c:	055f 0000 b218      	0xb2180000055f
     492:	0002                	0x2
     494:	0500                	addi	s0,sp,640
     496:	005d023b          	0x5d023b
     49a:	0000                	unimp
     49c:	1800                	addi	s0,sp,48
     49e:	0125                	addi	sp,sp,9
     4a0:	0000                	unimp
     4a2:	4005                	0x4005
     4a4:	4602                	lw	a2,0(sp)
     4a6:	0006                	0x6
     4a8:	0400                	addi	s0,sp,512
     4aa:	b218                	fsd	fa4,32(a2)
     4ac:	0001                	nop
     4ae:	0500                	addi	s0,sp,640
     4b0:	0240                	addi	s0,sp,260
     4b2:	0646                	slli	a2,a2,0x11
     4b4:	0000                	unimp
     4b6:	1808                	addi	a0,sp,48
     4b8:	00000177          	0x177
     4bc:	4005                	0x4005
     4be:	4602                	lw	a2,0(sp)
     4c0:	0006                	0x6
     4c2:	0c00                	addi	s0,sp,528
     4c4:	1518                	addi	a4,sp,672
     4c6:	05000003          	lb	zero,80(zero) # 50 <__vector_start+0x50>
     4ca:	0242                	slli	tp,tp,0x10
     4cc:	005d                	c.addi	zero,23
     4ce:	0000                	unimp
     4d0:	1810                	addi	a2,sp,48
     4d2:	0014                	addi	a3,sp,0
     4d4:	0000                	unimp
     4d6:	4305                	li	t1,1
     4d8:	2802                	fld	fa6,0(sp)
     4da:	0008                	addi	a0,sp,0
     4dc:	1400                	addi	s0,sp,544
     4de:	3118                	fld	fa4,32(a0)
     4e0:	05000003          	lb	zero,80(zero) # 50 <__vector_start+0x50>
     4e4:	0246                	slli	tp,tp,0x11
     4e6:	005d                	c.addi	zero,23
     4e8:	0000                	unimp
     4ea:	1830                	addi	a2,sp,56
     4ec:	031f 0000 4705      	0x47050000031f
     4f2:	3d02                	fld	fs10,32(sp)
     4f4:	0008                	addi	a0,sp,0
     4f6:	3400                	fld	fs0,40(s0)
     4f8:	7618                	flw	fa4,40(a2)
     4fa:	0002                	0x2
     4fc:	0500                	addi	s0,sp,640
     4fe:	0249                	addi	tp,tp,18
     500:	005d                	c.addi	zero,23
     502:	0000                	unimp
     504:	1838                	addi	a4,sp,56
     506:	00000327          	0x327
     50a:	4b05                	li	s6,1
     50c:	4e02                	lw	t3,0(sp)
     50e:	0008                	addi	a0,sp,0
     510:	3c00                	fld	fs0,56(s0)
     512:	0418                	addi	a4,sp,512
     514:	0002                	0x2
     516:	0500                	addi	s0,sp,640
     518:	024e                	slli	tp,tp,0x13
     51a:	0175                	addi	sp,sp,29
     51c:	0000                	unimp
     51e:	1840                	addi	s0,sp,52
     520:	019c                	addi	a5,sp,192
     522:	0000                	unimp
     524:	4f05                	li	t5,1
     526:	5d02                	lw	s10,32(sp)
     528:	0000                	unimp
     52a:	4400                	lw	s0,8(s0)
     52c:	8018                	0x8018
     52e:	0004                	addi	s1,sp,0
     530:	0500                	addi	s0,sp,640
     532:	0250                	addi	a2,sp,260
     534:	0175                	addi	sp,sp,29
     536:	0000                	unimp
     538:	1848                	addi	a0,sp,52
     53a:	0281                	addi	t0,t0,0
     53c:	0000                	unimp
     53e:	5105                	li	sp,-31
     540:	5402                	lw	s0,32(sp)
     542:	0008                	addi	a0,sp,0
     544:	4c00                	lw	s0,24(s0)
     546:	ba18                	fsd	fa4,48(a2)
     548:	0001                	nop
     54a:	0500                	addi	s0,sp,640
     54c:	0254                	addi	a3,sp,260
     54e:	005d                	c.addi	zero,23
     550:	0000                	unimp
     552:	1850                	addi	a2,sp,52
     554:	012c                	addi	a1,sp,136
     556:	0000                	unimp
     558:	5505                	li	a0,-31
     55a:	5f02                	lw	t5,32(sp)
     55c:	0005                	c.addi	zero,1
     55e:	5400                	lw	s0,40(s0)
     560:	ab18                	fsd	fa4,16(a4)
     562:	0002                	0x2
     564:	0500                	addi	s0,sp,640
     566:	0278                	addi	a4,sp,268
     568:	0806                	slli	a6,a6,0x1
     56a:	0000                	unimp
     56c:	1958                	addi	a4,sp,180
     56e:	0264                	addi	s1,sp,268
     570:	0000                	unimp
     572:	7c05                	lui	s8,0xfffe1
     574:	9202                	jalr	tp
     576:	0002                	0x2
     578:	4800                	lw	s0,16(s0)
     57a:	1901                	addi	s2,s2,-32
     57c:	01e2                	slli	gp,gp,0x18
     57e:	0000                	unimp
     580:	7d05                	lui	s10,0xfffe1
     582:	5402                	lw	s0,32(sp)
     584:	0002                	0x2
     586:	4c00                	lw	s0,24(s0)
     588:	1901                	addi	s2,s2,-32
     58a:	0000042f          	0x42f
     58e:	8105                	srli	a0,a0,0x1
     590:	6502                	flw	fa0,0(sp)
     592:	0008                	addi	a0,sp,0
     594:	dc00                	sw	s0,56(s0)
     596:	1902                	slli	s2,s2,0x20
     598:	010e                	slli	sp,sp,0x3
     59a:	0000                	unimp
     59c:	8605                	srai	a2,a2,0x1
     59e:	0b02                	slli	s6,s6,0x0
     5a0:	0006                	0x6
     5a2:	e000                	fsw	fs0,0(s0)
     5a4:	1902                	slli	s2,s2,0x20
     5a6:	000000f3          	0xf3
     5aa:	8705                	srai	a4,a4,0x1
     5ac:	7102                	flw	ft2,32(sp)
     5ae:	0008                	addi	a0,sp,0
     5b0:	ec00                	fsw	fs0,24(s0)
     5b2:	0002                	0x2
     5b4:	0410                	addi	a2,sp,512
     5b6:	0565                	addi	a0,a0,25
     5b8:	0000                	unimp
     5ba:	0102                	slli	sp,sp,0x0
     5bc:	a608                	fsd	fa0,8(a2)
     5be:	0002                	0x2
     5c0:	1600                	addi	s0,sp,800
     5c2:	0565                	addi	a0,a0,25
     5c4:	0000                	unimp
     5c6:	0410                	addi	a2,sp,512
     5c8:	0404                	addi	s1,sp,512
     5ca:	0000                	unimp
     5cc:	9814                	0x9814
     5ce:	0000                	unimp
     5d0:	9500                	0x9500
     5d2:	0005                	c.addi	zero,1
     5d4:	1500                	addi	s0,sp,672
     5d6:	0422                	slli	s0,s0,0x8
     5d8:	0000                	unimp
     5da:	1515                	addi	a0,a0,-27
     5dc:	0001                	nop
     5de:	1500                	addi	s0,sp,672
     5e0:	0595                	addi	a1,a1,5
     5e2:	0000                	unimp
     5e4:	5d15                	li	s10,-27
     5e6:	0000                	unimp
     5e8:	0000                	unimp
     5ea:	0410                	addi	a2,sp,512
     5ec:	056c                	addi	a1,sp,652
     5ee:	0000                	unimp
     5f0:	0410                	addi	a2,sp,512
     5f2:	00000577          	0x577
     5f6:	8d14                	0x8d14
     5f8:	0000                	unimp
     5fa:	bf00                	fsd	fs0,56(a4)
     5fc:	0005                	c.addi	zero,1
     5fe:	1500                	addi	s0,sp,672
     600:	0422                	slli	s0,s0,0x8
     602:	0000                	unimp
     604:	1515                	addi	a0,a0,-27
     606:	0001                	nop
     608:	1500                	addi	s0,sp,672
     60a:	008d                	addi	ra,ra,3
     60c:	0000                	unimp
     60e:	5d15                	li	s10,-27
     610:	0000                	unimp
     612:	0000                	unimp
     614:	0410                	addi	a2,sp,512
     616:	05a1                	addi	a1,a1,8
     618:	0000                	unimp
     61a:	5d14                	lw	a3,56(a0)
     61c:	0000                	unimp
     61e:	d900                	sw	s0,48(a0)
     620:	0005                	c.addi	zero,1
     622:	1500                	addi	s0,sp,672
     624:	0422                	slli	s0,s0,0x8
     626:	0000                	unimp
     628:	1515                	addi	a0,a0,-27
     62a:	0001                	nop
     62c:	0000                	unimp
     62e:	0410                	addi	a2,sp,512
     630:	05c5                	addi	a1,a1,17
     632:	0000                	unimp
     634:	2c09                	jal	846 <__sinit+0x12>
     636:	0000                	unimp
     638:	ef00                	fsw	fs0,24(a4)
     63a:	0005                	c.addi	zero,1
     63c:	0a00                	addi	s0,sp,272
     63e:	0069                	c.addi	zero,26
     640:	0000                	unimp
     642:	0002                	0x2
     644:	2c09                	jal	856 <__sinit+0x22>
     646:	0000                	unimp
     648:	ff00                	fsw	fs0,56(a4)
     64a:	0005                	c.addi	zero,1
     64c:	0a00                	addi	s0,sp,272
     64e:	0069                	c.addi	zero,26
     650:	0000                	unimp
     652:	0000                	unimp
     654:	da06                	sw	ra,52(sp)
     656:	0002                	0x2
     658:	0500                	addi	s0,sp,640
     65a:	011f 02da 0000      	0x2da011f
     660:	161a                	slli	a2,a2,0x26
     662:	0004                	addi	s1,sp,0
     664:	0c00                	addi	s0,sp,528
     666:	2305                	jal	b86 <_free_r+0x190>
     668:	4001                	0x4001
     66a:	0006                	0x6
     66c:	1800                	addi	s0,sp,48
     66e:	0302                	slli	t1,t1,0x0
     670:	0000                	unimp
     672:	2505                	jal	c92 <__sfvwrite_r+0xfe>
     674:	4001                	0x4001
     676:	0006                	0x6
     678:	0000                	unimp
     67a:	c818                	sw	a4,16(s0)
     67c:	0001                	nop
     67e:	0500                	addi	s0,sp,640
     680:	0126                	slli	sp,sp,0x9
     682:	005d                	c.addi	zero,23
     684:	0000                	unimp
     686:	1804                	addi	s1,sp,48
     688:	02d4                	addi	a3,sp,324
     68a:	0000                	unimp
     68c:	2705                	jal	dac <__sfvwrite_r+0x218>
     68e:	4601                	li	a2,0
     690:	0006                	0x6
     692:	0800                	addi	s0,sp,16
     694:	1000                	addi	s0,sp,32
     696:	0b04                	addi	s1,sp,400
     698:	0006                	0x6
     69a:	1000                	addi	s0,sp,32
     69c:	ff04                	fsw	fs1,56(a4)
     69e:	0005                	c.addi	zero,1
     6a0:	1a00                	addi	s0,sp,304
     6a2:	000c                	addi	a1,sp,0
     6a4:	0000                	unimp
     6a6:	050e                	slli	a0,a0,0x3
     6a8:	0681013f 59180000 	0x591800000681013f
     6b0:	05000003          	lb	zero,80(zero) # 50 <__vector_start+0x50>
     6b4:	0140                	addi	s0,sp,132
     6b6:	0681                	addi	a3,a3,0
     6b8:	0000                	unimp
     6ba:	1800                	addi	s0,sp,48
     6bc:	03ac                	addi	a1,sp,456
     6be:	0000                	unimp
     6c0:	4105                	li	sp,1
     6c2:	8101                	srli	a0,a0,0x0
     6c4:	0006                	0x6
     6c6:	0600                	addi	s0,sp,768
     6c8:	c818                	sw	a4,16(s0)
     6ca:	05000003          	lb	zero,80(zero) # 50 <__vector_start+0x50>
     6ce:	0142                	slli	sp,sp,0x10
     6d0:	003a                	0x3a
     6d2:	0000                	unimp
     6d4:	000c                	addi	a1,sp,0
     6d6:	3a09                	jal	ffffffe8 <pulp__FC+0xffffffe9>
     6d8:	0000                	unimp
     6da:	9100                	0x9100
     6dc:	0006                	0x6
     6de:	0a00                	addi	s0,sp,272
     6e0:	0069                	c.addi	zero,26
     6e2:	0000                	unimp
     6e4:	0002                	0x2
     6e6:	5905d01b          	0x5905d01b
     6ea:	9202                	jalr	tp
     6ec:	18000007          	0x18000007
     6f0:	03fa                	slli	t2,t2,0x1e
     6f2:	0000                	unimp
     6f4:	5b05                	li	s6,-31
     6f6:	6902                	flw	fs2,0(sp)
     6f8:	0000                	unimp
     6fa:	0000                	unimp
     6fc:	b218                	fsd	fa4,32(a2)
     6fe:	05000003          	lb	zero,80(zero) # 50 <__vector_start+0x50>
     702:	025c                	addi	a5,sp,260
     704:	055f 0000 1804      	0x18040000055f
     70a:	000001f7          	0x1f7
     70e:	5d05                	li	s10,-31
     710:	9202                	jalr	tp
     712:	08000007          	0x8000007
     716:	5718                	lw	a4,40(a4)
     718:	0004                	addi	s1,sp,0
     71a:	0500                	addi	s0,sp,640
     71c:	025e                	slli	tp,tp,0x17
     71e:	0000018b          	p.lb	gp,0(zero!) # 0 <__vector_start>
     722:	1824                	addi	s1,sp,56
     724:	00000187          	0x187
     728:	5f05                	li	t5,-31
     72a:	5d02                	lw	s10,32(sp)
     72c:	0000                	unimp
     72e:	4800                	lw	s0,16(s0)
     730:	fd18                	fsw	fa4,56(a0)
     732:	0002                	0x2
     734:	0500                	addi	s0,sp,640
     736:	0260                	addi	s0,sp,268
     738:	0056                	0x56
     73a:	0000                	unimp
     73c:	1850                	addi	a2,sp,52
     73e:	046d                	addi	s0,s0,27
     740:	0000                	unimp
     742:	6105                	addi	sp,sp,32
     744:	4c02                	lw	s8,0(sp)
     746:	0006                	0x6
     748:	5800                	lw	s0,48(s0)
     74a:	0818                	addi	a4,sp,16
     74c:	05000003          	lb	zero,80(zero) # 50 <__vector_start+0x50>
     750:	0262                	slli	tp,tp,0x18
     752:	00ff                	0xff
     754:	0000                	unimp
     756:	1868                	addi	a0,sp,60
     758:	0472                	slli	s0,s0,0x1c
     75a:	0000                	unimp
     75c:	6305                	lui	t1,0x1
     75e:	ff02                	fsw	ft0,188(sp)
     760:	0000                	unimp
     762:	7000                	flw	fs0,32(s0)
     764:	b818                	fsd	fa4,48(s0)
     766:	0000                	unimp
     768:	0500                	addi	s0,sp,640
     76a:	0264                	addi	s1,sp,268
     76c:	00ff                	0xff
     76e:	0000                	unimp
     770:	1878                	addi	a4,sp,60
     772:	0425                	addi	s0,s0,9
     774:	0000                	unimp
     776:	6505                	lui	a0,0x1
     778:	a202                	fsd	ft0,256(sp)
     77a:	80000007          	0x80000007
     77e:	eb18                	fsw	fa4,16(a4)
     780:	0001                	nop
     782:	0500                	addi	s0,sp,640
     784:	0266                	slli	tp,tp,0x19
     786:	07b2                	slli	a5,a5,0xc
     788:	0000                	unimp
     78a:	1888                	addi	a0,sp,112
     78c:	03d5                	addi	t2,t2,21
     78e:	0000                	unimp
     790:	6705                	lui	a4,0x1
     792:	5d02                	lw	s10,32(sp)
     794:	0000                	unimp
     796:	a000                	fsd	fs0,0(s0)
     798:	4d18                	lw	a4,24(a0)
     79a:	0001                	nop
     79c:	0500                	addi	s0,sp,640
     79e:	0268                	addi	a0,sp,268
     7a0:	00ff                	0xff
     7a2:	0000                	unimp
     7a4:	18a4                	addi	s1,sp,120
     7a6:	00a9                	addi	ra,ra,10
     7a8:	0000                	unimp
     7aa:	6905                	lui	s2,0x1
     7ac:	ff02                	fsw	ft0,188(sp)
     7ae:	0000                	unimp
     7b0:	ac00                	fsd	fs0,24(s0)
     7b2:	3c18                	fld	fa4,56(s0)
     7b4:	0001                	nop
     7b6:	0500                	addi	s0,sp,640
     7b8:	026a                	slli	tp,tp,0x1a
     7ba:	00ff                	0xff
     7bc:	0000                	unimp
     7be:	18b4                	addi	a3,sp,120
     7c0:	0025                	c.addi	zero,9
     7c2:	0000                	unimp
     7c4:	6b05                	lui	s6,0x1
     7c6:	ff02                	fsw	ft0,188(sp)
     7c8:	0000                	unimp
     7ca:	bc00                	fsd	fs0,56(s0)
     7cc:	3418                	fld	fa4,40(s0)
     7ce:	0000                	unimp
     7d0:	0500                	addi	s0,sp,640
     7d2:	026c                	addi	a1,sp,268
     7d4:	00ff                	0xff
     7d6:	0000                	unimp
     7d8:	18c4                	addi	s1,sp,116
     7da:	02b0                	addi	a2,sp,328
     7dc:	0000                	unimp
     7de:	6d05                	lui	s10,0x1
     7e0:	5d02                	lw	s10,32(sp)
     7e2:	0000                	unimp
     7e4:	cc00                	sw	s0,24(s0)
     7e6:	0900                	addi	s0,sp,144
     7e8:	0565                	addi	a0,a0,25
     7ea:	0000                	unimp
     7ec:	07a2                	slli	a5,a5,0x8
     7ee:	0000                	unimp
     7f0:	690a                	flw	fs2,128(sp)
     7f2:	0000                	unimp
     7f4:	1900                	addi	s0,sp,176
     7f6:	0900                	addi	s0,sp,144
     7f8:	0565                	addi	a0,a0,25
     7fa:	0000                	unimp
     7fc:	07b2                	slli	a5,a5,0xc
     7fe:	0000                	unimp
     800:	690a                	flw	fs2,128(sp)
     802:	0000                	unimp
     804:	0700                	addi	s0,sp,896
     806:	0900                	addi	s0,sp,144
     808:	0565                	addi	a0,a0,25
     80a:	0000                	unimp
     80c:	07c2                	slli	a5,a5,0x10
     80e:	0000                	unimp
     810:	690a                	flw	fs2,128(sp)
     812:	0000                	unimp
     814:	1700                	addi	s0,sp,928
     816:	1b00                	addi	s0,sp,432
     818:	05f0                	addi	a2,sp,716
     81a:	0272                	slli	tp,tp,0x1c
     81c:	07e6                	slli	a5,a5,0x19
     81e:	0000                	unimp
     820:	5418                	lw	a4,40(s0)
     822:	0002                	0x2
     824:	0500                	addi	s0,sp,640
     826:	0275                	addi	tp,tp,29
     828:	07e6                	slli	a5,a5,0x19
     82a:	0000                	unimp
     82c:	1800                	addi	s0,sp,48
     82e:	0000023f f6027605 	0xf60276050000023f
     836:	78000007          	0x78000007
     83a:	0900                	addi	s0,sp,144
     83c:	02d4                	addi	a3,sp,324
     83e:	0000                	unimp
     840:	07f6                	slli	a5,a5,0x1d
     842:	0000                	unimp
     844:	690a                	flw	fs2,128(sp)
     846:	0000                	unimp
     848:	1d00                	addi	s0,sp,688
     84a:	0900                	addi	s0,sp,144
     84c:	0069                	c.addi	zero,26
     84e:	0000                	unimp
     850:	0806                	slli	a6,a6,0x1
     852:	0000                	unimp
     854:	690a                	flw	fs2,128(sp)
     856:	0000                	unimp
     858:	1d00                	addi	s0,sp,688
     85a:	1c00                	addi	s0,sp,560
     85c:	05f0                	addi	a2,sp,716
     85e:	08280257          	pv.sub.h	tp,a6,sp
     862:	0000                	unimp
     864:	521d                	li	tp,-25
     866:	05000003          	lb	zero,80(zero) # 50 <__vector_start+0x50>
     86a:	026e                	slli	tp,tp,0x1b
     86c:	0691                	addi	a3,a3,4
     86e:	0000                	unimp
     870:	3f1d                	jal	7a6 <std.isra.0+0x2a>
     872:	0004                	addi	s1,sp,0
     874:	0500                	addi	s0,sp,640
     876:	07c20277          	0x7c20277
     87a:	0000                	unimp
     87c:	0900                	addi	s0,sp,144
     87e:	0565                	addi	a0,a0,25
     880:	0000                	unimp
     882:	0838                	addi	a4,sp,24
     884:	0000                	unimp
     886:	690a                	flw	fs2,128(sp)
     888:	0000                	unimp
     88a:	1800                	addi	s0,sp,48
     88c:	1e00                	addi	s0,sp,816
     88e:	009e                	slli	ra,ra,0x7
     890:	0000                	unimp
     892:	0410                	addi	a2,sp,512
     894:	0838                	addi	a4,sp,24
     896:	0000                	unimp
     898:	4e1f 0008 1500      	0x150000084e1f
     89e:	0422                	slli	s0,s0,0x8
     8a0:	0000                	unimp
     8a2:	1000                	addi	s0,sp,32
     8a4:	4304                	lw	s1,0(a4)
     8a6:	0008                	addi	a0,sp,0
     8a8:	1000                	addi	s0,sp,32
     8aa:	7504                	flw	fs1,40(a0)
     8ac:	0001                	nop
     8ae:	1f00                	addi	s0,sp,944
     8b0:	0865                	addi	a6,a6,25
     8b2:	0000                	unimp
     8b4:	5d15                	li	s10,-27
     8b6:	0000                	unimp
     8b8:	0000                	unimp
     8ba:	0410                	addi	a2,sp,512
     8bc:	0000086b          	0x86b
     8c0:	0410                	addi	a2,sp,512
     8c2:	085a                	slli	a6,a6,0x16
     8c4:	0000                	unimp
     8c6:	ff09                	bnez	a4,7e0 <std.isra.0+0x64>
     8c8:	0005                	c.addi	zero,1
     8ca:	8100                	0x8100
     8cc:	0008                	addi	a0,sp,0
     8ce:	0a00                	addi	s0,sp,272
     8d0:	0069                	c.addi	zero,26
     8d2:	0000                	unimp
     8d4:	0002                	0x2
     8d6:	e920                	fsw	fs0,80(a0)
     8d8:	05000003          	lb	zero,80(zero) # 50 <__vector_start+0x50>
     8dc:	02fe                	slli	t0,t0,0x1f
     8de:	0422                	slli	s0,s0,0x8
     8e0:	0000                	unimp
     8e2:	e220                	fsw	fs0,64(a2)
     8e4:	05000003          	lb	zero,80(zero) # 50 <__vector_start+0x50>
     8e8:	02ff                	0x2ff
     8ea:	0428                	addi	a0,sp,520
     8ec:	0000                	unimp
     8ee:	6c21                	lui	s8,0x8
     8f0:	0002                	0x2
     8f2:	0600                	addi	s0,sp,768
     8f4:	00055f63          	bgez	a0,912 <__sfp+0x90>
     8f8:	2200                	fld	fs0,0(a2)
     8fa:	0485                	addi	s1,s1,1
     8fc:	0000                	unimp
     8fe:	0401                	addi	s0,s0,0
     900:	005d                	c.addi	zero,23
     902:	0000                	unimp
     904:	010a                	slli	sp,sp,0x2
     906:	0000                	unimp
     908:	0068                	addi	a0,sp,12
     90a:	0000                	unimp
     90c:	9c01                	0x9c01
     90e:	090d                	addi	s2,s2,3
     910:	0000                	unimp
     912:	00044723          	p.sb	zero,a4(s0)
     916:	0100                	addi	s0,sp,128
     918:	5d04                	lw	s1,56(a0)
     91a:	0000                	unimp
     91c:	0000                	unimp
     91e:	0000                	unimp
     920:	2300                	fld	fs0,0(a4)
     922:	03f5                	addi	t2,t2,29
     924:	0000                	unimp
     926:	0401                	addi	s0,s0,0
     928:	090d                	addi	s2,s2,3
     92a:	0000                	unimp
     92c:	0021                	c.addi	zero,8
     92e:	0000                	unimp
     930:	6124                	flw	fs1,64(a0)
     932:	0100                	addi	s0,sp,128
     934:	1306                	slli	t1,t1,0x21
     936:	0009                	c.addi	zero,2
     938:	0200                	addi	s0,sp,256
     93a:	4491                	li	s1,4
     93c:	6224                	flw	fs1,64(a2)
     93e:	0100                	addi	s0,sp,128
     940:	00091307          	0x91307
     944:	0200                	addi	s0,sp,256
     946:	5891                	li	a7,-28
     948:	6324                	flw	fs1,64(a4)
     94a:	0100                	addi	s0,sp,128
     94c:	3308                	fld	fa0,32(a4)
     94e:	0009                	c.addi	zero,2
     950:	0200                	addi	s0,sp,256
     952:	6c91                	lui	s9,0x4
     954:	6925                	lui	s2,0x9
     956:	0100                	addi	s0,sp,128
     958:	5d0a                	lw	s10,160(sp)
     95a:	0000                	unimp
     95c:	4200                	lw	s0,0(a2)
     95e:	0000                	unimp
     960:	0000                	unimp
     962:	0410                	addi	a2,sp,512
     964:	055f 0000 5d09      	0x5d090000055f
     96a:	0000                	unimp
     96c:	2300                	fld	fs0,0(a4)
     96e:	0009                	c.addi	zero,2
     970:	0a00                	addi	s0,sp,272
     972:	0069                	c.addi	zero,26
     974:	0000                	unimp
     976:	0004                	addi	s1,sp,0
     978:	6409                	lui	s0,0x2
     97a:	0000                	unimp
     97c:	3300                	fld	fs0,32(a4)
     97e:	0009                	c.addi	zero,2
     980:	0a00                	addi	s0,sp,272
     982:	0069                	c.addi	zero,26
     984:	0000                	unimp
     986:	0004                	addi	s1,sp,0
     988:	2304                	fld	fs1,0(a4)
     98a:	0009                	c.addi	zero,2
     98c:	0000                	unimp
     98e:	1314                	addi	a3,sp,416
     990:	0000                	unimp
     992:	0004                	addi	s1,sp,0
     994:	000001f3          	0x1f3
     998:	0104                	addi	s1,sp,128
     99a:	0065                	c.addi	zero,25
     99c:	0000                	unimp
     99e:	560c                	lw	a1,40(a2)
     9a0:	0005                	c.addi	zero,1
     9a2:	7d00                	flw	fs0,56(a0)
     9a4:	72000003          	lb	zero,1824(zero) # 720 <__call_exitprocs+0x5e>
     9a8:	0001                	nop
     9aa:	9400                	0x9400
     9ac:	0001                	nop
     9ae:	a000                	fsd	fs0,0(s0)
     9b0:	0002                	0x2
     9b2:	0200                	addi	s0,sp,256
     9b4:	0601                	addi	a2,a2,0
     9b6:	029f 0000 0102      	0x1020000029f
     9bc:	9d08                	0x9d08
     9be:	0002                	0x2
     9c0:	0200                	addi	s0,sp,256
     9c2:	0502                	slli	a0,a0,0x0
     9c4:	02b9                	addi	t0,t0,14
     9c6:	0000                	unimp
     9c8:	0202                	slli	tp,tp,0x0
     9ca:	0001cf07          	0x1cf07
     9ce:	0200                	addi	s0,sp,256
     9d0:	0504                	addi	s1,sp,640
     9d2:	00d4                	addi	a3,sp,68
     9d4:	0000                	unimp
     9d6:	00071e03          	lh	t3,0(a4) # 1000 <_malloc_r+0xc6>
     9da:	0200                	addi	s0,sp,256
     9dc:	0000534f          	fnmadd.s	ft6,ft0,ft0,ft0,unknown
     9e0:	0200                	addi	s0,sp,256
     9e2:	0704                	addi	s1,sp,896
     9e4:	004a                	0x4a
     9e6:	0000                	unimp
     9e8:	0802                	slli	a6,a6,0x0
     9ea:	cf05                	beqz	a4,a22 <_free_r+0x2c>
     9ec:	0000                	unimp
     9ee:	0200                	addi	s0,sp,256
     9f0:	0708                	addi	a0,sp,896
     9f2:	0045                	c.addi	zero,17
     9f4:	0000                	unimp
     9f6:	0404                	addi	s1,sp,512
     9f8:	6905                	lui	s2,0x1
     9fa:	746e                	flw	fs0,248(sp)
     9fc:	0200                	addi	s0,sp,256
     9fe:	0704                	addi	s1,sp,896
     a00:	0000004f          	fnmadd.s	ft0,ft0,ft0,ft0,rne
     a04:	0005f203          	p.lb	tp,zero(a1)
     a08:	0300                	addi	s0,sp,384
     a0a:	6895                	lui	a7,0x5
     a0c:	0000                	unimp
     a0e:	0300                	addi	s0,sp,384
     a10:	000006db          	p.mac	a3,zero,zero,zero
     a14:	006fd803          	lhu	a6,6(t6)
     a18:	0000                	unimp
     a1a:	1002                	0x1002
     a1c:	4804                	lw	s1,16(s0)
     a1e:	0002                	0x2
     a20:	0300                	addi	s0,sp,384
     a22:	0000028b          	p.lb	t0,0(zero!) # 0 <__vector_start>
     a26:	0704                	addi	s1,sp,896
     a28:	0068                	addi	a0,sp,12
     a2a:	0000                	unimp
     a2c:	00077503          	p.lb	a0,zero(a4)
     a30:	0500                	addi	s0,sp,640
     a32:	411c                	lw	a5,0(a0)
     a34:	0000                	unimp
     a36:	0300                	addi	s0,sp,384
     a38:	06d6                	slli	a3,a3,0x15
     a3a:	0000                	unimp
     a3c:	2005                	jal	a5c <_free_r+0x66>
     a3e:	0041                	c.addi	zero,16
     a40:	0000                	unimp
     a42:	00075503          	lhu	a0,0(a4)
     a46:	0500                	addi	s0,sp,640
     a48:	412c                	lw	a1,64(a0)
     a4a:	0000                	unimp
     a4c:	0300                	addi	s0,sp,384
     a4e:	063c                	addi	a5,sp,776
     a50:	0000                	unimp
     a52:	3605                	jal	572 <_puts_r+0x54>
     a54:	00000033          	add	zero,zero,zero
     a58:	0006f803          	p.lb	a6,zero(a3)
     a5c:	0500                	addi	s0,sp,640
     a5e:	3a3a                	fld	fs4,424(sp)
     a60:	0000                	unimp
     a62:	0300                	addi	s0,sp,384
     a64:	0684                	addi	s1,sp,832
     a66:	0000                	unimp
     a68:	3d05                	jal	898 <__sfp+0x16>
     a6a:	003a                	0x3a
     a6c:	0000                	unimp
     a6e:	00051303          	lh	t1,0(a0) # 1000 <_malloc_r+0xc6>
     a72:	0500                	addi	s0,sp,640
     a74:	3a49                	jal	406 <__TEST_DATA_SIZE+0x6>
     a76:	0000                	unimp
     a78:	0300                	addi	s0,sp,384
     a7a:	0599                	addi	a1,a1,6
     a7c:	0000                	unimp
     a7e:	5805                	li	a6,-31
     a80:	0048                	addi	a0,sp,4
     a82:	0000                	unimp
     a84:	00075403          	lhu	s0,0(a4)
     a88:	0500                	addi	s0,sp,640
     a8a:	b464                	fsd	fs1,232(s0)
     a8c:	0000                	unimp
     a8e:	0300                	addi	s0,sp,384
     a90:	0375                	addi	t1,t1,29
     a92:	0000                	unimp
     a94:	7205                	lui	tp,0xfffe1
     a96:	0041                	c.addi	zero,16
     a98:	0000                	unimp
     a9a:	00041c03          	lh	s8,0(s0) # 2000 <__TEST_RODATA_END+0x8c>
     a9e:	0500                	addi	s0,sp,640
     aa0:	6891                	lui	a7,0x4
     aa2:	0000                	unimp
     aa4:	0500                	addi	s0,sp,640
     aa6:	0219                	addi	tp,tp,6
     aa8:	0000                	unimp
     aaa:	6f016503          	p.elw	a0,1776(sp) # 982 <_malloc_trim_r+0x44>
     aae:	0000                	unimp
     ab0:	0600                	addi	s0,sp,768
     ab2:	0504                	addi	s1,sp,640
     ab4:	42a6                	lw	t0,72(sp)
     ab6:	0001                	nop
     ab8:	0700                	addi	s0,sp,896
     aba:	020c                	addi	a1,sp,256
     abc:	0000                	unimp
     abe:	a805                	j	aee <_free_r+0xf8>
     ac0:	00000117          	auipc	sp,0x0
     ac4:	0001ab07          	flw	fs6,0(gp) # ffff1000 <pulp__FC+0xffff1001>
     ac8:	0500                	addi	s0,sp,640
     aca:	42a9                	li	t0,10
     acc:	0001                	nop
     ace:	0000                	unimp
     ad0:	2c08                	fld	fa0,24(s0)
     ad2:	0000                	unimp
     ad4:	5200                	lw	s0,32(a2)
     ad6:	0001                	nop
     ad8:	0900                	addi	s0,sp,144
     ada:	0000006f          	j	ada <_free_r+0xe4>
     ade:	080a0003          	lb	zero,128(s4)
     ae2:	a305                	j	1002 <_malloc_r+0xc8>
     ae4:	00000173          	0x173
     ae8:	00035f0b          	p.lhu	t5,0(t1!) # 1000 <_malloc_r+0xc6>
     aec:	0500                	addi	s0,sp,640
     aee:	68a5                	lui	a7,0x9
     af0:	0000                	unimp
     af2:	0000                	unimp
     af4:	0003670b          	0x3670b
     af8:	0500                	addi	s0,sp,640
     afa:	23aa                	fld	ft7,136(sp)
     afc:	0001                	nop
     afe:	0400                	addi	s0,sp,512
     b00:	0300                	addi	s0,sp,384
     b02:	02e1                	addi	t0,t0,24
     b04:	0000                	unimp
     b06:	ab05                	j	1036 <_malloc_r+0xfc>
     b08:	0152                	slli	sp,sp,0x14
     b0a:	0000                	unimp
     b0c:	00016e03          	p.elw	t3,0(sp) # ac0 <_free_r+0xca>
     b10:	0500                	addi	s0,sp,640
     b12:	000093af          	0x93af
     b16:	0c00                	addi	s0,sp,528
     b18:	0304                	addi	s1,sp,384
     b1a:	04f2                	slli	s1,s1,0x1c
     b1c:	0000                	unimp
     b1e:	cb05                	beqz	a4,b4e <_free_r+0x158>
     b20:	003a                	0x3a
     b22:	0000                	unimp
     b24:	00073103          	0x73103
     b28:	0500                	addi	s0,sp,640
     b2a:	41cc                	lw	a1,4(a1)
     b2c:	0000                	unimp
     b2e:	0300                	addi	s0,sp,384
     b30:	03cd                	addi	t2,t2,19
     b32:	0000                	unimp
     b34:	1606                	slli	a2,a2,0x21
     b36:	00000053          	fadd.s	ft0,ft0,ft0,rne
     b3a:	7f0d                	lui	t5,0xfffe3
     b3c:	0001                	nop
     b3e:	1800                	addi	s0,sp,48
     b40:	2f06                	fld	ft10,64(sp)
     b42:	01ff                	0x1ff
     b44:	0000                	unimp
     b46:	0003020b          	p.lb	tp,0(t1!)
     b4a:	0600                	addi	s0,sp,768
     b4c:	ff31                	bnez	a4,aa8 <_free_r+0xb2>
     b4e:	0001                	nop
     b50:	0000                	unimp
     b52:	5f0e                	lw	t5,224(sp)
     b54:	3206006b          	0x3206006b
     b58:	0068                	addi	a0,sp,12
     b5a:	0000                	unimp
     b5c:	0b04                	addi	s1,sp,400
     b5e:	034a                	slli	t1,t1,0x12
     b60:	0000                	unimp
     b62:	3206                	fld	ft4,96(sp)
     b64:	0068                	addi	a0,sp,12
     b66:	0000                	unimp
     b68:	0b08                	addi	a0,sp,400
     b6a:	0168                	addi	a0,sp,140
     b6c:	0000                	unimp
     b6e:	3206                	fld	ft4,96(sp)
     b70:	0068                	addi	a0,sp,12
     b72:	0000                	unimp
     b74:	0b0c                	addi	a1,sp,400
     b76:	00000407          	0x407
     b7a:	3206                	fld	ft4,96(sp)
     b7c:	0068                	addi	a0,sp,12
     b7e:	0000                	unimp
     b80:	0e10                	addi	a2,sp,784
     b82:	785f 0600 0533      	0x5330600785f
     b88:	0002                	0x2
     b8a:	1400                	addi	s0,sp,544
     b8c:	0f00                	addi	s0,sp,912
     b8e:	ac04                	fsd	fs1,24(s0)
     b90:	0001                	nop
     b92:	0800                	addi	s0,sp,16
     b94:	01a1                	addi	gp,gp,8
     b96:	0000                	unimp
     b98:	0215                	addi	tp,tp,5
     b9a:	0000                	unimp
     b9c:	6f09                	lui	t5,0x2
     b9e:	0000                	unimp
     ba0:	0000                	unimp
     ba2:	0d00                	addi	s0,sp,656
     ba4:	01a6                	slli	gp,gp,0x9
     ba6:	0000                	unimp
     ba8:	0624                	addi	s1,sp,776
     baa:	00028e37          	lui	t3,0x28
     bae:	0b00                	addi	s0,sp,400
     bb0:	00c6                	slli	ra,ra,0x11
     bb2:	0000                	unimp
     bb4:	3906                	fld	fs2,96(sp)
     bb6:	0068                	addi	a0,sp,12
     bb8:	0000                	unimp
     bba:	0b00                	addi	s0,sp,400
     bbc:	000003a3          	sb	zero,7(zero) # 7 <__vector_start+0x7>
     bc0:	3a06                	fld	fs4,96(sp)
     bc2:	0068                	addi	a0,sp,12
     bc4:	0000                	unimp
     bc6:	0b04                	addi	s1,sp,400
     bc8:	00e9                	addi	ra,ra,26
     bca:	0000                	unimp
     bcc:	3b06                	fld	fs6,96(sp)
     bce:	0068                	addi	a0,sp,12
     bd0:	0000                	unimp
     bd2:	0b08                	addi	a0,sp,400
     bd4:	048a                	slli	s1,s1,0x2
     bd6:	0000                	unimp
     bd8:	3c06                	fld	fs8,96(sp)
     bda:	0068                	addi	a0,sp,12
     bdc:	0000                	unimp
     bde:	0b0c                	addi	a1,sp,400
     be0:	0000025b          	p.mac	tp,zero,zero,zero
     be4:	3d06                	fld	fs10,96(sp)
     be6:	0068                	addi	a0,sp,12
     be8:	0000                	unimp
     bea:	0b10                	addi	a2,sp,400
     bec:	0235                	addi	tp,tp,13
     bee:	0000                	unimp
     bf0:	3e06                	fld	ft8,96(sp)
     bf2:	0068                	addi	a0,sp,12
     bf4:	0000                	unimp
     bf6:	0b14                	addi	a3,sp,400
     bf8:	040c                	addi	a1,sp,512
     bfa:	0000                	unimp
     bfc:	3f06                	fld	ft10,96(sp)
     bfe:	0068                	addi	a0,sp,12
     c00:	0000                	unimp
     c02:	0b18                	addi	a4,sp,400
     c04:	000002c3          	fmadd.s	ft5,ft0,ft0,ft0,rne
     c08:	4006                	0x4006
     c0a:	0068                	addi	a0,sp,12
     c0c:	0000                	unimp
     c0e:	0b1c                	addi	a5,sp,400
     c10:	044c                	addi	a1,sp,516
     c12:	0000                	unimp
     c14:	4106                	lw	sp,64(sp)
     c16:	0068                	addi	a0,sp,12
     c18:	0000                	unimp
     c1a:	0020                	addi	s0,sp,8
     c1c:	f810                	fsw	fa2,48(s0)
     c1e:	0000                	unimp
     c20:	0800                	addi	s0,sp,16
     c22:	0601                	addi	a2,a2,0
     c24:	ce4a                	sw	s2,28(sp)
     c26:	0002                	0x2
     c28:	0b00                	addi	s0,sp,400
     c2a:	0000015b          	p.mac	sp,zero,zero,zero
     c2e:	4b06                	lw	s6,64(sp)
     c30:	02ce                	slli	t0,t0,0x13
     c32:	0000                	unimp
     c34:	0b00                	addi	s0,sp,400
     c36:	0000                	unimp
     c38:	0000                	unimp
     c3a:	4c06                	lw	s8,64(sp)
     c3c:	02ce                	slli	t0,t0,0x13
     c3e:	0000                	unimp
     c40:	1180                	addi	s0,sp,224
     c42:	000003bf 01a14e06 	0x1a14e06000003bf
     c4a:	0000                	unimp
     c4c:	0100                	addi	s0,sp,128
     c4e:	1d11                	addi	s10,s10,-28
     c50:	0001                	nop
     c52:	0600                	addi	s0,sp,768
     c54:	a151                	j	10d8 <_malloc_r+0x19e>
     c56:	0001                	nop
     c58:	0400                	addi	s0,sp,512
     c5a:	0001                	nop
     c5c:	8908                	0x8908
     c5e:	0001                	nop
     c60:	de00                	sw	s0,56(a2)
     c62:	0002                	0x2
     c64:	0900                	addi	s0,sp,144
     c66:	0000006f          	j	c66 <__sfvwrite_r+0xd2>
     c6a:	001f 6410 0002      	0x26410001f
     c70:	9000                	0x9000
     c72:	0601                	addi	a2,a2,0
     c74:	1c5d                	addi	s8,s8,-9
     c76:	0b000003          	lb	zero,176(zero) # b0 <__boot_address+0x30>
     c7a:	0302                	slli	t1,t1,0x0
     c7c:	0000                	unimp
     c7e:	5e06                	lw	t3,96(sp)
     c80:	031c                	addi	a5,sp,384
     c82:	0000                	unimp
     c84:	0b00                	addi	s0,sp,400
     c86:	031a                	slli	t1,t1,0x6
     c88:	0000                	unimp
     c8a:	5f06                	lw	t5,96(sp)
     c8c:	0068                	addi	a0,sp,12
     c8e:	0000                	unimp
     c90:	0b04                	addi	s1,sp,400
     c92:	00000163          	beqz	zero,c94 <__sfvwrite_r+0x100>
     c96:	6106                	flw	ft2,64(sp)
     c98:	0322                	slli	t1,t1,0x8
     c9a:	0000                	unimp
     c9c:	0b08                	addi	a0,sp,400
     c9e:	00f8                	addi	a4,sp,76
     ca0:	0000                	unimp
     ca2:	6206                	flw	ft4,64(sp)
     ca4:	028e                	slli	t0,t0,0x3
     ca6:	0000                	unimp
     ca8:	0088                	addi	a0,sp,64
     caa:	02de040f          	0x2de040f
     cae:	0000                	unimp
     cb0:	3208                	fld	fa0,32(a2)
     cb2:	32000003          	lb	zero,800(zero) # 320 <sw_irq_handler+0xa>
     cb6:	09000003          	lb	zero,144(zero) # 90 <__boot_address+0x10>
     cba:	0000006f          	j	cba <__sfvwrite_r+0x126>
     cbe:	001f 040f 0338      	0x338040f001f
     cc4:	0000                	unimp
     cc6:	0d12                	slli	s10,s10,0x4
     cc8:	02cd                	addi	t0,t0,19
     cca:	0000                	unimp
     ccc:	0608                	addi	a0,sp,768
     cce:	5e75                	li	t3,-3
     cd0:	0b000003          	lb	zero,176(zero) # b0 <__boot_address+0x30>
     cd4:	000000e3          	beqz	zero,14d4 <memmove+0x36>
     cd8:	7606                	flw	fa2,96(sp)
     cda:	035e                	slli	t1,t1,0x17
     cdc:	0000                	unimp
     cde:	0b00                	addi	s0,sp,400
     ce0:	074e                	slli	a4,a4,0x13
     ce2:	0000                	unimp
     ce4:	7706                	flw	fa4,96(sp)
     ce6:	0068                	addi	a0,sp,12
     ce8:	0000                	unimp
     cea:	0004                	addi	s1,sp,0
     cec:	002c040f          	0x2c040f
     cf0:	0000                	unimp
     cf2:	ec0d                	bnez	s0,d2c <__sfvwrite_r+0x198>
     cf4:	0002                	0x2
     cf6:	6800                	flw	fs0,16(s0)
     cf8:	b506                	fsd	ft1,168(sp)
     cfa:	048e                	slli	s1,s1,0x3
     cfc:	0000                	unimp
     cfe:	5f0e                	lw	t5,224(sp)
     d00:	0070                	addi	a2,sp,12
     d02:	b606                	fsd	ft1,296(sp)
     d04:	035e                	slli	t1,t1,0x17
     d06:	0000                	unimp
     d08:	0e00                	addi	s0,sp,784
     d0a:	725f 0600 68b7      	0x68b70600725f
     d10:	0000                	unimp
     d12:	0400                	addi	s0,sp,512
     d14:	5f0e                	lw	t5,224(sp)
     d16:	b8060077          	0xb8060077
     d1a:	0068                	addi	a0,sp,12
     d1c:	0000                	unimp
     d1e:	0b08                	addi	a0,sp,400
     d20:	0116                	slli	sp,sp,0x5
     d22:	0000                	unimp
     d24:	b906                	fsd	ft1,176(sp)
     d26:	00000033          	add	zero,zero,zero
     d2a:	0b0c                	addi	a1,sp,400
     d2c:	01c2                	slli	gp,gp,0x10
     d2e:	0000                	unimp
     d30:	ba06                	fsd	ft1,304(sp)
     d32:	00000033          	add	zero,zero,zero
     d36:	0e0e                	slli	t3,t3,0x3
     d38:	625f 0066 bb06      	0xbb060066625f
     d3e:	0339                	addi	t1,t1,14
     d40:	0000                	unimp
     d42:	0b10                	addi	a2,sp,400
     d44:	005c                	addi	a5,sp,4
     d46:	0000                	unimp
     d48:	bc06                	fsd	ft1,56(sp)
     d4a:	0068                	addi	a0,sp,12
     d4c:	0000                	unimp
     d4e:	0b18                	addi	a4,sp,400
     d50:	0106                	slli	sp,sp,0x1
     d52:	0000                	unimp
     d54:	c306                	sw	ra,132(sp)
     d56:	0189                	addi	gp,gp,2
     d58:	0000                	unimp
     d5a:	0b1c                	addi	a5,sp,400
     d5c:	0196                	slli	gp,gp,0x5
     d5e:	0000                	unimp
     d60:	c506                	sw	ra,136(sp)
     d62:	0600                	addi	s0,sp,768
     d64:	0000                	unimp
     d66:	0b20                	addi	s0,sp,408
     d68:	022e                	slli	tp,tp,0xb
     d6a:	0000                	unimp
     d6c:	c706                	sw	ra,140(sp)
     d6e:	0000062f          	0x62f
     d72:	0b24                	addi	s1,sp,408
     d74:	0000036f          	jal	t1,d74 <__sfvwrite_r+0x1e0>
     d78:	ca06                	sw	ra,20(sp)
     d7a:	00000653          	fadd.s	fa2,ft0,ft0,rne
     d7e:	0b28                	addi	a0,sp,408
     d80:	0466                	slli	s0,s0,0x19
     d82:	0000                	unimp
     d84:	cb06                	sw	ra,148(sp)
     d86:	066d                	addi	a2,a2,27
     d88:	0000                	unimp
     d8a:	0e2c                	addi	a1,sp,792
     d8c:	755f 0062 ce06      	0xce060062755f
     d92:	0339                	addi	t1,t1,14
     d94:	0000                	unimp
     d96:	0e30                	addi	a2,sp,792
     d98:	755f 0070 cf06      	0xcf060070755f
     d9e:	035e                	slli	t1,t1,0x17
     da0:	0000                	unimp
     da2:	0e38                	addi	a4,sp,792
     da4:	755f 0072 d006      	0xd0060072755f
     daa:	0068                	addi	a0,sp,12
     dac:	0000                	unimp
     dae:	0b3c                	addi	a5,sp,408
     db0:	00dd                	addi	ra,ra,23
     db2:	0000                	unimp
     db4:	d306                	sw	ra,164(sp)
     db6:	00000673          	0x673
     dba:	0b40                	addi	s0,sp,404
     dbc:	0439                	addi	s0,s0,14
     dbe:	0000                	unimp
     dc0:	d406                	sw	ra,40(sp)
     dc2:	00000683          	lb	a3,0(zero) # 0 <__vector_start>
     dc6:	6c5f0e43          	0x6c5f0e43
     dca:	0062                	0x62
     dcc:	d706                	sw	ra,172(sp)
     dce:	0339                	addi	t1,t1,14
     dd0:	0000                	unimp
     dd2:	0b44                	addi	s1,sp,404
     dd4:	04cc                	addi	a1,sp,580
     dd6:	0000                	unimp
     dd8:	da06                	sw	ra,52(sp)
     dda:	0068                	addi	a0,sp,12
     ddc:	0000                	unimp
     dde:	0b4c                	addi	a1,sp,404
     de0:	0134                	addi	a3,sp,136
     de2:	0000                	unimp
     de4:	db06                	sw	ra,180(sp)
     de6:	00b4                	addi	a3,sp,72
     de8:	0000                	unimp
     dea:	0b50                	addi	a2,sp,404
     dec:	001f 0000 de06      	0xde060000001f
     df2:	04ac                	addi	a1,sp,584
     df4:	0000                	unimp
     df6:	0b54                	addi	a3,sp,404
     df8:	0220                	addi	s0,sp,264
     dfa:	0000                	unimp
     dfc:	e206                	fsw	ft1,4(sp)
     dfe:	017e                	slli	sp,sp,0x1f
     e00:	0000                	unimp
     e02:	0b58                	addi	a4,sp,404
     e04:	02f4                	addi	a3,sp,332
     e06:	0000                	unimp
     e08:	e406                	fsw	ft1,8(sp)
     e0a:	00000173          	0x173
     e0e:	0b5c                	addi	a5,sp,404
     e10:	0226                	slli	tp,tp,0x9
     e12:	0000                	unimp
     e14:	e506                	fsw	ft1,136(sp)
     e16:	0068                	addi	a0,sp,12
     e18:	0000                	unimp
     e1a:	0064                	addi	s1,sp,12
     e1c:	00010c13          	mv	s8,sp
     e20:	ac00                	fsd	fs0,24(s0)
     e22:	0004                	addi	s1,sp,0
     e24:	1400                	addi	s0,sp,544
     e26:	04ac                	addi	a1,sp,584
     e28:	0000                	unimp
     e2a:	8914                	0x8914
     e2c:	0001                	nop
     e2e:	1400                	addi	s0,sp,544
     e30:	05e9                	addi	a1,a1,26
     e32:	0000                	unimp
     e34:	6814                	flw	fa3,16(s0)
     e36:	0000                	unimp
     e38:	0000                	unimp
     e3a:	04b7040f          	0x4b7040f
     e3e:	0000                	unimp
     e40:	ac15                	j	1074 <_malloc_r+0x13a>
     e42:	0004                	addi	s1,sp,0
     e44:	1600                	addi	s0,sp,800
     e46:	0352                	slli	t1,t1,0x14
     e48:	0000                	unimp
     e4a:	0428                	addi	a0,sp,520
     e4c:	3906                	fld	fs2,96(sp)
     e4e:	e902                	fsw	ft0,144(sp)
     e50:	0005                	c.addi	zero,1
     e52:	1700                	addi	s0,sp,928
     e54:	02b2                	slli	t0,t0,0xc
     e56:	0000                	unimp
     e58:	3b06                	fld	fs6,96(sp)
     e5a:	6802                	flw	fa6,0(sp)
     e5c:	0000                	unimp
     e5e:	0000                	unimp
     e60:	00012517          	auipc	a0,0x12
     e64:	0600                	addi	s0,sp,768
     e66:	0240                	addi	s0,sp,260
     e68:	06da                	slli	a3,a3,0x16
     e6a:	0000                	unimp
     e6c:	1704                	addi	s1,sp,928
     e6e:	01b2                	slli	gp,gp,0xc
     e70:	0000                	unimp
     e72:	4006                	0x4006
     e74:	da02                	sw	zero,52(sp)
     e76:	0006                	0x6
     e78:	0800                	addi	s0,sp,16
     e7a:	00017717          	auipc	a4,0x17
     e7e:	0600                	addi	s0,sp,768
     e80:	0240                	addi	s0,sp,260
     e82:	06da                	slli	a3,a3,0x16
     e84:	0000                	unimp
     e86:	170c                	addi	a1,sp,928
     e88:	0315                	addi	t1,t1,5
     e8a:	0000                	unimp
     e8c:	4206                	lw	tp,64(sp)
     e8e:	6802                	flw	fa6,0(sp)
     e90:	0000                	unimp
     e92:	1000                	addi	s0,sp,32
     e94:	00001417          	auipc	s0,0x1
     e98:	0600                	addi	s0,sp,768
     e9a:	08bc0243          	fmadd.s	ft4,fs8,fa1,ft1,rne
     e9e:	0000                	unimp
     ea0:	1714                	addi	a3,sp,928
     ea2:	0331                	addi	t1,t1,12
     ea4:	0000                	unimp
     ea6:	4606                	lw	a2,64(sp)
     ea8:	6802                	flw	fa6,0(sp)
     eaa:	0000                	unimp
     eac:	3000                	fld	fs0,32(s0)
     eae:	00031f17          	auipc	t5,0x31
     eb2:	0600                	addi	s0,sp,768
     eb4:	08d10247          	fmsub.s	ft4,ft2,fa3,ft1,rne
     eb8:	0000                	unimp
     eba:	1734                	addi	a3,sp,936
     ebc:	0276                	slli	tp,tp,0x1d
     ebe:	0000                	unimp
     ec0:	4906                	lw	s2,64(sp)
     ec2:	6802                	flw	fa6,0(sp)
     ec4:	0000                	unimp
     ec6:	3800                	fld	fs0,48(s0)
     ec8:	00032717          	auipc	a4,0x32
     ecc:	0600                	addi	s0,sp,768
     ece:	08e2024b          	fnmsub.s	ft4,ft4,fa4,ft1,rne
     ed2:	0000                	unimp
     ed4:	173c                	addi	a5,sp,936
     ed6:	0204                	addi	s1,sp,256
     ed8:	0000                	unimp
     eda:	4e06                	lw	t3,64(sp)
     edc:	ff02                	fsw	ft0,188(sp)
     ede:	0001                	nop
     ee0:	4000                	lw	s0,0(s0)
     ee2:	00019c17          	auipc	s8,0x19
     ee6:	0600                	addi	s0,sp,768
     ee8:	0068024f          	fnmadd.s	ft4,fa6,ft6,ft0,rne
     eec:	0000                	unimp
     eee:	1744                	addi	s1,sp,932
     ef0:	0480                	addi	s0,sp,576
     ef2:	0000                	unimp
     ef4:	5006                	0x5006
     ef6:	ff02                	fsw	ft0,188(sp)
     ef8:	0001                	nop
     efa:	4800                	lw	s0,16(s0)
     efc:	00028117          	auipc	sp,0x28
     f00:	0600                	addi	s0,sp,768
     f02:	0251                	addi	tp,tp,20
     f04:	08e8                	addi	a0,sp,92
     f06:	0000                	unimp
     f08:	174c                	addi	a1,sp,932
     f0a:	01ba                	slli	gp,gp,0xe
     f0c:	0000                	unimp
     f0e:	5406                	lw	s0,96(sp)
     f10:	6802                	flw	fa6,0(sp)
     f12:	0000                	unimp
     f14:	5000                	lw	s0,32(s0)
     f16:	00012c17          	auipc	s8,0x12
     f1a:	0600                	addi	s0,sp,768
     f1c:	0255                	addi	tp,tp,21
     f1e:	05e9                	addi	a1,a1,26
     f20:	0000                	unimp
     f22:	1754                	addi	a3,sp,932
     f24:	000002ab          	p.sb	zero,5(zero!) # 5 <__vector_start+0x5>
     f28:	7806                	flw	fa6,96(sp)
     f2a:	9a02                	jalr	s4
     f2c:	0008                	addi	a0,sp,0
     f2e:	5800                	lw	s0,48(s0)
     f30:	6418                	flw	fa4,8(s0)
     f32:	0002                	0x2
     f34:	0600                	addi	s0,sp,768
     f36:	027c                	addi	a5,sp,268
     f38:	031c                	addi	a5,sp,384
     f3a:	0000                	unimp
     f3c:	0148                	addi	a0,sp,132
     f3e:	e218                	fsw	fa4,0(a2)
     f40:	0001                	nop
     f42:	0600                	addi	s0,sp,768
     f44:	027d                	addi	tp,tp,31
     f46:	02de                	slli	t0,t0,0x17
     f48:	0000                	unimp
     f4a:	014c                	addi	a1,sp,132
     f4c:	2f18                	fld	fa4,24(a4)
     f4e:	0004                	addi	s1,sp,0
     f50:	0600                	addi	s0,sp,768
     f52:	0281                	addi	t0,t0,0
     f54:	08f9                	addi	a7,a7,30
     f56:	0000                	unimp
     f58:	02dc                	addi	a5,sp,324
     f5a:	0e18                	addi	a4,sp,784
     f5c:	0001                	nop
     f5e:	0600                	addi	s0,sp,768
     f60:	0286                	slli	t0,t0,0x1
     f62:	069f 0000 02e0      	0x2e00000069f
     f68:	f318                	fsw	fa4,32(a4)
     f6a:	0000                	unimp
     f6c:	0600                	addi	s0,sp,768
     f6e:	09050287          	0x9050287
     f72:	0000                	unimp
     f74:	02ec                	addi	a1,sp,332
     f76:	0f00                	addi	s0,sp,912
     f78:	f404                	fsw	fs1,40(s0)
     f7a:	0005                	c.addi	zero,1
     f7c:	1500                	addi	s0,sp,672
     f7e:	05e9                	addi	a1,a1,26
     f80:	0000                	unimp
     f82:	0102                	slli	sp,sp,0x0
     f84:	a608                	fsd	fa0,8(a2)
     f86:	0002                	0x2
     f88:	1500                	addi	s0,sp,672
     f8a:	05f4                	addi	a3,sp,716
     f8c:	0000                	unimp
     f8e:	048e040f          	0x48e040f
     f92:	0000                	unimp
     f94:	00010c13          	mv	s8,sp
     f98:	2400                	fld	fs0,8(s0)
     f9a:	0006                	0x6
     f9c:	1400                	addi	s0,sp,544
     f9e:	04ac                	addi	a1,sp,584
     fa0:	0000                	unimp
     fa2:	8914                	0x8914
     fa4:	0001                	nop
     fa6:	1400                	addi	s0,sp,544
     fa8:	0624                	addi	s1,sp,776
     faa:	0000                	unimp
     fac:	6814                	flw	fa3,16(s0)
     fae:	0000                	unimp
     fb0:	0000                	unimp
     fb2:	05fb040f          	0x5fb040f
     fb6:	0000                	unimp
     fb8:	2415                	jal	11dc <_malloc_r+0x2a2>
     fba:	0006                	0x6
     fbc:	0f00                	addi	s0,sp,912
     fbe:	0604                	addi	s1,sp,768
     fc0:	0006                	0x6
     fc2:	1300                	addi	s0,sp,416
     fc4:	0101                	addi	sp,sp,0
     fc6:	0000                	unimp
     fc8:	00000653          	fadd.s	fa2,ft0,ft0,rne
     fcc:	ac14                	fsd	fa3,24(s0)
     fce:	0004                	addi	s1,sp,0
     fd0:	1400                	addi	s0,sp,544
     fd2:	0189                	addi	gp,gp,2
     fd4:	0000                	unimp
     fd6:	0114                	addi	a3,sp,128
     fd8:	0001                	nop
     fda:	1400                	addi	s0,sp,544
     fdc:	0068                	addi	a0,sp,12
     fde:	0000                	unimp
     fe0:	0f00                	addi	s0,sp,912
     fe2:	3504                	fld	fs1,40(a0)
     fe4:	0006                	0x6
     fe6:	1300                	addi	s0,sp,416
     fe8:	0068                	addi	a0,sp,12
     fea:	0000                	unimp
     fec:	066d                	addi	a2,a2,27
     fee:	0000                	unimp
     ff0:	ac14                	fsd	fa3,24(s0)
     ff2:	0004                	addi	s1,sp,0
     ff4:	1400                	addi	s0,sp,544
     ff6:	0189                	addi	gp,gp,2
     ff8:	0000                	unimp
     ffa:	0f00                	addi	s0,sp,912
     ffc:	5904                	lw	s1,48(a0)
     ffe:	0006                	0x6
    1000:	0800                	addi	s0,sp,16
    1002:	002c                	addi	a1,sp,8
    1004:	0000                	unimp
    1006:	00000683          	lb	a3,0(zero) # 0 <__vector_start>
    100a:	6f09                	lui	t5,0x2
    100c:	0000                	unimp
    100e:	0200                	addi	s0,sp,256
    1010:	0800                	addi	s0,sp,16
    1012:	002c                	addi	a1,sp,8
    1014:	0000                	unimp
    1016:	00000693          	li	a3,0
    101a:	6f09                	lui	t5,0x2
    101c:	0000                	unimp
    101e:	0000                	unimp
    1020:	0500                	addi	s0,sp,640
    1022:	02da                	slli	t0,t0,0x16
    1024:	0000                	unimp
    1026:	1f06                	slli	t5,t5,0x21
    1028:	6401                	lui	s0,0x0
    102a:	19000003          	lb	zero,400(zero) # 190 <nanosleep+0x4>
    102e:	0416                	slli	s0,s0,0x5
    1030:	0000                	unimp
    1032:	060c                	addi	a1,sp,768
    1034:	06d40123          	sb	a3,98(s0) # 62 <__vector_start+0x62>
    1038:	0000                	unimp
    103a:	00030217          	auipc	tp,0x30
    103e:	0600                	addi	s0,sp,768
    1040:	0125                	addi	sp,sp,9
    1042:	06d4                	addi	a3,sp,836
    1044:	0000                	unimp
    1046:	1700                	addi	s0,sp,928
    1048:	01c8                	addi	a0,sp,196
    104a:	0000                	unimp
    104c:	2606                	fld	fa2,64(sp)
    104e:	6801                	lui	a6,0x0
    1050:	0000                	unimp
    1052:	0400                	addi	s0,sp,512
    1054:	0002d417          	auipc	s0,0x2d
    1058:	0600                	addi	s0,sp,768
    105a:	06da0127          	0x6da0127
    105e:	0000                	unimp
    1060:	0008                	addi	a0,sp,0
    1062:	069f040f          	0x69f040f
    1066:	0000                	unimp
    1068:	0693040f          	0x693040f
    106c:	0000                	unimp
    106e:	0c19                	addi	s8,s8,6
    1070:	0000                	unimp
    1072:	0e00                	addi	s0,sp,784
    1074:	3f06                	fld	ft10,96(sp)
    1076:	1501                	addi	a0,a0,-32
    1078:	17000007          	0x17000007
    107c:	0359                	addi	t1,t1,22
    107e:	0000                	unimp
    1080:	4006                	0x4006
    1082:	1501                	addi	a0,a0,-32
    1084:	00000007          	0x7
    1088:	0003ac17          	auipc	s8,0x3a
    108c:	0600                	addi	s0,sp,768
    108e:	0141                	addi	sp,sp,16
    1090:	0715                	addi	a4,a4,5
    1092:	0000                	unimp
    1094:	1706                	slli	a4,a4,0x21
    1096:	03c8                	addi	a0,sp,452
    1098:	0000                	unimp
    109a:	4206                	lw	tp,64(sp)
    109c:	3a01                	jal	9ac <_malloc_trim_r+0x6e>
    109e:	0000                	unimp
    10a0:	0c00                	addi	s0,sp,528
    10a2:	0800                	addi	s0,sp,16
    10a4:	003a                	0x3a
    10a6:	0000                	unimp
    10a8:	0725                	addi	a4,a4,9
    10aa:	0000                	unimp
    10ac:	6f09                	lui	t5,0x2
    10ae:	0000                	unimp
    10b0:	0200                	addi	s0,sp,256
    10b2:	1a00                	addi	s0,sp,304
    10b4:	06d0                	addi	a2,sp,836
    10b6:	0259                	addi	tp,tp,22
    10b8:	0826                	slli	a6,a6,0x9
    10ba:	0000                	unimp
    10bc:	0003fa17          	auipc	s4,0x3f
    10c0:	0600                	addi	s0,sp,768
    10c2:	006f025b          	p.mac	tp,t5,t1,zero
    10c6:	0000                	unimp
    10c8:	1700                	addi	s0,sp,928
    10ca:	03b2                	slli	t2,t2,0xc
    10cc:	0000                	unimp
    10ce:	5c06                	lw	s8,96(sp)
    10d0:	e902                	fsw	ft0,144(sp)
    10d2:	0005                	c.addi	zero,1
    10d4:	0400                	addi	s0,sp,512
    10d6:	0001f717          	auipc	a4,0x1f
    10da:	0600                	addi	s0,sp,768
    10dc:	025d                	addi	tp,tp,23
    10de:	0826                	slli	a6,a6,0x9
    10e0:	0000                	unimp
    10e2:	1708                	addi	a0,sp,928
    10e4:	00000457          	pv.add.h	s0,zero,zero
    10e8:	5e06                	lw	t3,96(sp)
    10ea:	1502                	slli	a0,a0,0x20
    10ec:	0002                	0x2
    10ee:	2400                	fld	fs0,8(s0)
    10f0:	00018717          	auipc	a4,0x18
    10f4:	0600                	addi	s0,sp,768
    10f6:	025f 0068 0000      	0x68025f
    10fc:	1748                	addi	a0,sp,932
    10fe:	02fd                	addi	t0,t0,31
    1100:	0000                	unimp
    1102:	6006                	flw	ft0,64(sp)
    1104:	6102                	flw	ft2,0(sp)
    1106:	0000                	unimp
    1108:	5000                	lw	s0,32(s0)
    110a:	00046d17          	auipc	s10,0x46
    110e:	0600                	addi	s0,sp,768
    1110:	0261                	addi	tp,tp,24
    1112:	06e0                	addi	s0,sp,844
    1114:	0000                	unimp
    1116:	1758                	addi	a4,sp,932
    1118:	0308                	addi	a0,sp,384
    111a:	0000                	unimp
    111c:	6206                	flw	ft4,64(sp)
    111e:	7302                	flw	ft6,32(sp)
    1120:	0001                	nop
    1122:	6800                	flw	fs0,16(s0)
    1124:	00047217          	auipc	tp,0x47
    1128:	0600                	addi	s0,sp,768
    112a:	01730263          	beq	t1,s7,112e <_malloc_r+0x1f4>
    112e:	0000                	unimp
    1130:	1770                	addi	a2,sp,940
    1132:	00b8                	addi	a4,sp,72
    1134:	0000                	unimp
    1136:	6406                	flw	fs0,64(sp)
    1138:	7302                	flw	ft6,32(sp)
    113a:	0001                	nop
    113c:	7800                	flw	fs0,48(s0)
    113e:	00042517          	auipc	a0,0x42
    1142:	0600                	addi	s0,sp,768
    1144:	0265                	addi	tp,tp,25
    1146:	0836                	slli	a6,a6,0xd
    1148:	0000                	unimp
    114a:	1780                	addi	s0,sp,992
    114c:	000001eb          	0x1eb
    1150:	6606                	flw	fa2,64(sp)
    1152:	4602                	lw	a2,0(sp)
    1154:	0008                	addi	a0,sp,0
    1156:	8800                	0x8800
    1158:	0003d517          	auipc	a0,0x3d
    115c:	0600                	addi	s0,sp,768
    115e:	00680267          	jalr	tp,6(a6) # 6 <__vector_start+0x6>
    1162:	0000                	unimp
    1164:	17a0                	addi	s0,sp,1000
    1166:	014d                	addi	sp,sp,19
    1168:	0000                	unimp
    116a:	6806                	flw	fa6,64(sp)
    116c:	7302                	flw	ft6,32(sp)
    116e:	0001                	nop
    1170:	a400                	fsd	fs0,8(s0)
    1172:	0000a917          	auipc	s2,0xa
    1176:	0600                	addi	s0,sp,768
    1178:	0269                	addi	tp,tp,26
    117a:	00000173          	0x173
    117e:	17ac                	addi	a1,sp,1000
    1180:	013c                	addi	a5,sp,136
    1182:	0000                	unimp
    1184:	6a06                	flw	fs4,64(sp)
    1186:	7302                	flw	ft6,32(sp)
    1188:	0001                	nop
    118a:	b400                	fsd	fs0,40(s0)
    118c:	00002517          	auipc	a0,0x2
    1190:	0600                	addi	s0,sp,768
    1192:	0173026b          	0x173026b
    1196:	0000                	unimp
    1198:	17bc                	addi	a5,sp,1000
    119a:	0034                	addi	a3,sp,8
    119c:	0000                	unimp
    119e:	6c06                	flw	fs8,64(sp)
    11a0:	7302                	flw	ft6,32(sp)
    11a2:	0001                	nop
    11a4:	c400                	sw	s0,8(s0)
    11a6:	0002b017          	auipc	zero,0x2b
    11aa:	0600                	addi	s0,sp,768
    11ac:	026d                	addi	tp,tp,27
    11ae:	0068                	addi	a0,sp,12
    11b0:	0000                	unimp
    11b2:	00cc                	addi	a1,sp,68
    11b4:	f408                	fsw	fa0,40(s0)
    11b6:	0005                	c.addi	zero,1
    11b8:	3600                	fld	fs0,40(a2)
    11ba:	0008                	addi	a0,sp,0
    11bc:	0900                	addi	s0,sp,144
    11be:	0000006f          	j	11be <_malloc_r+0x284>
    11c2:	0019                	c.addi	zero,6
    11c4:	f408                	fsw	fa0,40(s0)
    11c6:	0005                	c.addi	zero,1
    11c8:	4600                	lw	s0,8(a2)
    11ca:	0008                	addi	a0,sp,0
    11cc:	0900                	addi	s0,sp,144
    11ce:	0000006f          	j	11ce <_malloc_r+0x294>
    11d2:	f4080007          	0xf4080007
    11d6:	0005                	c.addi	zero,1
    11d8:	5600                	lw	s0,40(a2)
    11da:	0008                	addi	a0,sp,0
    11dc:	0900                	addi	s0,sp,144
    11de:	0000006f          	j	11de <_malloc_r+0x2a4>
    11e2:	f01a0017          	auipc	zero,0xf01a0
    11e6:	7206                	flw	ft4,96(sp)
    11e8:	7a02                	flw	fs4,32(sp)
    11ea:	0008                	addi	a0,sp,0
    11ec:	1700                	addi	s0,sp,928
    11ee:	0254                	addi	a3,sp,260
    11f0:	0000                	unimp
    11f2:	7506                	flw	fa0,96(sp)
    11f4:	7a02                	flw	fs4,32(sp)
    11f6:	0008                	addi	a0,sp,0
    11f8:	0000                	unimp
    11fa:	00023f17          	auipc	t5,0x23
    11fe:	0600                	addi	s0,sp,768
    1200:	0276                	slli	tp,tp,0x1d
    1202:	088a                	slli	a7,a7,0x2
    1204:	0000                	unimp
    1206:	0078                	addi	a4,sp,12
    1208:	5e08                	lw	a0,56(a2)
    120a:	8a000003          	lb	zero,-1888(zero) # fffff8a0 <pulp__FC+0xfffff8a1>
    120e:	0008                	addi	a0,sp,0
    1210:	0900                	addi	s0,sp,144
    1212:	0000006f          	j	1212 <_malloc_r+0x2d8>
    1216:	001d                	c.addi	zero,7
    1218:	6f08                	flw	fa0,24(a4)
    121a:	0000                	unimp
    121c:	9a00                	0x9a00
    121e:	0008                	addi	a0,sp,0
    1220:	0900                	addi	s0,sp,144
    1222:	0000006f          	j	1222 <_malloc_r+0x2e8>
    1226:	001d                	c.addi	zero,7
    1228:	5706f01b          	0x5706f01b
    122c:	bc02                	fsd	ft0,56(sp)
    122e:	0008                	addi	a0,sp,0
    1230:	1c00                	addi	s0,sp,560
    1232:	0352                	slli	t1,t1,0x14
    1234:	0000                	unimp
    1236:	6e06                	flw	ft8,64(sp)
    1238:	2502                	fld	fa0,0(sp)
    123a:	1c000007          	0x1c000007
    123e:	0000043f 56027706 	0x560277060000043f
    1246:	0008                	addi	a0,sp,0
    1248:	0000                	unimp
    124a:	f408                	fsw	fa0,40(s0)
    124c:	0005                	c.addi	zero,1
    124e:	cc00                	sw	s0,24(s0)
    1250:	0008                	addi	a0,sp,0
    1252:	0900                	addi	s0,sp,144
    1254:	0000006f          	j	1254 <_malloc_r+0x31a>
    1258:	0018                	addi	a4,sp,0
    125a:	9e1d                	0x9e1d
    125c:	0000                	unimp
    125e:	0f00                	addi	s0,sp,912
    1260:	cc04                	sw	s1,24(s0)
    1262:	0008                	addi	a0,sp,0
    1264:	1e00                	addi	s0,sp,816
    1266:	08e2                	slli	a7,a7,0x18
    1268:	0000                	unimp
    126a:	ac14                	fsd	fa3,24(s0)
    126c:	0004                	addi	s1,sp,0
    126e:	0000                	unimp
    1270:	08d7040f          	0x8d7040f
    1274:	0000                	unimp
    1276:	01ff040f          	0x1ff040f
    127a:	0000                	unimp
    127c:	f91e                	fsw	ft7,176(sp)
    127e:	0008                	addi	a0,sp,0
    1280:	1400                	addi	s0,sp,544
    1282:	0068                	addi	a0,sp,12
    1284:	0000                	unimp
    1286:	0f00                	addi	s0,sp,912
    1288:	ff04                	fsw	fs1,56(a4)
    128a:	0008                	addi	a0,sp,0
    128c:	0f00                	addi	s0,sp,912
    128e:	ee04                	fsw	fs1,24(a2)
    1290:	0008                	addi	a0,sp,0
    1292:	0800                	addi	s0,sp,16
    1294:	00000693          	li	a3,0
    1298:	0915                	addi	s2,s2,5
    129a:	0000                	unimp
    129c:	6f09                	lui	t5,0x2
    129e:	0000                	unimp
    12a0:	0200                	addi	s0,sp,256
    12a2:	1f00                	addi	s0,sp,944
    12a4:	03e9                	addi	t2,t2,26
    12a6:	0000                	unimp
    12a8:	fe06                	fsw	ft1,60(sp)
    12aa:	ac02                	fsd	ft0,24(sp)
    12ac:	0004                	addi	s1,sp,0
    12ae:	1f00                	addi	s0,sp,944
    12b0:	03e2                	slli	t2,t2,0x18
    12b2:	0000                	unimp
    12b4:	ff06                	fsw	ft1,188(sp)
    12b6:	b202                	fsd	ft0,288(sp)
    12b8:	0004                	addi	s1,sp,0
    12ba:	0300                	addi	s0,sp,384
    12bc:	00000733          	add	a4,zero,zero
    12c0:	01962307          	flw	ft6,25(a2) # c019 <__TEST_RODATA_END+0xa0a5>
    12c4:	0000                	unimp
    12c6:	00061b03          	lh	s6,0(a2)
    12ca:	0700                	addi	s0,sp,896
    12cc:	4128                	lw	a0,64(a0)
    12ce:	0000                	unimp
    12d0:	0d00                	addi	s0,sp,656
    12d2:	057c                	addi	a5,sp,652
    12d4:	0000                	unimp
    12d6:	0708                	addi	a0,sp,896
    12d8:	6834                	flw	fa3,80(s0)
    12da:	0009                	c.addi	zero,2
    12dc:	0b00                	addi	s0,sp,400
    12de:	0710                	addi	a2,sp,896
    12e0:	0000                	unimp
    12e2:	09383507          	fld	fa0,147(a6)
    12e6:	0000                	unimp
    12e8:	0b00                	addi	s0,sp,400
    12ea:	05b1                	addi	a1,a1,12
    12ec:	0000                	unimp
    12ee:	092d3607          	fld	fa2,146(s10) # 4719c <__TEST_RODATA_END+0x45228>
    12f2:	0000                	unimp
    12f4:	0004                	addi	s1,sp,0
    12f6:	e30d                	bnez	a4,1318 <_malloc_r+0x3de>
    12f8:	0005                	c.addi	zero,1
    12fa:	0800                	addi	s0,sp,16
    12fc:	2d08                	fld	fa0,24(a0)
    12fe:	098d                	addi	s3,s3,3
    1300:	0000                	unimp
    1302:	0007100b          	p.lh	zero,0(a4!) # 190f0 <__TEST_RODATA_END+0x1717c>
    1306:	0800                	addi	s0,sp,16
    1308:	382e                	fld	fa6,232(sp)
    130a:	0009                	c.addi	zero,2
    130c:	0000                	unimp
    130e:	0005910b          	p.lh	sp,0(a1!)
    1312:	0800                	addi	s0,sp,16
    1314:	0000412f          	0x412f
    1318:	0400                	addi	s0,sp,512
    131a:	1500                	addi	s0,sp,672
    131c:	0968                	addi	a0,sp,156
    131e:	0000                	unimp
    1320:	00077703          	p.lb	a4,zero(a4)
    1324:	0900                	addi	s0,sp,144
    1326:	9e71                	0x9e71
    1328:	0000                	unimp
    132a:	0300                	addi	s0,sp,384
    132c:	06d8                	addi	a4,sp,836
    132e:	0000                	unimp
    1330:	7609                	lui	a2,0xfffe2
    1332:	00a9                	addi	ra,ra,10
    1334:	0000                	unimp
    1336:	00056c03          	p.elw	s8,0(a0) # 318c <__TEST_RODATA_END+0x1218>
    133a:	0900                	addi	s0,sp,144
    133c:	0000537b          	lp.setupi	x6,0,133c <_malloc_r+0x402>
    1340:	0300                	addi	s0,sp,384
    1342:	0515                	addi	a0,a0,5
    1344:	0000                	unimp
    1346:	9b09                	andi	a4,a4,-30
    1348:	00e0                	addi	s0,sp,76
    134a:	0000                	unimp
    134c:	00075603          	lhu	a2,0(a4)
    1350:	0900                	addi	s0,sp,144
    1352:	f6ad                	bnez	a3,12bc <_malloc_r+0x382>
    1354:	0000                	unimp
    1356:	0300                	addi	s0,sp,384
    1358:	063e                	slli	a2,a2,0xf
    135a:	0000                	unimp
    135c:	b109                	j	f5e <_malloc_r+0x24>
    135e:	000000bf 0006fa03 	0x6fa03000000bf
    1366:	0900                	addi	s0,sp,144
    1368:	cab5                	beqz	a3,13dc <memchr+0x16>
    136a:	0000                	unimp
    136c:	0300                	addi	s0,sp,384
    136e:	0686                	slli	a3,a3,0x1
    1370:	0000                	unimp
    1372:	b909                	j	f84 <_malloc_r+0x4a>
    1374:	00d5                	addi	ra,ra,21
    1376:	0000                	unimp
    1378:	00041d03          	lh	s10,0(s0) # 2e054 <__TEST_RODATA_END+0x2c0e0>
    137c:	0900                	addi	s0,sp,144
    137e:	0cc8                	addi	a0,sp,596
    1380:	0001                	nop
    1382:	0300                	addi	s0,sp,384
    1384:	0000059b          	0x59b
    1388:	cd09                	beqz	a0,13a2 <_malloc_r+0x468>
    138a:	000000eb          	0xeb
    138e:	0004f403          	p.lb	s0,zero(s1)
    1392:	0900                	addi	s0,sp,144
    1394:	8bd2                	mv	s7,s4
    1396:	0001                	nop
    1398:	2000                	fld	fs0,0(s0)
    139a:	0629                	addi	a2,a2,10
    139c:	0000                	unimp
    139e:	9a0a                	add	s4,s4,sp
    13a0:	0041                	c.addi	zero,16
    13a2:	0000                	unimp
    13a4:	ac20                	fsd	fs0,88(s0)
    13a6:	0004                	addi	s1,sp,0
    13a8:	0a00                	addi	s0,sp,272
    13aa:	0000689b          	0x689b
    13ae:	0800                	addi	s0,sp,16
    13b0:	05e9                	addi	a1,a1,26
    13b2:	0000                	unimp
    13b4:	0a31                	addi	s4,s4,12
    13b6:	0000                	unimp
    13b8:	6f09                	lui	t5,0x2
    13ba:	0000                	unimp
    13bc:	0100                	addi	s0,sp,128
    13be:	2000                	fld	fs0,0(s0)
    13c0:	05d0                	addi	a2,sp,708
    13c2:	0000                	unimp
    13c4:	9e0a                	add	t3,t3,sp
    13c6:	0a21                	addi	s4,s4,8
    13c8:	0000                	unimp
    13ca:	ab0d                	j	18fc <__swrite+0x2e>
    13cc:	0006                	0x6
    13ce:	3c00                	fld	fs0,56(s0)
    13d0:	0b151b0b          	p.lh	s6,177(a0!)
    13d4:	0000                	unimp
    13d6:	00058a0b          	p.lb	s4,0(a1!)
    13da:	0b00                	addi	s0,sp,400
    13dc:	c91d                	beqz	a0,1412 <memcpy+0x32>
    13de:	0009                	c.addi	zero,2
    13e0:	0000                	unimp
    13e2:	0006220b          	p.lw	tp,0(a2!) # fffe2000 <pulp__FC+0xfffe2001>
    13e6:	0b00                	addi	s0,sp,400
    13e8:	b31e                	fsd	ft7,416(sp)
    13ea:	0009                	c.addi	zero,2
    13ec:	0200                	addi	s0,sp,256
    13ee:	0005a90b          	p.lw	s2,0(a1!)
    13f2:	0b00                	addi	s0,sp,400
    13f4:	f51f 0009 0400      	0x4000009f51f
    13fa:	0005c20b          	p.lbu	tp,0(a1!)
    13fe:	0b00                	addi	s0,sp,400
    1400:	0020                	addi	s0,sp,8
    1402:	000a                	0xa
    1404:	0800                	addi	s0,sp,16
    1406:	0006030b          	p.lb	t1,0(a2!)
    140a:	0b00                	addi	s0,sp,400
    140c:	d421                	beqz	s0,1354 <_malloc_r+0x41a>
    140e:	0009                	c.addi	zero,2
    1410:	0a00                	addi	s0,sp,272
    1412:	0005a20b          	p.lw	tp,0(a1!)
    1416:	0b00                	addi	s0,sp,400
    1418:	df22                	sw	s0,188(sp)
    141a:	0009                	c.addi	zero,2
    141c:	0c00                	addi	s0,sp,528
    141e:	0007900b          	p.lh	zero,0(a5!)
    1422:	0b00                	addi	s0,sp,400
    1424:	0009c923          	p.sb	zero,s2(s3)
    1428:	0e00                	addi	s0,sp,784
    142a:	00074c0b          	p.lbu	s8,0(a4!)
    142e:	0b00                	addi	s0,sp,400
    1430:	be24                	fsd	fs1,120(a2)
    1432:	0009                	c.addi	zero,2
    1434:	1000                	addi	s0,sp,32
    1436:	0006120b          	p.lh	tp,0(a2!)
    143a:	0b00                	addi	s0,sp,400
    143c:	3832                	fld	fa6,296(sp)
    143e:	0009                	c.addi	zero,2
    1440:	1400                	addi	s0,sp,544
    1442:	00065c0b          	p.lhu	s8,0(a2!)
    1446:	0b00                	addi	s0,sp,400
    1448:	00004133          	xor	sp,zero,zero
    144c:	1800                	addi	s0,sp,48
    144e:	00054d0b          	p.lbu	s10,0(a0!)
    1452:	0b00                	addi	s0,sp,400
    1454:	3834                	fld	fa3,112(s0)
    1456:	0009                	c.addi	zero,2
    1458:	1c00                	addi	s0,sp,560
    145a:	0006660b          	0x6660b
    145e:	0b00                	addi	s0,sp,400
    1460:	4135                	li	sp,13
    1462:	0000                	unimp
    1464:	2000                	fld	fs0,0(s0)
    1466:	0007000b          	p.lb	zero,0(a4!)
    146a:	0b00                	addi	s0,sp,400
    146c:	3836                	fld	fa6,360(sp)
    146e:	0009                	c.addi	zero,2
    1470:	2400                	fld	fs0,8(s0)
    1472:	0006700b          	p.lb	zero,zero(a2!)
    1476:	0b00                	addi	s0,sp,400
    1478:	00004137          	lui	sp,0x4
    147c:	2800                	fld	fs0,16(s0)
    147e:	0004ca0b          	p.lbu	s4,0(s1!)
    1482:	0b00                	addi	s0,sp,400
    1484:	9d38                	0x9d38
    1486:	0009                	c.addi	zero,2
    1488:	2c00                	fld	fs0,24(s0)
    148a:	0005430b          	p.lbu	t1,0(a0!)
    148e:	0b00                	addi	s0,sp,400
    1490:	9239                	srli	a2,a2,0x2e
    1492:	0009                	c.addi	zero,2
    1494:	3000                	fld	fs0,32(s0)
    1496:	00067a0b          	p.lb	s4,zero(a2!)
    149a:	0b00                	addi	s0,sp,400
    149c:	153a                	slli	a0,a0,0x2e
    149e:	3400000b          	p.lb	zero,832(zero!) # 340 <handle_ecall+0x2>
    14a2:	0800                	addi	s0,sp,16
    14a4:	0041                	c.addi	zero,16
    14a6:	0000                	unimp
    14a8:	0b25                	addi	s6,s6,9
    14aa:	0000                	unimp
    14ac:	6f09                	lui	t5,0x2
    14ae:	0000                	unimp
    14b0:	0100                	addi	s0,sp,128
    14b2:	2000                	fld	fs0,0(s0)
    14b4:	060a                	slli	a2,a2,0x2
    14b6:	0000                	unimp
    14b8:	100c                	addi	a1,sp,32
    14ba:	0b30                	addi	a2,sp,408
    14bc:	0000                	unimp
    14be:	05e9040f          	0x5e9040f
    14c2:	0000                	unimp
    14c4:	6f20                	flw	fs0,88(a4)
    14c6:	0002                	0x2
    14c8:	0c00                	addi	s0,sp,528
    14ca:	e9e2                	fsw	fs8,208(sp)
    14cc:	0005                	c.addi	zero,1
    14ce:	2000                	fld	fs0,0(s0)
    14d0:	0644                	addi	s1,sp,772
    14d2:	0000                	unimp
    14d4:	e30c                	fsw	fa1,0(a4)
    14d6:	0068                	addi	a0,sp,12
    14d8:	0000                	unimp
    14da:	3620                	fld	fs0,104(a2)
    14dc:	0005                	c.addi	zero,1
    14de:	0c00                	addi	s0,sp,528
    14e0:	000068e3          	bltu	zero,zero,1cf0 <_lseek_r+0x2a>
    14e4:	2000                	fld	fs0,0(s0)
    14e6:	04b6                	slli	s1,s1,0xd
    14e8:	0000                	unimp
    14ea:	e30c                	fsw	fa1,0(a4)
    14ec:	0068                	addi	a0,sp,12
    14ee:	0000                	unimp
    14f0:	b620                	fsd	fs0,104(a2)
    14f2:	0006                	0x6
    14f4:	0c00                	addi	s0,sp,528
    14f6:	68e5                	lui	a7,0x19
    14f8:	0000                	unimp
    14fa:	0800                	addi	s0,sp,16
    14fc:	062a                	slli	a2,a2,0xa
    14fe:	0000                	unimp
    1500:	0b78                	addi	a4,sp,412
    1502:	0000                	unimp
    1504:	0021                	c.addi	zero,8
    1506:	6d15                	lui	s10,0x5
    1508:	2000000b          	p.lb	zero,512(zero!) # 200 <_fstatat>
    150c:	075c                	addi	a5,sp,900
    150e:	0000                	unimp
    1510:	140d                	addi	s0,s0,-29
    1512:	0b78                	addi	a4,sp,412
    1514:	0000                	unimp
    1516:	fc20                	fsw	fs0,120(s0)
    1518:	0004                	addi	s1,sp,0
    151a:	0d00                	addi	s0,sp,656
    151c:	6815                	lui	a6,0x5
    151e:	0000                	unimp
    1520:	2000                	fld	fs0,0(s0)
    1522:	000002b3          	add	t0,zero,zero
    1526:	1901                	addi	s2,s2,-32
    1528:	0068                	addi	a0,sp,12
    152a:	0000                	unimp
    152c:	f408                	fsw	fa0,40(s0)
    152e:	0005                	c.addi	zero,1
    1530:	a900                	fsd	fs0,16(a0)
    1532:	2100000b          	p.lb	zero,528(zero!) # 210 <_ftime+0x4>
    1536:	2000                	fld	fs0,0(s0)
    1538:	04bd                	addi	s1,s1,15
    153a:	0000                	unimp
    153c:	f601                	bnez	a2,1444 <memcpy+0x64>
    153e:	0b9e                	slli	s7,s7,0x7
    1540:	0000                	unimp
    1542:	9420                	0x9420
    1544:	0004                	addi	s1,sp,0
    1546:	0100                	addi	s0,sp,128
    1548:	000b9ef7          	0xb9ef7
    154c:	2200                	fld	fs0,0(a2)
    154e:	7262                	flw	ft4,56(sp)
    1550:	f801006b          	0xf801006b
    1554:	05e9                	addi	a1,a1,26
    1556:	0000                	unimp
    1558:	0305                	addi	t1,t1,1
    155a:	0838                	addi	a4,sp,24
    155c:	0020                	addi	s0,sp,8
    155e:	00056123          	p.sw	zero,sp(a0)
    1562:	0c00                	addi	s0,sp,528
    1564:	89b6                	mv	s3,a3
    1566:	0001                	nop
    1568:	d600                	sw	s0,40(a2)
    156a:	0002                	0x2
    156c:	3000                	fld	fs0,32(s0)
    156e:	0000                	unimp
    1570:	0100                	addi	s0,sp,128
    1572:	0a9c                	addi	a5,sp,336
    1574:	000c                	addi	a1,sp,0
    1576:	2400                	fld	fs0,8(s0)
    1578:	05d8                	addi	a4,sp,708
    157a:	0000                	unimp
    157c:	0001                	nop
    157e:	7601                	lui	a2,0xfffe0
    1580:	0000                	unimp
    1582:	6100                	flw	fs0,0(a0)
    1584:	0000                	unimp
    1586:	2500                	fld	fs0,8(a0)
    1588:	0000050b          	p.lb	a0,0(zero!) # 0 <__vector_start>
    158c:	0201                	addi	tp,tp,0
    158e:	e901                	bnez	a0,159e <_realloc_r+0xbe>
    1590:	0005                	c.addi	zero,1
    1592:	8d00                	0x8d00
    1594:	0000                	unimp
    1596:	0000                	unimp
    1598:	00050e23          	sb	zero,28(a0)
    159c:	0100                	addi	s0,sp,128
    159e:	68fa                	flw	fa7,156(sp)
    15a0:	0000                	unimp
    15a2:	ce00                	sw	s0,24(a2)
    15a4:	0002                	0x2
    15a6:	0800                	addi	s0,sp,16
    15a8:	0000                	unimp
    15aa:	0100                	addi	s0,sp,128
    15ac:	339c                	fld	fa5,32(a5)
    15ae:	000c                	addi	a1,sp,0
    15b0:	2600                	fld	fs0,8(a2)
    15b2:	00000747          	fmsub.s	fa4,ft0,ft0,ft0,rne
    15b6:	fa01                	bnez	a2,14c6 <memmove+0x28>
    15b8:	0189                	addi	gp,gp,2
    15ba:	0000                	unimp
    15bc:	00ba                	slli	ra,ra,0xe
    15be:	0000                	unimp
    15c0:	2300                	fld	fs0,0(a4)
    15c2:	0000022f          	0x22f
    15c6:	db0c                	sw	a1,48(a4)
    15c8:	09ea                	slli	s3,s3,0x1a
    15ca:	0000                	unimp
    15cc:	02a4                	addi	s1,sp,328
    15ce:	0000                	unimp
    15d0:	002a                	0x2a
    15d2:	0000                	unimp
    15d4:	9c01                	0x9c01
    15d6:	0c85                	addi	s9,s9,1
    15d8:	0000                	unimp
    15da:	c326                	sw	s1,132(sp)
    15dc:	0001                	nop
    15de:	0100                	addi	s0,sp,128
    15e0:	68e9                	lui	a7,0x1a
    15e2:	0000                	unimp
    15e4:	dc00                	sw	s0,56(s0)
    15e6:	0000                	unimp
    15e8:	2700                	fld	fs0,8(a4)
    15ea:	7470                	flw	fa2,108(s0)
    15ec:	0072                	0x72
    15ee:	e901                	bnez	a0,15fe <_realloc_r+0x11e>
    15f0:	0c85                	addi	s9,s9,1
    15f2:	0000                	unimp
    15f4:	0116                	slli	sp,sp,0x5
    15f6:	0000                	unimp
    15f8:	6c28                	flw	fa0,88(s0)
    15fa:	6e65                	lui	t3,0x19
    15fc:	0100                	addi	s0,sp,128
    15fe:	81e9                	srli	a1,a1,0x1a
    1600:	0000                	unimp
    1602:	0100                	addi	s0,sp,128
    1604:	295c                	fld	fa5,144(a0)
    1606:	079e                	slli	a5,a5,0x7
    1608:	0000                	unimp
    160a:	f001                	bnez	s0,150a <_realloc_r+0x2a>
    160c:	0c85                	addi	s9,s9,1
    160e:	0000                	unimp
    1610:	5f01                	li	t5,-32
    1612:	0f00                	addi	s0,sp,912
    1614:	8b04                	0x8b04
    1616:	000c                	addi	a1,sp,0
    1618:	2a00                	fld	fs0,16(a2)
    161a:	00079823          	sh	zero,16(a5)
    161e:	0100                	addi	s0,sp,128
    1620:	000068e3          	bltu	zero,zero,1e30 <_fstat_r+0x8>
    1624:	9a00                	0x9a00
    1626:	0002                	0x2
    1628:	0a00                	addi	s0,sp,272
    162a:	0000                	unimp
    162c:	0100                	addi	s0,sp,128
    162e:	b59c                	fsd	fa5,40(a1)
    1630:	000c                	addi	a1,sp,0
    1632:	2600                	fld	fs0,8(a2)
    1634:	076e                	slli	a4,a4,0x1b
    1636:	0000                	unimp
    1638:	e301                	bnez	a4,1638 <_realloc_r+0x158>
    163a:	0cb5                	addi	s9,s9,13
    163c:	0000                	unimp
    163e:	0134                	addi	a3,sp,136
    1640:	0000                	unimp
    1642:	0f00                	addi	s0,sp,912
    1644:	6804                	flw	fs1,16(s0)
    1646:	0000                	unimp
    1648:	2b00                	fld	fs0,16(a4)
    164a:	049f 0000 dd01      	0xdd010000049f
    1650:	0068                	addi	a0,sp,12
    1652:	0000                	unimp
    1654:	00000ceb          	0xceb
    1658:	cb2c                	sw	a1,80(a4)
    165a:	0005                	c.addi	zero,1
    165c:	0100                	addi	s0,sp,128
    165e:	24dd                	jal	1944 <__sseek+0x28>
    1660:	0006                	0x6
    1662:	1d00                	addi	s0,sp,688
    1664:	0729                	addi	a4,a4,10
    1666:	0000                	unimp
    1668:	d515                	beqz	a0,1594 <_realloc_r+0xb4>
    166a:	000c                	addi	a1,sp,0
    166c:	2c00                	fld	fs0,24(s0)
    166e:	04d6                	slli	s1,s1,0x15
    1670:	0000                	unimp
    1672:	dd01                	beqz	a0,158a <_realloc_r+0xaa>
    1674:	00000ceb          	0xceb
    1678:	0f00                	addi	s0,sp,912
    167a:	da04                	sw	s1,48(a2)
    167c:	000c                	addi	a1,sp,0
    167e:	2300                	fld	fs0,0(a4)
    1680:	0522                	slli	a0,a0,0x8
    1682:	0000                	unimp
    1684:	d701                	beqz	a4,158c <_realloc_r+0xac>
    1686:	0068                	addi	a0,sp,12
    1688:	0000                	unimp
    168a:	0284                	addi	s1,sp,320
    168c:	0000                	unimp
    168e:	000a                	0xa
    1690:	0000                	unimp
    1692:	9c01                	0x9c01
    1694:	0d1a                	slli	s10,s10,0x6
    1696:	0000                	unimp
    1698:	5726                	lw	a4,104(sp)
    169a:	0006                	0x6
    169c:	0100                	addi	s0,sp,128
    169e:	000624d7          	pv.add.h.div2	s1,a2,zero
    16a2:	5500                	lw	s0,40(a0)
    16a4:	0001                	nop
    16a6:	0000                	unimp
    16a8:	0004d523          	p.sh	zero,a0(s1)
    16ac:	0100                	addi	s0,sp,128
    16ae:	a8d2                	fsd	fs4,80(sp)
    16b0:	0009                	c.addi	zero,2
    16b2:	8000                	0x8000
    16b4:	0002                	0x2
    16b6:	0400                	addi	s0,sp,512
    16b8:	0000                	unimp
    16ba:	0100                	addi	s0,sp,128
    16bc:	489c                	lw	a5,16(s1)
    16be:	000d                	c.addi	zero,3
    16c0:	2d00                	fld	fs0,24(a0)
    16c2:	6d74                	flw	fa3,92(a0)
    16c4:	62270073          	0x62270073
    16c8:	6675                	lui	a2,0x1d
    16ca:	0100                	addi	s0,sp,128
    16cc:	48d2                	lw	a7,20(sp)
    16ce:	000d                	c.addi	zero,3
    16d0:	7600                	flw	fs0,40(a2)
    16d2:	0001                	nop
    16d4:	0000                	unimp
    16d6:	0d33040f          	0xd33040f
    16da:	0000                	unimp
    16dc:	0006bf23          	0x6bf23
    16e0:	0100                	addi	s0,sp,128
    16e2:	41cc                	lw	a1,4(a1)
    16e4:	0000                	unimp
    16e6:	7c00                	flw	fs0,56(s0)
    16e8:	0002                	0x2
    16ea:	0400                	addi	s0,sp,512
    16ec:	0000                	unimp
    16ee:	0100                	addi	s0,sp,128
    16f0:	779c                	flw	fa5,40(a5)
    16f2:	000d                	c.addi	zero,3
    16f4:	2600                	fld	fs0,8(a2)
    16f6:	00000657          	pv.add.h	a2,zero,zero
    16fa:	cc01                	beqz	s0,1712 <_realloc_r+0x232>
    16fc:	0068                	addi	a0,sp,12
    16fe:	0000                	unimp
    1700:	00000197          	auipc	gp,0x0
    1704:	2300                	fld	fs0,0(a4)
    1706:	06aa                	slli	a3,a3,0xa
    1708:	0000                	unimp
    170a:	c401                	beqz	s0,1712 <_realloc_r+0x232>
    170c:	0068                	addi	a0,sp,12
    170e:	0000                	unimp
    1710:	0274                	addi	a3,sp,268
    1712:	0000                	unimp
    1714:	0008                	addi	a0,sp,0
    1716:	0000                	unimp
    1718:	9c01                	0x9c01
    171a:	0dac                	addi	a1,sp,728
    171c:	0000                	unimp
    171e:	c326                	sw	s1,132(sp)
    1720:	0001                	nop
    1722:	0100                	addi	s0,sp,128
    1724:	24c4                	fld	fs1,136(s1)
    1726:	0006                	0x6
    1728:	b800                	fsd	fs0,48(s0)
    172a:	0001                	nop
    172c:	2800                	fld	fs0,16(s0)
    172e:	01007473          	csrrci	s0,0x10,0
    1732:	acc4                	fsd	fs1,152(s1)
    1734:	000d                	c.addi	zero,3
    1736:	0100                	addi	s0,sp,128
    1738:	040f005b          	p.mac	zero,t5,zero,sp
    173c:	0a3c                	addi	a5,sp,280
    173e:	0000                	unimp
    1740:	00019723          	sh	zero,14(gp) # 170e <_realloc_r+0x22e>
    1744:	0c00                	addi	s0,sp,528
    1746:	eaad                	bnez	a3,17b8 <_realloc_r+0x2d8>
    1748:	0009                	c.addi	zero,2
    174a:	7000                	flw	fs0,32(s0)
    174c:	0002                	0x2
    174e:	0400                	addi	s0,sp,512
    1750:	0000                	unimp
    1752:	0100                	addi	s0,sp,128
    1754:	f59c                	fsw	fa5,40(a1)
    1756:	000d                	c.addi	zero,3
    1758:	2600                	fld	fs0,8(a2)
    175a:	000001c3          	fmadd.s	ft3,ft0,ft0,ft0,rne
    175e:	bf01                	j	166e <_realloc_r+0x18e>
    1760:	0068                	addi	a0,sp,12
    1762:	0000                	unimp
    1764:	01d9                	addi	gp,gp,22
    1766:	0000                	unimp
    1768:	7028                	flw	fa0,96(s0)
    176a:	7274                	flw	fa3,100(a2)
    176c:	0100                	addi	s0,sp,128
    176e:	000189bf 285b0100 	0x285b0100000189bf
    1776:	656c                	flw	fa1,76(a0)
    1778:	006e                	0x6e
    177a:	bf01                	j	168a <_realloc_r+0x1aa>
    177c:	0081                	addi	ra,ra,0
    177e:	0000                	unimp
    1780:	5c01                	li	s8,-32
    1782:	2b00                	fld	fs0,16(a4)
    1784:	0000073f 0068b901 	0x68b9010000073f
    178c:	0000                	unimp
    178e:	0e31                	addi	t3,t3,12
    1790:	0000                	unimp
    1792:	b02c                	fsd	fa1,96(s0)
    1794:	0006                	0x6
    1796:	0100                	addi	s0,sp,128
    1798:	68b9                	lui	a7,0xe
    179a:	0000                	unimp
    179c:	2c00                	fld	fs0,24(s0)
    179e:	00000657          	pv.add.h	a2,zero,zero
    17a2:	b901                	j	13b2 <_malloc_r+0x478>
    17a4:	0624                	addi	s1,sp,776
    17a6:	0000                	unimp
    17a8:	172c                	addi	a1,sp,936
    17aa:	0001                	nop
    17ac:	0100                	addi	s0,sp,128
    17ae:	68b9                	lui	a7,0xe
    17b0:	0000                	unimp
    17b2:	2c00                	fld	fs0,24(s0)
    17b4:	05ac                	addi	a1,sp,712
    17b6:	0000                	unimp
    17b8:	b901                	j	13c8 <memchr+0x2>
    17ba:	0068                	addi	a0,sp,12
    17bc:	0000                	unimp
    17be:	2300                	fld	fs0,0(a4)
    17c0:	04a6                	slli	s1,s1,0x9
    17c2:	0000                	unimp
    17c4:	b401                	j	11c4 <_malloc_r+0x28a>
    17c6:	0068                	addi	a0,sp,12
    17c8:	0000                	unimp
    17ca:	0260                	addi	s0,sp,268
    17cc:	0000                	unimp
    17ce:	0004                	addi	s1,sp,0
    17d0:	0000                	unimp
    17d2:	9c01                	0x9c01
    17d4:	0e74                	addi	a3,sp,796
    17d6:	0000                	unimp
    17d8:	5726                	lw	a4,104(sp)
    17da:	0006                	0x6
    17dc:	0100                	addi	s0,sp,128
    17de:	24b4                	fld	fa3,72(s1)
    17e0:	0006                	0x6
    17e2:	fa00                	fsw	fs0,48(a2)
    17e4:	0001                	nop
    17e6:	2e00                	fld	fs0,24(a2)
    17e8:	00000117          	auipc	sp,0x0
    17ec:	b401                	j	11ec <_malloc_r+0x2b2>
    17ee:	0068                	addi	a0,sp,12
    17f0:	0000                	unimp
    17f2:	5b01                	li	s6,-32
    17f4:	ac2e                	fsd	fa1,24(sp)
    17f6:	0005                	c.addi	zero,1
    17f8:	0100                	addi	s0,sp,128
    17fa:	68b4                	flw	fa3,80(s1)
    17fc:	0000                	unimp
    17fe:	0100                	addi	s0,sp,128
    1800:	005c                	addi	a5,sp,4
    1802:	00051b2b          	p.sh	zero,22(a0!)
    1806:	0100                	addi	s0,sp,128
    1808:	68ae                	flw	fa7,200(sp)
    180a:	0000                	unimp
    180c:	9900                	0x9900
    180e:	000e                	0xe
    1810:	2c00                	fld	fs0,24(s0)
    1812:	000001c3          	fmadd.s	ft3,ft0,ft0,ft0,rne
    1816:	ae01                	j	1b26 <__sflush_r+0x6>
    1818:	0624                	addi	s1,sp,776
    181a:	0000                	unimp
    181c:	0074732f          	0x74732f
    1820:	ae01                	j	1b30 <__sflush_r+0x10>
    1822:	0dac                	addi	a1,sp,728
    1824:	0000                	unimp
    1826:	2300                	fld	fs0,0(a4)
    1828:	069d                	addi	a3,a3,7
    182a:	0000                	unimp
    182c:	990c                	0x990c
    182e:	09be                	slli	s3,s3,0xf
    1830:	0000                	unimp
    1832:	0250                	addi	a2,sp,260
    1834:	0000                	unimp
    1836:	0004                	addi	s1,sp,0
    1838:	0000                	unimp
    183a:	9c01                	0x9c01
    183c:	0edc                	addi	a5,sp,852
    183e:	0000                	unimp
    1840:	c326                	sw	s1,132(sp)
    1842:	0001                	nop
    1844:	0100                	addi	s0,sp,128
    1846:	68a9                	lui	a7,0xa
    1848:	0000                	unimp
    184a:	1b00                	addi	s0,sp,432
    184c:	0002                	0x2
    184e:	2800                	fld	fs0,16(s0)
    1850:	7470                	flw	fa2,108(s0)
    1852:	0072                	0x72
    1854:	a901                	j	1c64 <__sflush_r+0x144>
    1856:	09be                	slli	s3,s3,0xf
    1858:	0000                	unimp
    185a:	5b01                	li	s6,-32
    185c:	6428                	flw	fa0,72(s0)
    185e:	7269                	lui	tp,0xffffa
    1860:	0100                	addi	s0,sp,128
    1862:	68a9                	lui	a7,0xa
    1864:	0000                	unimp
    1866:	0100                	addi	s0,sp,128
    1868:	005c                	addi	a5,sp,4
    186a:	0005dd23          	p.sh	zero,s10(a1)
    186e:	0100                	addi	s0,sp,128
    1870:	000068a3          	p.sw	zero,a7(zero)
    1874:	4600                	lw	s0,8(a2)
    1876:	0002                	0x2
    1878:	0a00                	addi	s0,sp,272
    187a:	0000                	unimp
    187c:	0100                	addi	s0,sp,128
    187e:	129c                	addi	a5,sp,352
    1880:	2600000f          	0x2600000f
    1884:	00000653          	fadd.s	fa2,ft0,ft0,rne
    1888:	a301                	j	1d88 <__smakebuf_r+0x2e>
    188a:	0624                	addi	s1,sp,776
    188c:	0000                	unimp
    188e:	023c                	addi	a5,sp,264
    1890:	0000                	unimp
    1892:	b92e                	fsd	fa1,176(sp)
    1894:	0005                	c.addi	zero,1
    1896:	0100                	addi	s0,sp,128
    1898:	000624a3          	sw	zero,9(a2) # 1d009 <__TEST_RODATA_END+0x1b095>
    189c:	0100                	addi	s0,sp,128
    189e:	ec23005b          	p.mulhhsn	zero,t1,sp,22
    18a2:	0005                	c.addi	zero,1
    18a4:	0100                	addi	s0,sp,128
    18a6:	689d                	lui	a7,0x7
    18a8:	0000                	unimp
    18aa:	3c00                	fld	fs0,56(s0)
    18ac:	0002                	0x2
    18ae:	0a00                	addi	s0,sp,272
    18b0:	0000                	unimp
    18b2:	0100                	addi	s0,sp,128
    18b4:	489c                	lw	a5,16(s1)
    18b6:	2700000f          	0x2700000f
    18ba:	6970                	flw	fa2,84(a0)
    18bc:	0064                	addi	s1,sp,12
    18be:	9d01                	0x9d01
    18c0:	0068                	addi	a0,sp,12
    18c2:	0000                	unimp
    18c4:	025d                	addi	tp,tp,23
    18c6:	0000                	unimp
    18c8:	7328                	flw	fa0,96(a4)
    18ca:	6769                	lui	a4,0x1a
    18cc:	0100                	addi	s0,sp,128
    18ce:	689d                	lui	a7,0x7
    18d0:	0000                	unimp
    18d2:	0100                	addi	s0,sp,128
    18d4:	a323005b          	p.mulsn	zero,t1,s2,17
    18d8:	0006                	0x6
    18da:	0c00                	addi	s0,sp,528
    18dc:	688c                	flw	fa1,16(s1)
    18de:	0000                	unimp
    18e0:	3400                	fld	fs0,40(s0)
    18e2:	0002                	0x2
    18e4:	0800                	addi	s0,sp,16
    18e6:	0000                	unimp
    18e8:	0100                	addi	s0,sp,128
    18ea:	719c                	flw	fa5,32(a1)
    18ec:	2600000f          	0x2600000f
    18f0:	000001c3          	fmadd.s	ft3,ft0,ft0,ft0,rne
    18f4:	9801                	andi	s0,s0,-32
    18f6:	0068                	addi	a0,sp,12
    18f8:	0000                	unimp
    18fa:	027e                	slli	tp,tp,0x1f
    18fc:	0000                	unimp
    18fe:	2300                	fld	fs0,0(a4)
    1900:	04e4                	addi	s1,sp,588
    1902:	0000                	unimp
    1904:	9201                	srli	a2,a2,0x20
    1906:	0068                	addi	a0,sp,12
    1908:	0000                	unimp
    190a:	0228                	addi	a0,sp,264
    190c:	0000                	unimp
    190e:	000c                	addi	a1,sp,0
    1910:	0000                	unimp
    1912:	9c01                	0x9c01
    1914:	0fa6                	slli	t6,t6,0x9
    1916:	0000                	unimp
    1918:	00707427          	0x707427
    191c:	9201                	srli	a2,a2,0x20
    191e:	0fa6                	slli	t6,t6,0x9
    1920:	0000                	unimp
    1922:	02ac                	addi	a1,sp,328
    1924:	0000                	unimp
    1926:	7428                	flw	fa0,104(s0)
    1928:	707a                	flw	ft0,188(sp)
    192a:	0100                	addi	s0,sp,128
    192c:	8992                	mv	s3,tp
    192e:	0001                	nop
    1930:	0100                	addi	s0,sp,128
    1932:	040f005b          	p.mac	zero,t5,zero,sp
    1936:	00000943          	fmadd.s	fs2,ft0,ft0,ft0,rne
    193a:	7430                	flw	fa2,104(s0)
    193c:	0005                	c.addi	zero,1
    193e:	0100                	addi	s0,sp,128
    1940:	688d                	lui	a7,0x3
    1942:	0000                	unimp
    1944:	2400                	fld	fs0,8(s0)
    1946:	0002                	0x2
    1948:	0400                	addi	s0,sp,512
    194a:	0000                	unimp
    194c:	0100                	addi	s0,sp,128
    194e:	239c                	fld	fa5,0(a5)
    1950:	06ce                	slli	a3,a3,0x13
    1952:	0000                	unimp
    1954:	8701                	srai	a4,a4,0x0
    1956:	05e9                	addi	a1,a1,26
    1958:	0000                	unimp
    195a:	0218                	addi	a4,sp,256
    195c:	0000                	unimp
    195e:	000c                	addi	a1,sp,0
    1960:	0000                	unimp
    1962:	9c01                	0x9c01
    1964:	00000ff7          	0xff7
    1968:	66756227          	0x66756227
    196c:	0100                	addi	s0,sp,128
    196e:	0005e987          	0x5e987
    1972:	cd00                	sw	s0,24(a0)
    1974:	0002                	0x2
    1976:	2e00                	fld	fs0,24(a2)
    1978:	0000074f          	fnmadd.s	fa4,ft0,ft0,ft0,rne
    197c:	8701                	srai	a4,a4,0x0
    197e:	0081                	addi	ra,ra,0
    1980:	0000                	unimp
    1982:	5b01                	li	s6,-32
    1984:	2b00                	fld	fs0,16(a4)
    1986:	0000052f          	0x52f
    198a:	8101                	srli	a0,a0,0x0
    198c:	0068                	addi	a0,sp,12
    198e:	0000                	unimp
    1990:	1016                	0x1016
    1992:	0000                	unimp
    1994:	801d                	srli	s0,s0,0x7
    1996:	2f000007          	0x2f000007
    199a:	7074                	flw	fa3,100(s0)
    199c:	0100                	addi	s0,sp,128
    199e:	1681                	addi	a3,a3,-32
    19a0:	0010                	addi	a2,sp,0
    19a2:	0000                	unimp
    19a4:	1006040f          	0x1006040f
    19a8:	0000                	unimp
    19aa:	00063323          	0x63323
    19ae:	0100                	addi	s0,sp,128
    19b0:	0000687b          	0x687b
    19b4:	0000                	unimp
    19b6:	0002                	0x2
    19b8:	0c00                	addi	s0,sp,528
    19ba:	0000                	unimp
    19bc:	0100                	addi	s0,sp,128
    19be:	6b9c                	flw	fa5,16(a5)
    19c0:	0010                	addi	a2,sp,0
    19c2:	2600                	fld	fs0,8(a2)
    19c4:	06b0                	addi	a2,sp,840
    19c6:	0000                	unimp
    19c8:	7b01                	lui	s6,0xfffe0
    19ca:	0068                	addi	a0,sp,12
    19cc:	0000                	unimp
    19ce:	02ee                	slli	t0,t0,0x1b
    19d0:	0000                	unimp
    19d2:	c32e                	sw	a1,132(sp)
    19d4:	0001                	nop
    19d6:	0100                	addi	s0,sp,128
    19d8:	0006247b          	lp.count	x8,a2
    19dc:	0100                	addi	s0,sp,128
    19de:	7473285b          	0x7473285b
    19e2:	0100                	addi	s0,sp,128
    19e4:	000dac7b          	lp.count	x24,s11
    19e8:	0100                	addi	s0,sp,128
    19ea:	2e5c                	fld	fa5,152(a2)
    19ec:	00000117          	auipc	sp,0x0
    19f0:	7b01                	lui	s6,0xfffe0
    19f2:	0068                	addi	a0,sp,12
    19f4:	0000                	unimp
    19f6:	5d01                	li	s10,-32
    19f8:	2300                	fld	fs0,0(a4)
    19fa:	053d                	addi	a0,a0,15
    19fc:	0000                	unimp
    19fe:	0068950b          	p.lh	a0,6(a7!) # 3006 <__TEST_RODATA_END+0x1092>
    1a02:	0000                	unimp
    1a04:	01f8                	addi	a4,sp,204
    1a06:	0000                	unimp
    1a08:	0008                	addi	a0,sp,0
    1a0a:	0000                	unimp
    1a0c:	9c01                	0x9c01
    1a0e:	10a0                	addi	s0,sp,104
    1a10:	0000                	unimp
    1a12:	c326                	sw	s1,132(sp)
    1a14:	0001                	nop
    1a16:	0100                	addi	s0,sp,128
    1a18:	00006873          	csrrsi	a6,0x0,0
    1a1c:	0f00                	addi	s0,sp,912
    1a1e:	28000003          	lb	zero,640(zero) # 280 <_times>
    1a22:	01007473          	csrrci	s0,0x10,0
    1a26:	000dac73          	csrrs	s8,0x0,s11
    1a2a:	0100                	addi	s0,sp,128
    1a2c:	8431005b          	p.mulsn	zero,sp,gp,2
    1a30:	0005                	c.addi	zero,1
    1a32:	0100                	addi	s0,sp,128
    1a34:	686d                	lui	a6,0x1b
    1a36:	0000                	unimp
    1a38:	ee00                	fsw	fs0,24(a2)
    1a3a:	0001                	nop
    1a3c:	0a00                	addi	s0,sp,272
    1a3e:	0000                	unimp
    1a40:	0100                	addi	s0,sp,128
    1a42:	329c                	fld	fa5,32(a3)
    1a44:	068c                	addi	a1,sp,832
    1a46:	0000                	unimp
    1a48:	6701                	lui	a4,0x0
    1a4a:	0068                	addi	a0,sp,12
    1a4c:	0000                	unimp
    1a4e:	f201                	bnez	a2,194e <__sseek+0x32>
    1a50:	0010                	addi	a2,sp,0
    1a52:	2c00                	fld	fs0,24(s0)
    1a54:	06b0                	addi	a2,sp,840
    1a56:	0000                	unimp
    1a58:	6701                	lui	a4,0x0
    1a5a:	0068                	addi	a0,sp,12
    1a5c:	0000                	unimp
    1a5e:	c32c                	sw	a1,64(a4)
    1a60:	0001                	nop
    1a62:	0100                	addi	s0,sp,128
    1a64:	00062467          	0x62467
    1a68:	2c00                	fld	fs0,24(s0)
    1a6a:	05ac                	addi	a1,sp,712
    1a6c:	0000                	unimp
    1a6e:	6701                	lui	a4,0x0
    1a70:	0068                	addi	a0,sp,12
    1a72:	0000                	unimp
    1a74:	172c                	addi	a1,sp,936
    1a76:	0001                	nop
    1a78:	0100                	addi	s0,sp,128
    1a7a:	00006867          	0x6867
    1a7e:	0000                	unimp
    1a80:	0006c833          	xor	a6,a3,zero
    1a84:	0c00                	addi	s0,sp,528
    1a86:	d612                	sw	tp,44(sp)
    1a88:	0001                	nop
    1a8a:	0c00                	addi	s0,sp,528
    1a8c:	0000                	unimp
    1a8e:	0100                	addi	s0,sp,128
    1a90:	159c                	addi	a5,sp,736
    1a92:	0011                	c.addi	zero,4
    1a94:	2e00                	fld	fs0,24(a2)
    1a96:	0769                	addi	a4,a4,26
    1a98:	0000                	unimp
    1a9a:	6101                	addi	sp,sp,0
    1a9c:	0068                	addi	a0,sp,12
    1a9e:	0000                	unimp
    1aa0:	5a01                	li	s4,-32
    1aa2:	2300                	fld	fs0,0(a4)
    1aa4:	04dc                	addi	a5,sp,580
    1aa6:	0000                	unimp
    1aa8:	5b01                	li	s6,-32
    1aaa:	0068                	addi	a0,sp,12
    1aac:	0000                	unimp
    1aae:	01cc                	addi	a1,sp,196
    1ab0:	0000                	unimp
    1ab2:	000a                	0xa
    1ab4:	0000                	unimp
    1ab6:	9c01                	0x9c01
    1ab8:	1158                	addi	a4,sp,164
    1aba:	0000                	unimp
    1abc:	5726                	lw	a4,104(sp)
    1abe:	0006                	0x6
    1ac0:	0100                	addi	s0,sp,128
    1ac2:	0006245b          	p.addn	s0,a2,zero,0
    1ac6:	3000                	fld	fs0,32(s0)
    1ac8:	2e000003          	lb	zero,736(zero) # 2e0 <sbrk+0xa>
    1acc:	03f5                	addi	t2,t2,29
    1ace:	0000                	unimp
    1ad0:	5b01                	li	s6,-32
    1ad2:	1158                	addi	a4,sp,164
    1ad4:	0000                	unimp
    1ad6:	5b01                	li	s6,-32
    1ad8:	6528                	flw	fa0,72(a0)
    1ada:	766e                	flw	fa2,248(sp)
    1adc:	0100                	addi	s0,sp,128
    1ade:	0011585b          	p.mac.zl.zh	a6,sp,ra,zero
    1ae2:	0100                	addi	s0,sp,128
    1ae4:	005c                	addi	a5,sp,4
    1ae6:	05ef040f          	0x5ef040f
    1aea:	0000                	unimp
    1aec:	00046723          	p.sw	zero,a4(s0)
    1af0:	0c00                	addi	s0,sp,528
    1af2:	681e                	flw	fa6,196(sp)
    1af4:	0000                	unimp
    1af6:	c800                	sw	s0,16(s0)
    1af8:	0001                	nop
    1afa:	0400                	addi	s0,sp,512
    1afc:	0000                	unimp
    1afe:	0100                	addi	s0,sp,128
    1b00:	879c                	0x879c
    1b02:	0011                	c.addi	zero,4
    1b04:	2600                	fld	fs0,8(a2)
    1b06:	000001c3          	fmadd.s	ft3,ft0,ft0,ft0,rne
    1b0a:	5601                	li	a2,-32
    1b0c:	0068                	addi	a0,sp,12
    1b0e:	0000                	unimp
    1b10:	0351                	addi	t1,t1,20
    1b12:	0000                	unimp
    1b14:	2300                	fld	fs0,0(a4)
    1b16:	05fc                	addi	a5,sp,716
    1b18:	0000                	unimp
    1b1a:	5001                	0x5001
    1b1c:	0068                	addi	a0,sp,12
    1b1e:	0000                	unimp
    1b20:	01bc                	addi	a5,sp,200
    1b22:	0000                	unimp
    1b24:	000c                	addi	a1,sp,0
    1b26:	0000                	unimp
    1b28:	9c01                	0x9c01
    1b2a:	11ca                	slli	gp,gp,0x32
    1b2c:	0000                	unimp
    1b2e:	cb26                	sw	s1,148(sp)
    1b30:	0005                	c.addi	zero,1
    1b32:	0100                	addi	s0,sp,128
    1b34:	2450                	fld	fa2,136(s0)
    1b36:	0006                	0x6
    1b38:	7200                	flw	fs0,32(a2)
    1b3a:	2e000003          	lb	zero,736(zero) # 2e0 <sbrk+0xa>
    1b3e:	0566                	slli	a0,a0,0x19
    1b40:	0000                	unimp
    1b42:	5001                	0x5001
    1b44:	09d4                	addi	a3,sp,212
    1b46:	0000                	unimp
    1b48:	5b01                	li	s6,-32
    1b4a:	972e                	add	a4,a4,a1
    1b4c:	0006                	0x6
    1b4e:	0100                	addi	s0,sp,128
    1b50:	df50                	sw	a2,60(a4)
    1b52:	0009                	c.addi	zero,2
    1b54:	0100                	addi	s0,sp,128
    1b56:	005c                	addi	a5,sp,4
    1b58:	00070923          	sb	zero,18(a4) # 12 <__vector_start+0x12>
    1b5c:	0100                	addi	s0,sp,128
    1b5e:	684a                	flw	fa6,144(sp)
    1b60:	0000                	unimp
    1b62:	b000                	fsd	fs0,32(s0)
    1b64:	0001                	nop
    1b66:	0c00                	addi	s0,sp,528
    1b68:	0000                	unimp
    1b6a:	0100                	addi	s0,sp,128
    1b6c:	009c                	addi	a5,sp,64
    1b6e:	0012                	0x12
    1b70:	2600                	fld	fs0,8(a2)
    1b72:	000005cb          	fnmsub.s	fa1,ft0,ft0,ft0,rne
    1b76:	4a01                	li	s4,0
    1b78:	0624                	addi	s1,sp,776
    1b7a:	0000                	unimp
    1b7c:	00000393          	li	t2,0
    1b80:	ac2e                	fsd	fa1,24(sp)
    1b82:	0005                	c.addi	zero,1
    1b84:	0100                	addi	s0,sp,128
    1b86:	f54a                	fsw	fs2,168(sp)
    1b88:	0009                	c.addi	zero,2
    1b8a:	0100                	addi	s0,sp,128
    1b8c:	1732005b          	p.mac	zero,tp,s3,a1
    1b90:	01000007          	0x1000007
    1b94:	6844                	flw	fs1,20(s0)
    1b96:	0000                	unimp
    1b98:	0100                	addi	s0,sp,128
    1b9a:	121c                	addi	a5,sp,288
    1b9c:	0000                	unimp
    1b9e:	cb2c                	sw	a1,80(a4)
    1ba0:	0005                	c.addi	zero,1
    1ba2:	0100                	addi	s0,sp,128
    1ba4:	2444                	fld	fs1,136(s0)
    1ba6:	0006                	0x6
    1ba8:	0000                	unimp
    1baa:	00064b23          	p.sb	zero,s6(a2)
    1bae:	0100                	addi	s0,sp,128
    1bb0:	683e                	flw	fa6,204(sp)
    1bb2:	0000                	unimp
    1bb4:	9800                	0x9800
    1bb6:	0001                	nop
    1bb8:	0c00                	addi	s0,sp,528
    1bba:	0000                	unimp
    1bbc:	0100                	addi	s0,sp,128
    1bbe:	529c                	lw	a5,32(a3)
    1bc0:	0012                	0x12
    1bc2:	2600                	fld	fs0,8(a2)
    1bc4:	000001c3          	fmadd.s	ft3,ft0,ft0,ft0,rne
    1bc8:	3e01                	jal	16d8 <_realloc_r+0x1f8>
    1bca:	0624                	addi	s1,sp,776
    1bcc:	0000                	unimp
    1bce:	03b4                	addi	a3,sp,456
    1bd0:	0000                	unimp
    1bd2:	ac2e                	fsd	fa1,24(sp)
    1bd4:	0005                	c.addi	zero,1
    1bd6:	0100                	addi	s0,sp,128
    1bd8:	683e                	flw	fa6,204(sp)
    1bda:	0000                	unimp
    1bdc:	0100                	addi	s0,sp,128
    1bde:	8632005b          	p.mulsn	zero,tp,gp,3
    1be2:	01000007          	0x1000007
    1be6:	6838                	flw	fa4,80(s0)
    1be8:	0000                	unimp
    1bea:	0100                	addi	s0,sp,128
    1bec:	1279                	addi	tp,tp,-2
    1bee:	0000                	unimp
    1bf0:	062c                	addi	a1,sp,776
    1bf2:	0005                	c.addi	zero,1
    1bf4:	0100                	addi	s0,sp,128
    1bf6:	7938                	flw	fa4,112(a0)
    1bf8:	0012                	0x12
    1bfa:	2c00                	fld	fs0,24(s0)
    1bfc:	052a                	slli	a0,a0,0xa
    1bfe:	0000                	unimp
    1c00:	3801                	jal	1410 <memcpy+0x30>
    1c02:	127f                	0x127f
    1c04:	0000                	unimp
    1c06:	0f00                	addi	s0,sp,912
    1c08:	8d04                	0x8d04
    1c0a:	0009                	c.addi	zero,2
    1c0c:	0f00                	addi	s0,sp,912
    1c0e:	6804                	flw	fs1,16(s0)
    1c10:	0009                	c.addi	zero,2
    1c12:	3400                	fld	fs0,40(s0)
    1c14:	06e2                	slli	a3,a3,0x18
    1c16:	0000                	unimp
    1c18:	3101                	jal	1818 <_realloc_r+0x338>
    1c1a:	0172                	slli	sp,sp,0x1c
    1c1c:	0000                	unimp
    1c1e:	001a                	0x1a
    1c20:	0000                	unimp
    1c22:	9c01                	0x9c01
    1c24:	12a8                	addi	a0,sp,360
    1c26:	0000                	unimp
    1c28:	7035                	0x7035
    1c2a:	0100                	addi	s0,sp,128
    1c2c:	00062433          	sltz	s0,a2
    1c30:	d500                	sw	s0,40(a0)
    1c32:	00000003          	lb	zero,0(zero) # 0 <__vector_start>
    1c36:	5236                	lw	tp,108(sp)
    1c38:	0012                	0x12
    1c3a:	8c00                	0x8c00
    1c3c:	0001                	nop
    1c3e:	0c00                	addi	s0,sp,528
    1c40:	0000                	unimp
    1c42:	0100                	addi	s0,sp,128
    1c44:	cc9c                	sw	a5,24(s1)
    1c46:	0012                	0x12
    1c48:	3700                	fld	fs0,40(a4)
    1c4a:	1262                	slli	tp,tp,0x38
    1c4c:	0000                	unimp
    1c4e:	03f8                	addi	a4,sp,460
    1c50:	0000                	unimp
    1c52:	6d38                	flw	fa4,88(a0)
    1c54:	0012                	0x12
    1c56:	0100                	addi	s0,sp,128
    1c58:	0036005b          	p.mac	zero,a2,gp,zero
    1c5c:	0012                	0x12
    1c5e:	a400                	fsd	fs0,8(s0)
    1c60:	0001                	nop
    1c62:	0c00                	addi	s0,sp,528
    1c64:	0000                	unimp
    1c66:	0100                	addi	s0,sp,128
    1c68:	e99c                	fsw	fa5,16(a1)
    1c6a:	0012                	0x12
    1c6c:	3700                	fld	fs0,40(a4)
    1c6e:	1210                	addi	a2,sp,288
    1c70:	0000                	unimp
    1c72:	0419                	addi	s0,s0,6
    1c74:	0000                	unimp
    1c76:	3900                	fld	fs0,48(a0)
    1c78:	10b5                	addi	ra,ra,-19
    1c7a:	0000                	unimp
    1c7c:	01e2                	slli	gp,gp,0x18
    1c7e:	0000                	unimp
    1c80:	000c                	addi	a1,sp,0
    1c82:	0000                	unimp
    1c84:	9c01                	0x9c01
    1c86:	0010c537          	lui	a0,0x10c
    1c8a:	3a00                	fld	fs0,48(a2)
    1c8c:	0004                	addi	s1,sp,0
    1c8e:	3800                	fld	fs0,48(s0)
    1c90:	10d0                	addi	a2,sp,100
    1c92:	0000                	unimp
    1c94:	5b01                	li	s6,-32
    1c96:	db38                	sw	a4,112(a4)
    1c98:	0010                	addi	a2,sp,0
    1c9a:	0100                	addi	s0,sp,128
    1c9c:	385c                	fld	fa5,176(s0)
    1c9e:	10e6                	slli	ra,ra,0x39
    1ca0:	0000                	unimp
    1ca2:	5d01                	li	s10,-32
    1ca4:	0000                	unimp
    1ca6:	0050                	addi	a2,sp,4
    1ca8:	0000                	unimp
    1caa:	0002                	0x2
    1cac:	0515                	addi	a0,a0,5
    1cae:	0000                	unimp
    1cb0:	0104                	addi	s1,sp,128
    1cb2:	0695                	addi	a3,a3,5
    1cb4:	0000                	unimp
    1cb6:	0010                	addi	a2,sp,0
    1cb8:	0000                	unimp
    1cba:	6576                	flw	fa0,92(sp)
    1cbc:	726f7463          	bleu	t1,t5,23e4 <__TEST_RODATA_END+0x470>
    1cc0:	00532e73          	csrrs	t3,0x5,t1
    1cc4:	6d6f682f          	0x6d6f682f
    1cc8:	2f65                	jal	2480 <__TEST_RODATA_END+0x50c>
    1cca:	31383273          	csrrc	tp,0x313,a6
    1cce:	3139                	jal	18dc <__swrite+0xe>
    1cd0:	2f36                	fld	ft10,328(sp)
    1cd2:	6972                	flw	fs2,28(sp)
    1cd4:	5f766373          	csrrsi	t1,0x5f7,12
    1cd8:	6574                	flw	fa3,76(a0)
    1cda:	6e697473          	csrrci	s0,0x6e6,18
    1cde:	30325f67          	0x30325f67
    1ce2:	3132                	fld	ft2,296(sp)
    1ce4:	7362732f          	0x7362732f
    1ce8:	0074                	addi	a3,sp,12
    1cea:	20554e47          	fmsub.s	ft8,fa0,ft5,ft4,rmm
    1cee:	5341                	li	t1,-16
    1cf0:	3220                	fld	fs0,96(a2)
    1cf2:	322e                	fld	ft4,232(sp)
    1cf4:	2e38                	fld	fa4,88(a2)
    1cf6:	0030                	addi	a2,sp,8
    1cf8:	8001                	srli	s0,s0,0x0
    1cfa:	0056                	0x56
    1cfc:	0000                	unimp
    1cfe:	0002                	0x2
    1d00:	00000527          	0x527
    1d04:	0104                	addi	s1,sp,128
    1d06:	00000847          	fmsub.s	fa6,ft0,ft0,ft0,rne
    1d0a:	0392                	slli	t2,t2,0x4
    1d0c:	0000                	unimp
    1d0e:	03ac                	addi	a1,sp,456
    1d10:	0000                	unimp
    1d12:	74736273          	csrrsi	tp,0x747,6
    1d16:	625f 6f6f 2e74      	0x2e746f6f625f
    1d1c:	682f0053          	0x682f0053
    1d20:	2f656d6f          	jal	s10,58016 <__TEST_RODATA_END+0x560a2>
    1d24:	31383273          	csrrc	tp,0x313,a6
    1d28:	3139                	jal	1936 <__sseek+0x1a>
    1d2a:	2f36                	fld	ft10,328(sp)
    1d2c:	6972                	flw	fs2,28(sp)
    1d2e:	5f766373          	csrrsi	t1,0x5f7,12
    1d32:	6574                	flw	fa3,76(a0)
    1d34:	6e697473          	csrrci	s0,0x6e6,18
    1d38:	30325f67          	0x30325f67
    1d3c:	3132                	fld	ft2,296(sp)
    1d3e:	7362732f          	0x7362732f
    1d42:	0074                	addi	a3,sp,12
    1d44:	20554e47          	fmsub.s	ft8,fa0,ft5,ft4,rmm
    1d48:	5341                	li	t1,-16
    1d4a:	3220                	fld	fs0,96(a2)
    1d4c:	322e                	fld	ft4,232(sp)
    1d4e:	2e38                	fld	fa4,88(a2)
    1d50:	0030                	addi	a2,sp,8
    1d52:	8001                	srli	s0,s0,0x0

Disassembly of section .debug_abbrev:

00000000 <.debug_abbrev>:
   0:	1101                	addi	sp,sp,-32
   2:	1000                	addi	s0,sp,32
   4:	1106                	slli	sp,sp,0x21
   6:	1201                	addi	tp,tp,-32
   8:	0301                	addi	t1,t1,0
   a:	1b08                	addi	a0,sp,432
   c:	2508                	fld	fa0,8(a0)
   e:	1308                	addi	a0,sp,416
  10:	0005                	c.addi	zero,1
  12:	0000                	unimp
  14:	1101                	addi	sp,sp,-32
  16:	2501                	jal	616 <_reclaim_reent+0x60>
  18:	130e                	slli	t1,t1,0x23
  1a:	1b0e030b          	p.lb	t1,432(t3!) # 191b0 <__TEST_RODATA_END+0x1723c>
  1e:	550e                	lw	a0,224(sp)
  20:	10011117          	auipc	sp,0x10011
  24:	02000017          	auipc	zero,0x2000
  28:	0024                	addi	s1,sp,8
  2a:	0b3e0b0b          	p.lb	s6,179(t3!)
  2e:	00000e03          	lb	t3,0(zero) # 0 <__vector_start>
  32:	0b002403          	lw	s0,176(zero) # b0 <__boot_address+0x30>
  36:	030b3e0b          	0x30b3e0b
  3a:	0008                	addi	a0,sp,0
  3c:	0400                	addi	s0,sp,512
  3e:	0035                	c.addi	zero,13
  40:	1349                	addi	t1,t1,-14
  42:	0000                	unimp
  44:	1605                	addi	a2,a2,-31
  46:	0300                	addi	s0,sp,384
  48:	3a0e                	fld	fs4,224(sp)
  4a:	490b3b0b          	0x490b3b0b
  4e:	06000013          	li	zero,96
  52:	0016                	0x16
  54:	0b3a0e03          	lb	t3,179(s4) # 4016f <__TEST_RODATA_END+0x3e1fb>
  58:	1349053b          	0x1349053b
  5c:	0000                	unimp
  5e:	0b011707          	0xb011707
  62:	3b0b3a0b          	0x3b0b3a0b
  66:	0013010b          	p.lb	sp,1(t1!)
  6a:	0800                	addi	s0,sp,16
  6c:	000d                	c.addi	zero,3
  6e:	0b3a0e03          	lb	t3,179(s4)
  72:	13490b3b          	0x13490b3b
  76:	0000                	unimp
  78:	0109                	addi	sp,sp,2
  7a:	4901                	li	s2,0
  7c:	00130113          	addi	sp,t1,1
  80:	0a00                	addi	s0,sp,272
  82:	0021                	c.addi	zero,8
  84:	1349                	addi	t1,t1,-14
  86:	00000b2f          	0xb2f
  8a:	0b01130b          	p.lh	t1,176(sp!) # 100110d0 <_sp+0xfe10040>
  8e:	3b0b3a0b          	0x3b0b3a0b
  92:	0013010b          	p.lb	sp,1(t1!)
  96:	0c00                	addi	s0,sp,528
  98:	000d                	c.addi	zero,3
  9a:	0b3a0e03          	lb	t3,179(s4)
  9e:	13490b3b          	0x13490b3b
  a2:	0b38                	addi	a4,sp,408
  a4:	0000                	unimp
  a6:	0f0d                	addi	t5,t5,3
  a8:	0b00                	addi	s0,sp,400
  aa:	0e00000b          	p.lb	zero,224(zero!) # e0 <__boot_address+0x60>
  ae:	0e030113          	addi	sp,t1,224
  b2:	0b3a0b0b          	p.lb	s6,179(s4!)
  b6:	13010b3b          	0x13010b3b
  ba:	0000                	unimp
  bc:	03000d0f          	0x3000d0f
  c0:	3a08                	fld	fa0,48(a2)
  c2:	490b3b0b          	0x490b3b0b
  c6:	000b3813          	sltiu	a6,s6,0
  ca:	1000                	addi	s0,sp,32
  cc:	0b0b000f          	0xb0b000f
  d0:	1349                	addi	t1,t1,-14
  d2:	0000                	unimp
  d4:	1311                	addi	t1,t1,-28
  d6:	0301                	addi	t1,t1,0
  d8:	0b0e                	slli	s6,s6,0x3
  da:	3a05                	jal	fffffa0a <pulp__FC+0xfffffa0b>
  dc:	010b3b0b          	0x10b3b0b
  e0:	12000013          	li	zero,288
  e4:	000d                	c.addi	zero,3
  e6:	0b3a0e03          	lb	t3,179(s4)
  ea:	13490b3b          	0x13490b3b
  ee:	0538                	addi	a4,sp,648
  f0:	0000                	unimp
  f2:	27001513          	0x27001513
  f6:	0019                	c.addi	zero,6
  f8:	1400                	addi	s0,sp,544
  fa:	0115                	addi	sp,sp,5
  fc:	13491927          	0x13491927
 100:	1301                	addi	t1,t1,-32
 102:	0000                	unimp
 104:	0515                	addi	a0,a0,5
 106:	4900                	lw	s0,16(a0)
 108:	16000013          	li	zero,352
 10c:	0026                	0x26
 10e:	1349                	addi	t1,t1,-14
 110:	0000                	unimp
 112:	03011317          	auipc	t1,0x3011
 116:	0b0e                	slli	s6,s6,0x3
 118:	3a05                	jal	fffffa48 <pulp__FC+0xfffffa49>
 11a:	01053b0b          	0x1053b0b
 11e:	18000013          	li	zero,384
 122:	000d                	c.addi	zero,3
 124:	0b3a0e03          	lb	t3,179(s4)
 128:	1349053b          	0x1349053b
 12c:	0b38                	addi	a4,sp,408
 12e:	0000                	unimp
 130:	0d19                	addi	s10,s10,6
 132:	0300                	addi	s0,sp,384
 134:	3a0e                	fld	fs4,224(sp)
 136:	49053b0b          	0x49053b0b
 13a:	00053813          	sltiu	a6,a0,0
 13e:	1a00                	addi	s0,sp,304
 140:	0e030113          	addi	sp,t1,224 # 30111f2 <_sp+0x2e10162>
 144:	0b3a0b0b          	p.lb	s6,179(s4!)
 148:	1301053b          	0x1301053b
 14c:	0000                	unimp
 14e:	0b01131b          	0xb01131b
 152:	3b0b3a0b          	0x3b0b3a0b
 156:	0105                	addi	sp,sp,1
 158:	1c000013          	li	zero,448
 15c:	0b0b0117          	auipc	sp,0xb0b0
 160:	0b3a                	slli	s6,s6,0xe
 162:	1301053b          	0x1301053b
 166:	0000                	unimp
 168:	0d1d                	addi	s10,s10,7
 16a:	0300                	addi	s0,sp,384
 16c:	3a0e                	fld	fs4,224(sp)
 16e:	49053b0b          	0x49053b0b
 172:	1e000013          	li	zero,480
 176:	0e030013          	addi	zero,t1,224
 17a:	193c                	addi	a5,sp,184
 17c:	0000                	unimp
 17e:	151f 2701 0119      	0x1192701151f
 184:	20000013          	li	zero,512
 188:	0034                	addi	a3,sp,8
 18a:	0b3a0e03          	lb	t3,179(s4)
 18e:	1349053b          	0x1349053b
 192:	193c193f 34210000 	0x34210000193c193f
 19a:	0300                	addi	s0,sp,384
 19c:	3a0e                	fld	fs4,224(sp)
 19e:	490b3b0b          	0x490b3b0b
 1a2:	3c193f13          	sltiu	t5,s2,961
 1a6:	0019                	c.addi	zero,6
 1a8:	2200                	fld	fs0,0(a2)
 1aa:	012e                	slli	sp,sp,0xb
 1ac:	0e03193f 0b3b0b3a 	0xb3b0b3a0e03193f
 1b4:	13491927          	0x13491927
 1b8:	0111                	addi	sp,sp,4
 1ba:	0612                	slli	a2,a2,0x4
 1bc:	1840                	addi	s0,sp,52
 1be:	01194297          	auipc	t0,0x1194
 1c2:	23000013          	li	zero,560
 1c6:	0005                	c.addi	zero,1
 1c8:	0b3a0e03          	lb	t3,179(s4)
 1cc:	13490b3b          	0x13490b3b
 1d0:	1702                	slli	a4,a4,0x20
 1d2:	0000                	unimp
 1d4:	3424                	fld	fs1,104(s0)
 1d6:	0300                	addi	s0,sp,384
 1d8:	3a08                	fld	fa0,48(a2)
 1da:	490b3b0b          	0x490b3b0b
 1de:	00180213          	addi	tp,a6,1 # 1b001 <__TEST_RODATA_END+0x1908d>
 1e2:	2500                	fld	fs0,8(a0)
 1e4:	0034                	addi	a3,sp,8
 1e6:	0b3a0803          	lb	a6,179(s4)
 1ea:	13490b3b          	0x13490b3b
 1ee:	1702                	slli	a4,a4,0x20
 1f0:	0000                	unimp
 1f2:	0100                	addi	s0,sp,128
 1f4:	0111                	addi	sp,sp,4
 1f6:	0e25                	addi	t3,t3,9
 1f8:	0e030b13          	addi	s6,t1,224
 1fc:	01110e1b          	0x1110e1b
 200:	0612                	slli	a2,a2,0x4
 202:	1710                	addi	a2,sp,928
 204:	0000                	unimp
 206:	2402                	fld	fs0,0(sp)
 208:	0b00                	addi	s0,sp,400
 20a:	030b3e0b          	0x30b3e0b
 20e:	000e                	0xe
 210:	0300                	addi	s0,sp,384
 212:	0016                	0x16
 214:	0b3a0e03          	lb	t3,179(s4)
 218:	13490b3b          	0x13490b3b
 21c:	0000                	unimp
 21e:	2404                	fld	fs1,8(s0)
 220:	0b00                	addi	s0,sp,400
 222:	030b3e0b          	0x30b3e0b
 226:	0008                	addi	a0,sp,0
 228:	0500                	addi	s0,sp,640
 22a:	0016                	0x16
 22c:	0b3a0e03          	lb	t3,179(s4)
 230:	1349053b          	0x1349053b
 234:	0000                	unimp
 236:	1706                	slli	a4,a4,0x21
 238:	0b01                	addi	s6,s6,0
 23a:	3b0b3a0b          	0x3b0b3a0b
 23e:	0013010b          	p.lb	sp,1(t1!)
 242:	0700                	addi	s0,sp,896
 244:	000d                	c.addi	zero,3
 246:	0b3a0e03          	lb	t3,179(s4)
 24a:	13490b3b          	0x13490b3b
 24e:	0000                	unimp
 250:	0108                	addi	a0,sp,128
 252:	4901                	li	s2,0
 254:	00130113          	addi	sp,t1,1
 258:	0900                	addi	s0,sp,144
 25a:	0021                	c.addi	zero,8
 25c:	1349                	addi	t1,t1,-14
 25e:	00000b2f          	0xb2f
 262:	130a                	slli	t1,t1,0x22
 264:	0b01                	addi	s6,s6,0
 266:	3b0b3a0b          	0x3b0b3a0b
 26a:	0013010b          	p.lb	sp,1(t1!)
 26e:	0b00                	addi	s0,sp,400
 270:	000d                	c.addi	zero,3
 272:	0b3a0e03          	lb	t3,179(s4)
 276:	13490b3b          	0x13490b3b
 27a:	0b38                	addi	a4,sp,408
 27c:	0000                	unimp
 27e:	0f0c                	addi	a1,sp,912
 280:	0b00                	addi	s0,sp,400
 282:	0d00000b          	p.lb	zero,208(zero!) # d0 <__boot_address+0x50>
 286:	0e030113          	addi	sp,t1,224
 28a:	0b3a0b0b          	p.lb	s6,179(s4!)
 28e:	13010b3b          	0x13010b3b
 292:	0000                	unimp
 294:	0d0e                	slli	s10,s10,0x3
 296:	0300                	addi	s0,sp,384
 298:	3a08                	fld	fa0,48(a2)
 29a:	490b3b0b          	0x490b3b0b
 29e:	000b3813          	sltiu	a6,s6,0
 2a2:	0f00                	addi	s0,sp,912
 2a4:	0b0b000f          	0xb0b000f
 2a8:	1349                	addi	t1,t1,-14
 2aa:	0000                	unimp
 2ac:	1310                	addi	a2,sp,416
 2ae:	0301                	addi	t1,t1,0
 2b0:	0b0e                	slli	s6,s6,0x3
 2b2:	3a05                	jal	fffffbe2 <pulp__FC+0xfffffbe3>
 2b4:	010b3b0b          	0x10b3b0b
 2b8:	11000013          	li	zero,272
 2bc:	000d                	c.addi	zero,3
 2be:	0b3a0e03          	lb	t3,179(s4)
 2c2:	13490b3b          	0x13490b3b
 2c6:	0538                	addi	a4,sp,648
 2c8:	0000                	unimp
 2ca:	1512                	slli	a0,a0,0x24
 2cc:	2700                	fld	fs0,8(a4)
 2ce:	0019                	c.addi	zero,6
 2d0:	1300                	addi	s0,sp,416
 2d2:	0115                	addi	sp,sp,5
 2d4:	13491927          	0x13491927
 2d8:	1301                	addi	t1,t1,-32
 2da:	0000                	unimp
 2dc:	0514                	addi	a3,sp,640
 2de:	4900                	lw	s0,16(a0)
 2e0:	15000013          	li	zero,336
 2e4:	0026                	0x26
 2e6:	1349                	addi	t1,t1,-14
 2e8:	0000                	unimp
 2ea:	1316                	slli	t1,t1,0x25
 2ec:	0301                	addi	t1,t1,0
 2ee:	0b0e                	slli	s6,s6,0x3
 2f0:	3a05                	jal	fffffc20 <pulp__FC+0xfffffc21>
 2f2:	01053b0b          	0x1053b0b
 2f6:	17000013          	li	zero,368
 2fa:	000d                	c.addi	zero,3
 2fc:	0b3a0e03          	lb	t3,179(s4)
 300:	1349053b          	0x1349053b
 304:	0b38                	addi	a4,sp,408
 306:	0000                	unimp
 308:	0d18                	addi	a4,sp,656
 30a:	0300                	addi	s0,sp,384
 30c:	3a0e                	fld	fs4,224(sp)
 30e:	49053b0b          	0x49053b0b
 312:	00053813          	sltiu	a6,a0,0
 316:	1900                	addi	s0,sp,176
 318:	0e030113          	addi	sp,t1,224
 31c:	0b3a0b0b          	p.lb	s6,179(s4!)
 320:	1301053b          	0x1301053b
 324:	0000                	unimp
 326:	131a                	slli	t1,t1,0x26
 328:	0b01                	addi	s6,s6,0
 32a:	3b0b3a0b          	0x3b0b3a0b
 32e:	0105                	addi	sp,sp,1
 330:	1b000013          	li	zero,432
 334:	0b0b0117          	auipc	sp,0xb0b0
 338:	0b3a                	slli	s6,s6,0xe
 33a:	1301053b          	0x1301053b
 33e:	0000                	unimp
 340:	0d1c                	addi	a5,sp,656
 342:	0300                	addi	s0,sp,384
 344:	3a0e                	fld	fs4,224(sp)
 346:	49053b0b          	0x49053b0b
 34a:	1d000013          	li	zero,464
 34e:	0e030013          	addi	zero,t1,224
 352:	193c                	addi	a5,sp,184
 354:	0000                	unimp
 356:	151e                	slli	a0,a0,0x27
 358:	2701                	jal	a58 <_free_r+0x62>
 35a:	0119                	addi	sp,sp,6
 35c:	1f000013          	li	zero,496
 360:	0034                	addi	a3,sp,8
 362:	0b3a0e03          	lb	t3,179(s4)
 366:	1349053b          	0x1349053b
 36a:	193c193f 34200000 	0x34200000193c193f
 372:	0300                	addi	s0,sp,384
 374:	3a0e                	fld	fs4,224(sp)
 376:	490b3b0b          	0x490b3b0b
 37a:	3c193f13          	sltiu	t5,s2,961
 37e:	0019                	c.addi	zero,6
 380:	2100                	fld	fs0,0(a0)
 382:	0021                	c.addi	zero,8
 384:	0000                	unimp
 386:	3422                	fld	fs0,40(sp)
 388:	0300                	addi	s0,sp,384
 38a:	3a08                	fld	fa0,48(a2)
 38c:	490b3b0b          	0x490b3b0b
 390:	00180213          	addi	tp,a6,1
 394:	2300                	fld	fs0,0(a4)
 396:	012e                	slli	sp,sp,0xb
 398:	0e03193f 0b3b0b3a 	0xb3b0b3a0e03193f
 3a0:	13491927          	0x13491927
 3a4:	0111                	addi	sp,sp,4
 3a6:	0612                	slli	a2,a2,0x4
 3a8:	1840                	addi	s0,sp,52
 3aa:	01194297          	auipc	t0,0x1194
 3ae:	24000013          	li	zero,576
 3b2:	0005                	c.addi	zero,1
 3b4:	0b3a0e03          	lb	t3,179(s4)
 3b8:	1349053b          	0x1349053b
 3bc:	1702                	slli	a4,a4,0x20
 3be:	0000                	unimp
 3c0:	3425                	jal	fffffde8 <pulp__FC+0xfffffde9>
 3c2:	0300                	addi	s0,sp,384
 3c4:	3a0e                	fld	fs4,224(sp)
 3c6:	49053b0b          	0x49053b0b
 3ca:	00170213          	addi	tp,a4,1
 3ce:	2600                	fld	fs0,8(a2)
 3d0:	0005                	c.addi	zero,1
 3d2:	0b3a0e03          	lb	t3,179(s4)
 3d6:	13490b3b          	0x13490b3b
 3da:	1702                	slli	a4,a4,0x20
 3dc:	0000                	unimp
 3de:	03000527          	0x3000527
 3e2:	3a08                	fld	fa0,48(a2)
 3e4:	490b3b0b          	0x490b3b0b
 3e8:	00170213          	addi	tp,a4,1
 3ec:	2800                	fld	fs0,16(s0)
 3ee:	0005                	c.addi	zero,1
 3f0:	0b3a0803          	lb	a6,179(s4)
 3f4:	13490b3b          	0x13490b3b
 3f8:	1802                	slli	a6,a6,0x20
 3fa:	0000                	unimp
 3fc:	3429                	jal	fffffe06 <pulp__FC+0xfffffe07>
 3fe:	0300                	addi	s0,sp,384
 400:	3a0e                	fld	fs4,224(sp)
 402:	490b3b0b          	0x490b3b0b
 406:	00180213          	addi	tp,a6,1
 40a:	2a00                	fld	fs0,16(a2)
 40c:	0026                	0x26
 40e:	0000                	unimp
 410:	3f012e2b          	p.sw	a6,1020(sp!) # b0b0730 <_sp+0xaeaf6a0>
 414:	0319                	addi	t1,t1,6
 416:	3a0e                	fld	fs4,224(sp)
 418:	270b3b0b          	0x270b3b0b
 41c:	4919                	li	s2,6
 41e:	00130113          	addi	sp,t1,1
 422:	2c00                	fld	fs0,24(s0)
 424:	0005                	c.addi	zero,1
 426:	0b3a0e03          	lb	t3,179(s4)
 42a:	13490b3b          	0x13490b3b
 42e:	0000                	unimp
 430:	132d                	addi	t1,t1,-21
 432:	0300                	addi	s0,sp,384
 434:	3c08                	fld	fa0,56(s0)
 436:	0019                	c.addi	zero,6
 438:	2e00                	fld	fs0,24(a2)
 43a:	0005                	c.addi	zero,1
 43c:	0b3a0e03          	lb	t3,179(s4)
 440:	13490b3b          	0x13490b3b
 444:	1802                	slli	a6,a6,0x20
 446:	0000                	unimp
 448:	0300052f          	0x300052f
 44c:	3a08                	fld	fa0,48(a2)
 44e:	490b3b0b          	0x490b3b0b
 452:	30000013          	li	zero,768
 456:	002e                	0x2e
 458:	0e03193f 0b3b0b3a 	0xb3b0b3a0e03193f
 460:	1349                	addi	t1,t1,-14
 462:	0111                	addi	sp,sp,4
 464:	0612                	slli	a2,a2,0x4
 466:	1840                	addi	s0,sp,52
 468:	00194297          	auipc	t0,0x194
 46c:	3100                	fld	fs0,32(a0)
 46e:	002e                	0x2e
 470:	0e03193f 0b3b0b3a 	0xb3b0b3a0e03193f
 478:	13491927          	0x13491927
 47c:	0111                	addi	sp,sp,4
 47e:	0612                	slli	a2,a2,0x4
 480:	1840                	addi	s0,sp,52
 482:	00194297          	auipc	t0,0x194
 486:	3200                	fld	fs0,32(a2)
 488:	012e                	slli	sp,sp,0xb
 48a:	0e03193f 0b3b0b3a 	0xb3b0b3a0e03193f
 492:	13491927          	0x13491927
 496:	0b20                	addi	s0,sp,408
 498:	1301                	addi	t1,t1,-32
 49a:	0000                	unimp
 49c:	3f012e33          	0x3f012e33
 4a0:	0319                	addi	t1,t1,6
 4a2:	3a0e                	fld	fs4,224(sp)
 4a4:	270b3b0b          	0x270b3b0b
 4a8:	8719                	srai	a4,a4,0x6
 4aa:	1901                	addi	s2,s2,-32
 4ac:	0111                	addi	sp,sp,4
 4ae:	0612                	slli	a2,a2,0x4
 4b0:	1840                	addi	s0,sp,52
 4b2:	01194297          	auipc	t0,0x1194
 4b6:	34000013          	li	zero,832
 4ba:	012e                	slli	sp,sp,0xb
 4bc:	0e03193f 0b3b0b3a 	0xb3b0b3a0e03193f
 4c4:	0111                	addi	sp,sp,4
 4c6:	0612                	slli	a2,a2,0x4
 4c8:	1840                	addi	s0,sp,52
 4ca:	01194297          	auipc	t0,0x1194
 4ce:	35000013          	li	zero,848
 4d2:	0034                	addi	a3,sp,8
 4d4:	0b3a0803          	lb	a6,179(s4)
 4d8:	13490b3b          	0x13490b3b
 4dc:	1702                	slli	a4,a4,0x20
 4de:	0000                	unimp
 4e0:	2e36                	fld	ft8,328(sp)
 4e2:	3101                	jal	e2 <__boot_address+0x62>
 4e4:	12011113          	0x12011113
 4e8:	4006                	0x4006
 4ea:	9718                	0x9718
 4ec:	1942                	slli	s2,s2,0x30
 4ee:	1301                	addi	t1,t1,-32
 4f0:	0000                	unimp
 4f2:	31000537          	lui	a0,0x31000
 4f6:	00170213          	addi	tp,a4,1
 4fa:	3800                	fld	fs0,48(s0)
 4fc:	0005                	c.addi	zero,1
 4fe:	1331                	addi	t1,t1,-20
 500:	1802                	slli	a6,a6,0x20
 502:	0000                	unimp
 504:	2e39                	jal	822 <__sfmoreglue+0x3a>
 506:	3101                	jal	106 <__boot_address+0x86>
 508:	12011113          	0x12011113
 50c:	4006                	0x4006
 50e:	9718                	0x9718
 510:	1942                	slli	s2,s2,0x30
 512:	0000                	unimp
 514:	0100                	addi	s0,sp,128
 516:	0011                	c.addi	zero,4
 518:	0610                	addi	a2,sp,768
 51a:	0655                	addi	a2,a2,21
 51c:	081b0803          	lb	a6,129(s6) # fffe0081 <pulp__FC+0xfffe0082>
 520:	0825                	addi	a6,a6,9
 522:	00000513          	li	a0,0
 526:	0100                	addi	s0,sp,128
 528:	0011                	c.addi	zero,4
 52a:	0610                	addi	a2,sp,768
 52c:	0111                	addi	sp,sp,4
 52e:	0112                	slli	sp,sp,0x4
 530:	081b0803          	lb	a6,129(s6)
 534:	0825                	addi	a6,a6,9
 536:	00000513          	li	a0,0
	...

Disassembly of section .debug_line:

00000000 <.debug_line>:
   0:	015f 0000 0002      	0x20000015f
   6:	001d                	c.addi	zero,7
   8:	0000                	unimp
   a:	0101                	addi	sp,sp,0
   c:	000d0efb          	0xd0efb
  10:	0101                	addi	sp,sp,0
  12:	0101                	addi	sp,sp,0
  14:	0000                	unimp
  16:	0100                	addi	s0,sp,128
  18:	0000                	unimp
  1a:	0001                	nop
  1c:	30747263          	bleu	t2,s0,320 <sw_irq_handler+0xa>
  20:	532e                	lw	t1,232(sp)
  22:	0000                	unimp
  24:	0000                	unimp
  26:	0000                	unimp
  28:	0205                	addi	tp,tp,1
  2a:	0080                	addi	s0,sp,64
  2c:	0000                	unimp
  2e:	03011203          	lh	tp,48(sp)
  32:	0901                	addi	s2,s2,0
  34:	0002                	0x2
  36:	0301                	addi	t1,t1,0
  38:	0901                	addi	s2,s2,0
  3a:	0002                	0x2
  3c:	0301                	addi	t1,t1,0
  3e:	0901                	addi	s2,s2,0
  40:	0002                	0x2
  42:	0301                	addi	t1,t1,0
  44:	0901                	addi	s2,s2,0
  46:	0002                	0x2
  48:	0301                	addi	t1,t1,0
  4a:	0901                	addi	s2,s2,0
  4c:	0002                	0x2
  4e:	0301                	addi	t1,t1,0
  50:	0901                	addi	s2,s2,0
  52:	0002                	0x2
  54:	0301                	addi	t1,t1,0
  56:	0901                	addi	s2,s2,0
  58:	0002                	0x2
  5a:	0301                	addi	t1,t1,0
  5c:	0901                	addi	s2,s2,0
  5e:	0002                	0x2
  60:	0301                	addi	t1,t1,0
  62:	0901                	addi	s2,s2,0
  64:	0002                	0x2
  66:	0301                	addi	t1,t1,0
  68:	0901                	addi	s2,s2,0
  6a:	0002                	0x2
  6c:	0301                	addi	t1,t1,0
  6e:	0901                	addi	s2,s2,0
  70:	0002                	0x2
  72:	0301                	addi	t1,t1,0
  74:	0901                	addi	s2,s2,0
  76:	0002                	0x2
  78:	0301                	addi	t1,t1,0
  7a:	0901                	addi	s2,s2,0
  7c:	0002                	0x2
  7e:	0301                	addi	t1,t1,0
  80:	0901                	addi	s2,s2,0
  82:	0002                	0x2
  84:	0301                	addi	t1,t1,0
  86:	0901                	addi	s2,s2,0
  88:	0002                	0x2
  8a:	0301                	addi	t1,t1,0
  8c:	0901                	addi	s2,s2,0
  8e:	0002                	0x2
  90:	0301                	addi	t1,t1,0
  92:	0901                	addi	s2,s2,0
  94:	0002                	0x2
  96:	0301                	addi	t1,t1,0
  98:	0901                	addi	s2,s2,0
  9a:	0002                	0x2
  9c:	0301                	addi	t1,t1,0
  9e:	0901                	addi	s2,s2,0
  a0:	0002                	0x2
  a2:	0301                	addi	t1,t1,0
  a4:	0901                	addi	s2,s2,0
  a6:	0002                	0x2
  a8:	0301                	addi	t1,t1,0
  aa:	0901                	addi	s2,s2,0
  ac:	0002                	0x2
  ae:	0301                	addi	t1,t1,0
  b0:	0901                	addi	s2,s2,0
  b2:	0002                	0x2
  b4:	0301                	addi	t1,t1,0
  b6:	0901                	addi	s2,s2,0
  b8:	0002                	0x2
  ba:	0301                	addi	t1,t1,0
  bc:	0901                	addi	s2,s2,0
  be:	0002                	0x2
  c0:	0301                	addi	t1,t1,0
  c2:	0901                	addi	s2,s2,0
  c4:	0002                	0x2
  c6:	0301                	addi	t1,t1,0
  c8:	0901                	addi	s2,s2,0
  ca:	0002                	0x2
  cc:	0301                	addi	t1,t1,0
  ce:	0901                	addi	s2,s2,0
  d0:	0002                	0x2
  d2:	0301                	addi	t1,t1,0
  d4:	0901                	addi	s2,s2,0
  d6:	0002                	0x2
  d8:	0301                	addi	t1,t1,0
  da:	0901                	addi	s2,s2,0
  dc:	0002                	0x2
  de:	0301                	addi	t1,t1,0
  e0:	0901                	addi	s2,s2,0
  e2:	0002                	0x2
  e4:	0301                	addi	t1,t1,0
  e6:	0905                	addi	s2,s2,1
  e8:	0002                	0x2
  ea:	0301                	addi	t1,t1,0
  ec:	0901                	addi	s2,s2,0
  ee:	0004                	addi	s1,sp,0
  f0:	0301                	addi	t1,t1,0
  f2:	0904                	addi	s1,sp,144
  f4:	0004                	addi	s1,sp,0
  f6:	0301                	addi	t1,t1,0
  f8:	00080903          	lb	s2,0(a6)
  fc:	0301                	addi	t1,t1,0
  fe:	0901                	addi	s2,s2,0
 100:	0008                	addi	a0,sp,0
 102:	0301                	addi	t1,t1,0
 104:	00040903          	lb	s2,0(s0)
 108:	0301                	addi	t1,t1,0
 10a:	0901                	addi	s2,s2,0
 10c:	0008                	addi	a0,sp,0
 10e:	0301                	addi	t1,t1,0
 110:	0901                	addi	s2,s2,0
 112:	0008                	addi	a0,sp,0
 114:	0301                	addi	t1,t1,0
 116:	0901                	addi	s2,s2,0
 118:	0002                	0x2
 11a:	0301                	addi	t1,t1,0
 11c:	0901                	addi	s2,s2,0
 11e:	0002                	0x2
 120:	0301                	addi	t1,t1,0
 122:	00020903          	lb	s2,0(tp) # ffffa000 <pulp__FC+0xffffa001>
 126:	0301                	addi	t1,t1,0
 128:	0901                	addi	s2,s2,0
 12a:	0008                	addi	a0,sp,0
 12c:	0301                	addi	t1,t1,0
 12e:	0901                	addi	s2,s2,0
 130:	0002                	0x2
 132:	0301                	addi	t1,t1,0
 134:	00020903          	lb	s2,0(tp) # 0 <__vector_start>
 138:	0301                	addi	t1,t1,0
 13a:	00020903          	lb	s2,0(tp) # 0 <__vector_start>
 13e:	0301                	addi	t1,t1,0
 140:	0901                	addi	s2,s2,0
 142:	0002                	0x2
 144:	0301                	addi	t1,t1,0
 146:	0901                	addi	s2,s2,0
 148:	0002                	0x2
 14a:	0301                	addi	t1,t1,0
 14c:	0901                	addi	s2,s2,0
 14e:	0002                	0x2
 150:	0301                	addi	t1,t1,0
 152:	0901                	addi	s2,s2,0
 154:	0002                	0x2
 156:	0301                	addi	t1,t1,0
 158:	090c                	addi	a1,sp,144
 15a:	0002                	0x2
 15c:	0901                	addi	s2,s2,0
 15e:	0002                	0x2
 160:	0100                	addi	s0,sp,128
 162:	3901                	jal	fffffd72 <pulp__FC+0xfffffd73>
 164:	0001                	nop
 166:	0200                	addi	s0,sp,256
 168:	e500                	fsw	fs0,8(a0)
 16a:	0000                	unimp
 16c:	0100                	addi	s0,sp,128
 16e:	fb01                	bnez	a4,7e <__vector_start+0x7e>
 170:	0d0e                	slli	s10,s10,0x3
 172:	0100                	addi	s0,sp,128
 174:	0101                	addi	sp,sp,0
 176:	0001                	nop
 178:	0000                	unimp
 17a:	0001                	nop
 17c:	0100                	addi	s0,sp,128
 17e:	74706f2f          	0x74706f2f
 182:	7369722f          	0x7369722f
 186:	722f7663          	bleu	sp,t5,8b2 <__sfp+0x30>
 18a:	7369                	lui	t1,0xffffa
 18c:	32337663          	bleu	gp,t1,4b8 <memset+0x42>
 190:	752d                	lui	a0,0xfffeb
 192:	6b6e                	flw	fs6,216(sp)
 194:	6f6e                	flw	ft10,216(sp)
 196:	652d6e77          	0x652d6e77
 19a:	666c                	flw	fa1,76(a2)
 19c:	7379732f          	0x7379732f
 1a0:	692d                	lui	s2,0xb
 1a2:	636e                	flw	ft6,216(sp)
 1a4:	756c                	flw	fa1,108(a0)
 1a6:	6564                	flw	fs1,76(a0)
 1a8:	7379732f          	0x7379732f
 1ac:	2f00                	fld	fs0,24(a4)
 1ae:	2f74706f          	j	47ca4 <__TEST_RODATA_END+0x45d30>
 1b2:	6972                	flw	fs2,28(sp)
 1b4:	2f766373          	csrrsi	t1,0x2f7,12
 1b8:	696c                	flw	fa1,84(a0)
 1ba:	2f62                	fld	ft10,24(sp)
 1bc:	2f636367          	0x2f636367
 1c0:	6972                	flw	fs2,28(sp)
 1c2:	33766373          	csrrsi	t1,0x337,12
 1c6:	2d32                	fld	fs10,264(sp)
 1c8:	6e75                	lui	t3,0x1d
 1ca:	776f6e6b          	0x776f6e6b
 1ce:	2d6e                	fld	fs10,216(sp)
 1d0:	6c65                	lui	s8,0x19
 1d2:	2f66                	fld	ft10,88(sp)
 1d4:	2e312e37          	lui	t3,0x2e312
 1d8:	2f31                	jal	8f4 <__sfp+0x72>
 1da:	6e69                	lui	t3,0x1a
 1dc:	64756c63          	bltu	a0,t2,834 <__sinit>
 1e0:	0065                	c.addi	zero,25
 1e2:	74706f2f          	0x74706f2f
 1e6:	7369722f          	0x7369722f
 1ea:	722f7663          	bleu	sp,t5,916 <__sfp+0x94>
 1ee:	7369                	lui	t1,0xffffa
 1f0:	32337663          	bleu	gp,t1,51c <memset+0xa6>
 1f4:	752d                	lui	a0,0xfffeb
 1f6:	6b6e                	flw	fs6,216(sp)
 1f8:	6f6e                	flw	ft10,216(sp)
 1fa:	652d6e77          	0x652d6e77
 1fe:	666c                	flw	fa1,76(a2)
 200:	7379732f          	0x7379732f
 204:	692d                	lui	s2,0xb
 206:	636e                	flw	ft6,216(sp)
 208:	756c                	flw	fa1,108(a0)
 20a:	6564                	flw	fs1,76(a0)
 20c:	0000                	unimp
 20e:	616d                	addi	sp,sp,240
 210:	6e69                	lui	t3,0x1a
 212:	632e                	flw	ft6,200(sp)
 214:	0000                	unimp
 216:	0000                	unimp
 218:	6f6c                	flw	fa1,92(a4)
 21a:	682e6b63          	bltu	t3,sp,8b0 <__sfp+0x2e>
 21e:	0100                	addi	s0,sp,128
 220:	0000                	unimp
 222:	745f 7079 7365      	0x73657079745f
 228:	682e                	flw	fa6,200(sp)
 22a:	0100                	addi	s0,sp,128
 22c:	0000                	unimp
 22e:	64647473          	csrrci	s0,0x646,8
 232:	6665                	lui	a2,0x19
 234:	682e                	flw	fa6,200(sp)
 236:	0200                	addi	s0,sp,256
 238:	0000                	unimp
 23a:	6572                	flw	fa0,28(sp)
 23c:	6e65                	lui	t3,0x19
 23e:	2e74                	fld	fa3,216(a2)
 240:	0068                	addi	a0,sp,12
 242:	0001                	nop
 244:	7300                	flw	fs0,32(a4)
 246:	6474                	flw	fa3,76(s0)
 248:	696c                	flw	fa1,84(a0)
 24a:	2e62                	fld	ft8,24(sp)
 24c:	0068                	addi	a0,sp,12
 24e:	00000003          	lb	zero,0(zero) # 0 <__vector_start>
 252:	0500                	addi	s0,sp,640
 254:	0a02                	slli	s4,s4,0x0
 256:	0001                	nop
 258:	1600                	addi	s0,sp,800
 25a:	02090103          	lb	sp,32(s2) # b020 <__TEST_RODATA_END+0x90ac>
 25e:	0100                	addi	s0,sp,128
 260:	22090103          	lb	sp,544(s2)
 264:	0100                	addi	s0,sp,128
 266:	1a090503          	lb	a0,416(s2)
 26a:	0100                	addi	s0,sp,128
 26c:	0200                	addi	s0,sp,256
 26e:	0304                	addi	s1,sp,384
 270:	04090103          	lb	sp,64(s2)
 274:	0100                	addi	s0,sp,128
 276:	0200                	addi	s0,sp,256
 278:	0304                	addi	s1,sp,384
 27a:	14097f03          	0x14097f03
 27e:	0100                	addi	s0,sp,128
 280:	0200                	addi	s0,sp,256
 282:	0304                	addi	s1,sp,384
 284:	04090103          	lb	sp,64(s2)
 288:	0100                	addi	s0,sp,128
 28a:	0200                	addi	s0,sp,256
 28c:	0304                	addi	s1,sp,384
 28e:	04097f03          	0x4097f03
 292:	0100                	addi	s0,sp,128
 294:	04090a03          	lb	s4,64(s2)
 298:	0100                	addi	s0,sp,128
 29a:	0609                	addi	a2,a2,2
 29c:	0000                	unimp
 29e:	0101                	addi	sp,sp,0
 2a0:	03f1                	addi	t2,t2,28
 2a2:	0000                	unimp
 2a4:	0002                	0x2
 2a6:	00000177          	0x177
 2aa:	0101                	addi	sp,sp,0
 2ac:	000d0efb          	0xd0efb
 2b0:	0101                	addi	sp,sp,0
 2b2:	0101                	addi	sp,sp,0
 2b4:	0000                	unimp
 2b6:	0100                	addi	s0,sp,128
 2b8:	0000                	unimp
 2ba:	2f01                	jal	9ca <_malloc_trim_r+0x8c>
 2bc:	2f74706f          	j	47db2 <__TEST_RODATA_END+0x45e3e>
 2c0:	6972                	flw	fs2,28(sp)
 2c2:	2f766373          	csrrsi	t1,0x2f7,12
 2c6:	6972                	flw	fs2,28(sp)
 2c8:	33766373          	csrrsi	t1,0x337,12
 2cc:	2d32                	fld	fs10,264(sp)
 2ce:	6e75                	lui	t3,0x1d
 2d0:	776f6e6b          	0x776f6e6b
 2d4:	2d6e                	fld	fs10,216(sp)
 2d6:	6c65                	lui	s8,0x19
 2d8:	2f66                	fld	ft10,88(sp)
 2da:	2d737973          	csrrci	s2,0x2d7,6
 2de:	6e69                	lui	t3,0x1a
 2e0:	64756c63          	bltu	a0,t2,938 <__fp_unlock_all+0x8>
 2e4:	2f65                	jal	a9c <_free_r+0xa6>
 2e6:	616d                	addi	sp,sp,240
 2e8:	6e696863          	bltu	s2,t1,9d8 <_malloc_trim_r+0x9a>
 2ec:	0065                	c.addi	zero,25
 2ee:	74706f2f          	0x74706f2f
 2f2:	7369722f          	0x7369722f
 2f6:	6c2f7663          	bleu	sp,t5,9c2 <_malloc_trim_r+0x84>
 2fa:	6269                	lui	tp,0x1a
 2fc:	6363672f          	0x6363672f
 300:	7369722f          	0x7369722f
 304:	32337663          	bleu	gp,t1,630 <_reclaim_reent+0x7a>
 308:	752d                	lui	a0,0xfffeb
 30a:	6b6e                	flw	fs6,216(sp)
 30c:	6f6e                	flw	ft10,216(sp)
 30e:	652d6e77          	0x652d6e77
 312:	666c                	flw	fa1,76(a2)
 314:	312e372f          	0x312e372f
 318:	312e                	fld	ft2,232(sp)
 31a:	636e692f          	0x636e692f
 31e:	756c                	flw	fa1,108(a0)
 320:	6564                	flw	fs1,76(a0)
 322:	2f00                	fld	fs0,24(a4)
 324:	2f74706f          	j	47e1a <__TEST_RODATA_END+0x45ea6>
 328:	6972                	flw	fs2,28(sp)
 32a:	2f766373          	csrrsi	t1,0x2f7,12
 32e:	6972                	flw	fs2,28(sp)
 330:	33766373          	csrrsi	t1,0x337,12
 334:	2d32                	fld	fs10,264(sp)
 336:	6e75                	lui	t3,0x1d
 338:	776f6e6b          	0x776f6e6b
 33c:	2d6e                	fld	fs10,216(sp)
 33e:	6c65                	lui	s8,0x19
 340:	2f66                	fld	ft10,88(sp)
 342:	2d737973          	csrrci	s2,0x2d7,6
 346:	6e69                	lui	t3,0x1a
 348:	64756c63          	bltu	a0,t2,9a0 <_malloc_trim_r+0x62>
 34c:	2f65                	jal	b04 <_free_r+0x10e>
 34e:	00737973          	csrrci	s2,0x7,6
 352:	74706f2f          	0x74706f2f
 356:	7369722f          	0x7369722f
 35a:	722f7663          	bleu	sp,t5,a86 <_free_r+0x90>
 35e:	7369                	lui	t1,0xffffa
 360:	32337663          	bleu	gp,t1,68c <__register_exitproc+0x2a>
 364:	752d                	lui	a0,0xfffeb
 366:	6b6e                	flw	fs6,216(sp)
 368:	6f6e                	flw	ft10,216(sp)
 36a:	652d6e77          	0x652d6e77
 36e:	666c                	flw	fa1,76(a2)
 370:	7379732f          	0x7379732f
 374:	692d                	lui	s2,0xb
 376:	636e                	flw	ft6,216(sp)
 378:	756c                	flw	fa1,108(a0)
 37a:	6564                	flw	fs1,76(a0)
 37c:	0000                	unimp
 37e:	63737973          	csrrci	s2,0x637,6
 382:	6c61                	lui	s8,0x18
 384:	736c                	flw	fa1,100(a4)
 386:	632e                	flw	ft6,200(sp)
 388:	0000                	unimp
 38a:	0000                	unimp
 38c:	645f 6665 7561      	0x75616665645f
 392:	746c                	flw	fa1,108(s0)
 394:	745f 7079 7365      	0x73657079745f
 39a:	682e                	flw	fa6,200(sp)
 39c:	0100                	addi	s0,sp,128
 39e:	0000                	unimp
 3a0:	64647473          	csrrci	s0,0x646,8
 3a4:	6665                	lui	a2,0x19
 3a6:	682e                	flw	fa6,200(sp)
 3a8:	0200                	addi	s0,sp,256
 3aa:	0000                	unimp
 3ac:	6f6c                	flw	fa1,92(a4)
 3ae:	682e6b63          	bltu	t3,sp,a44 <_free_r+0x4e>
 3b2:	0300                	addi	s0,sp,384
 3b4:	0000                	unimp
 3b6:	745f 7079 7365      	0x73657079745f
 3bc:	682e                	flw	fa6,200(sp)
 3be:	0300                	addi	s0,sp,384
 3c0:	0000                	unimp
 3c2:	6572                	flw	fa0,28(sp)
 3c4:	6e65                	lui	t3,0x19
 3c6:	2e74                	fld	fa3,216(a2)
 3c8:	0068                	addi	a0,sp,12
 3ca:	5f000003          	lb	zero,1520(zero) # 5f0 <_reclaim_reent+0x3a>
 3ce:	6974                	flw	fa3,84(a0)
 3d0:	656d                	lui	a0,0x1b
 3d2:	6176                	flw	ft2,92(sp)
 3d4:	2e6c                	fld	fa1,216(a2)
 3d6:	0068                	addi	a0,sp,12
 3d8:	5f000003          	lb	zero,1520(zero) # 5f0 <_reclaim_reent+0x3a>
 3dc:	6974                	flw	fa3,84(a0)
 3de:	656d                	lui	a0,0x1b
 3e0:	63657073          	csrci	0x636,10
 3e4:	682e                	flw	fa6,200(sp)
 3e6:	0300                	addi	s0,sp,384
 3e8:	0000                	unimp
 3ea:	7974                	flw	fa3,116(a0)
 3ec:	6570                	flw	fa2,76(a0)
 3ee:	00682e73          	csrrs	t3,0x6,a6
 3f2:	74000003          	lb	zero,1856(zero) # 740 <__call_exitprocs+0x7e>
 3f6:	6d69                	lui	s10,0x1a
 3f8:	2e65                	jal	7b0 <std.isra.0+0x34>
 3fa:	0068                	addi	a0,sp,12
 3fc:	0004                	addi	s1,sp,0
 3fe:	7300                	flw	fs0,32(a4)
 400:	6174                	flw	fa3,68(a0)
 402:	2e74                	fld	fa3,216(a2)
 404:	0068                	addi	a0,sp,12
 406:	75000003          	lb	zero,1872(zero) # 750 <__call_exitprocs+0x8e>
 40a:	696e                	flw	fs2,216(sp)
 40c:	2e647473          	csrrci	s0,0x2e6,8
 410:	0068                	addi	a0,sp,12
 412:	65000003          	lb	zero,1616(zero) # 650 <strlen>
 416:	7272                	flw	ft4,60(sp)
 418:	6f6e                	flw	ft10,216(sp)
 41a:	682e                	flw	fa6,200(sp)
 41c:	0300                	addi	s0,sp,384
 41e:	0000                	unimp
 420:	0000                	unimp
 422:	0205                	addi	tp,tp,1
 424:	0172                	slli	sp,sp,0x1c
 426:	0000                	unimp
 428:	03013103          	0x3013103
 42c:	0901                	addi	s2,s2,0
 42e:	0000                	unimp
 430:	0301                	addi	t1,t1,0
 432:	0902                	slli	s2,s2,0x0
 434:	0008                	addi	a0,sp,0
 436:	0301                	addi	t1,t1,0
 438:	097f                	0x97f
 43a:	0004                	addi	s1,sp,0
 43c:	0301                	addi	t1,t1,0
 43e:	0902                	slli	s2,s2,0x0
 440:	0006                	0x6
 442:	0301                	addi	t1,t1,0
 444:	097f                	0x97f
 446:	0002                	0x2
 448:	0301                	addi	t1,t1,0
 44a:	0904                	addi	s1,sp,144
 44c:	0006                	0x6
 44e:	0301                	addi	t1,t1,0
 450:	0901                	addi	s2,s2,0
 452:	0000                	unimp
 454:	0301                	addi	t1,t1,0
 456:	0902                	slli	s2,s2,0x0
 458:	0008                	addi	a0,sp,0
 45a:	0301                	addi	t1,t1,0
 45c:	00040903          	lb	s2,0(s0)
 460:	0301                	addi	t1,t1,0
 462:	0901                	addi	s2,s2,0
 464:	0000                	unimp
 466:	0301                	addi	t1,t1,0
 468:	0902                	slli	s2,s2,0x0
 46a:	0008                	addi	a0,sp,0
 46c:	0301                	addi	t1,t1,0
 46e:	00040903          	lb	s2,0(s0)
 472:	0301                	addi	t1,t1,0
 474:	0901                	addi	s2,s2,0
 476:	0000                	unimp
 478:	0301                	addi	t1,t1,0
 47a:	0902                	slli	s2,s2,0x0
 47c:	0008                	addi	a0,sp,0
 47e:	0301                	addi	t1,t1,0
 480:	00040903          	lb	s2,0(s0)
 484:	0301                	addi	t1,t1,0
 486:	0901                	addi	s2,s2,0
 488:	0000                	unimp
 48a:	0301                	addi	t1,t1,0
 48c:	0902                	slli	s2,s2,0x0
 48e:	0008                	addi	a0,sp,0
 490:	0301                	addi	t1,t1,0
 492:	00040903          	lb	s2,0(s0)
 496:	0301                	addi	t1,t1,0
 498:	0901                	addi	s2,s2,0
 49a:	0000                	unimp
 49c:	0301                	addi	t1,t1,0
 49e:	0902                	slli	s2,s2,0x0
 4a0:	0008                	addi	a0,sp,0
 4a2:	0301                	addi	t1,t1,0
 4a4:	00040903          	lb	s2,0(s0)
 4a8:	0301                	addi	t1,t1,0
 4aa:	0902                	slli	s2,s2,0x0
 4ac:	0000                	unimp
 4ae:	0301                	addi	t1,t1,0
 4b0:	00040903          	lb	s2,0(s0)
 4b4:	0301                	addi	t1,t1,0
 4b6:	0901                	addi	s2,s2,0
 4b8:	0000                	unimp
 4ba:	0301                	addi	t1,t1,0
 4bc:	0902                	slli	s2,s2,0x0
 4be:	0006                	0x6
 4c0:	0301                	addi	t1,t1,0
 4c2:	00040903          	lb	s2,0(s0)
 4c6:	0301                	addi	t1,t1,0
 4c8:	0901                	addi	s2,s2,0
 4ca:	0000                	unimp
 4cc:	0301                	addi	t1,t1,0
 4ce:	0901                	addi	s2,s2,0
 4d0:	0006                	0x6
 4d2:	0301                	addi	t1,t1,0
 4d4:	0901                	addi	s2,s2,0
 4d6:	0004                	addi	s1,sp,0
 4d8:	0301                	addi	t1,t1,0
 4da:	00020903          	lb	s2,0(tp) # 1a000 <__TEST_RODATA_END+0x1808c>
 4de:	0301                	addi	t1,t1,0
 4e0:	0901                	addi	s2,s2,0
 4e2:	0000                	unimp
 4e4:	0301                	addi	t1,t1,0
 4e6:	0902                	slli	s2,s2,0x0
 4e8:	0008                	addi	a0,sp,0
 4ea:	0301                	addi	t1,t1,0
 4ec:	00040903          	lb	s2,0(s0)
 4f0:	0301                	addi	t1,t1,0
 4f2:	0901                	addi	s2,s2,0
 4f4:	0000                	unimp
 4f6:	0301                	addi	t1,t1,0
 4f8:	0902                	slli	s2,s2,0x0
 4fa:	0006                	0x6
 4fc:	0301                	addi	t1,t1,0
 4fe:	00040903          	lb	s2,0(s0)
 502:	0301                	addi	t1,t1,0
 504:	0901                	addi	s2,s2,0
 506:	0000                	unimp
 508:	0301                	addi	t1,t1,0
 50a:	0904                	addi	s1,sp,144
 50c:	0004                	addi	s1,sp,0
 50e:	0301                	addi	t1,t1,0
 510:	00040903          	lb	s2,0(s0)
 514:	0301                	addi	t1,t1,0
 516:	0901                	addi	s2,s2,0
 518:	0000                	unimp
 51a:	0301                	addi	t1,t1,0
 51c:	0902                	slli	s2,s2,0x0
 51e:	0008                	addi	a0,sp,0
 520:	0301                	addi	t1,t1,0
 522:	0909                	addi	s2,s2,2
 524:	0010                	addi	a2,sp,0
 526:	0301                	addi	t1,t1,0
 528:	0901                	addi	s2,s2,0
 52a:	0000                	unimp
 52c:	0301                	addi	t1,t1,0
 52e:	0902                	slli	s2,s2,0x0
 530:	0008                	addi	a0,sp,0
 532:	0301                	addi	t1,t1,0
 534:	00040903          	lb	s2,0(s0)
 538:	0301                	addi	t1,t1,0
 53a:	0902                	slli	s2,s2,0x0
 53c:	0000                	unimp
 53e:	0301                	addi	t1,t1,0
 540:	00040903          	lb	s2,0(s0)
 544:	0301                	addi	t1,t1,0
 546:	0901                	addi	s2,s2,0
 548:	0000                	unimp
 54a:	0301                	addi	t1,t1,0
 54c:	0902                	slli	s2,s2,0x0
 54e:	0008                	addi	a0,sp,0
 550:	0301                	addi	t1,t1,0
 552:	00040903          	lb	s2,0(s0)
 556:	0301                	addi	t1,t1,0
 558:	0901                	addi	s2,s2,0
 55a:	0000                	unimp
 55c:	0301                	addi	t1,t1,0
 55e:	0901                	addi	s2,s2,0
 560:	0002                	0x2
 562:	0301                	addi	t1,t1,0
 564:	00060903          	lb	s2,0(a2) # 19000 <__TEST_RODATA_END+0x1708c>
 568:	0301                	addi	t1,t1,0
 56a:	0901                	addi	s2,s2,0
 56c:	0000                	unimp
 56e:	0301                	addi	t1,t1,0
 570:	0902                	slli	s2,s2,0x0
 572:	0006                	0x6
 574:	0301                	addi	t1,t1,0
 576:	00040903          	lb	s2,0(s0)
 57a:	0301                	addi	t1,t1,0
 57c:	0901                	addi	s2,s2,0
 57e:	0000                	unimp
 580:	0301                	addi	t1,t1,0
 582:	0902                	slli	s2,s2,0x0
 584:	0006                	0x6
 586:	0301                	addi	t1,t1,0
 588:	00040903          	lb	s2,0(s0)
 58c:	0301                	addi	t1,t1,0
 58e:	0902                	slli	s2,s2,0x0
 590:	0000                	unimp
 592:	0301                	addi	t1,t1,0
 594:	0909                	addi	s2,s2,2
 596:	0010                	addi	a2,sp,0
 598:	0301                	addi	t1,t1,0
 59a:	0902                	slli	s2,s2,0x0
 59c:	0000                	unimp
 59e:	0301                	addi	t1,t1,0
 5a0:	0909                	addi	s2,s2,2
 5a2:	0010                	addi	a2,sp,0
 5a4:	0301                	addi	t1,t1,0
 5a6:	0902                	slli	s2,s2,0x0
 5a8:	0000                	unimp
 5aa:	0301                	addi	t1,t1,0
 5ac:	00040903          	lb	s2,0(s0)
 5b0:	0301                	addi	t1,t1,0
 5b2:	0901                	addi	s2,s2,0
 5b4:	0000                	unimp
 5b6:	0301                	addi	t1,t1,0
 5b8:	0904                	addi	s1,sp,144
 5ba:	0004                	addi	s1,sp,0
 5bc:	0301                	addi	t1,t1,0
 5be:	00040903          	lb	s2,0(s0)
 5c2:	0301                	addi	t1,t1,0
 5c4:	00000903          	lb	s2,0(zero) # 0 <__vector_start>
 5c8:	0301                	addi	t1,t1,0
 5ca:	00040903          	lb	s2,0(s0)
 5ce:	0301                	addi	t1,t1,0
 5d0:	0902                	slli	s2,s2,0x0
 5d2:	0000                	unimp
 5d4:	0301                	addi	t1,t1,0
 5d6:	00040903          	lb	s2,0(s0)
 5da:	0301                	addi	t1,t1,0
 5dc:	0901                	addi	s2,s2,0
 5de:	0000                	unimp
 5e0:	0301                	addi	t1,t1,0
 5e2:	0902                	slli	s2,s2,0x0
 5e4:	0006                	0x6
 5e6:	0301                	addi	t1,t1,0
 5e8:	0909                	addi	s2,s2,2
 5ea:	0010                	addi	a2,sp,0
 5ec:	0301                	addi	t1,t1,0
 5ee:	0901                	addi	s2,s2,0
 5f0:	0000                	unimp
 5f2:	0301                	addi	t1,t1,0
 5f4:	0902                	slli	s2,s2,0x0
 5f6:	0006                	0x6
 5f8:	0301                	addi	t1,t1,0
 5fa:	00040903          	lb	s2,0(s0)
 5fe:	0301                	addi	t1,t1,0
 600:	0901                	addi	s2,s2,0
 602:	0000                	unimp
 604:	0301                	addi	t1,t1,0
 606:	0905                	addi	s2,s2,1
 608:	0002                	0x2
 60a:	0301                	addi	t1,t1,0
 60c:	0902                	slli	s2,s2,0x0
 60e:	0004                	addi	s1,sp,0
 610:	0301                	addi	t1,t1,0
 612:	0979                	addi	s2,s2,30
 614:	0004                	addi	s1,sp,0
 616:	0301                	addi	t1,t1,0
 618:	0901                	addi	s2,s2,0
 61a:	0004                	addi	s1,sp,0
 61c:	0301                	addi	t1,t1,0
 61e:	0901                	addi	s2,s2,0
 620:	0008                	addi	a0,sp,0
 622:	0301                	addi	t1,t1,0
 624:	0905                	addi	s2,s2,1
 626:	0004                	addi	s1,sp,0
 628:	0301                	addi	t1,t1,0
 62a:	097f                	0x97f
 62c:	0008                	addi	a0,sp,0
 62e:	0301                	addi	t1,t1,0
 630:	0902                	slli	s2,s2,0x0
 632:	0004                	addi	s1,sp,0
 634:	0301                	addi	t1,t1,0
 636:	0901                	addi	s2,s2,0
 638:	0002                	0x2
 63a:	0301                	addi	t1,t1,0
 63c:	00020907          	0x20907
 640:	0301                	addi	t1,t1,0
 642:	0901                	addi	s2,s2,0
 644:	0000                	unimp
 646:	0301                	addi	t1,t1,0
 648:	0902                	slli	s2,s2,0x0
 64a:	0004                	addi	s1,sp,0
 64c:	0301                	addi	t1,t1,0
 64e:	00040903          	lb	s2,0(s0)
 652:	0301                	addi	t1,t1,0
 654:	00000903          	lb	s2,0(zero) # 0 <__vector_start>
 658:	0301                	addi	t1,t1,0
 65a:	097e                	slli	s2,s2,0x1f
 65c:	0000                	unimp
 65e:	0301                	addi	t1,t1,0
 660:	0902                	slli	s2,s2,0x0
 662:	0000                	unimp
 664:	0301                	addi	t1,t1,0
 666:	097e                	slli	s2,s2,0x1f
 668:	0008                	addi	a0,sp,0
 66a:	0301                	addi	t1,t1,0
 66c:	0902                	slli	s2,s2,0x0
 66e:	0004                	addi	s1,sp,0
 670:	0301                	addi	t1,t1,0
 672:	0904                	addi	s1,sp,144
 674:	0004                	addi	s1,sp,0
 676:	0301                	addi	t1,t1,0
 678:	0901                	addi	s2,s2,0
 67a:	000c                	addi	a1,sp,0
 67c:	0301                	addi	t1,t1,0
 67e:	0905                	addi	s2,s2,1
 680:	0006                	0x6
 682:	0301                	addi	t1,t1,0
 684:	097d                	addi	s2,s2,31
 686:	0004                	addi	s1,sp,0
 688:	0301                	addi	t1,t1,0
 68a:	097a                	slli	s2,s2,0x1e
 68c:	0006                	0x6
 68e:	0901                	addi	s2,s2,0
 690:	0004                	addi	s1,sp,0
 692:	0100                	addi	s0,sp,128
 694:	ae01                	j	9a4 <_malloc_trim_r+0x66>
 696:	0001                	nop
 698:	0200                	addi	s0,sp,256
 69a:	2000                	fld	fs0,0(s0)
 69c:	0000                	unimp
 69e:	0100                	addi	s0,sp,128
 6a0:	fb01                	bnez	a4,5b0 <cleanup_glue+0x1a>
 6a2:	0d0e                	slli	s10,s10,0x3
 6a4:	0100                	addi	s0,sp,128
 6a6:	0101                	addi	sp,sp,0
 6a8:	0001                	nop
 6aa:	0000                	unimp
 6ac:	0001                	nop
 6ae:	0100                	addi	s0,sp,128
 6b0:	7600                	flw	fs0,40(a2)
 6b2:	6365                	lui	t1,0x19
 6b4:	6f74                	flw	fa3,92(a4)
 6b6:	7372                	flw	ft6,60(sp)
 6b8:	532e                	lw	t1,232(sp)
 6ba:	0000                	unimp
 6bc:	0000                	unimp
 6be:	0000                	unimp
 6c0:	0205                	addi	tp,tp,1
 6c2:	0000                	unimp
 6c4:	0000                	unimp
 6c6:	03011303          	lh	t1,48(sp)
 6ca:	0901                	addi	s2,s2,0
 6cc:	0004                	addi	s1,sp,0
 6ce:	0301                	addi	t1,t1,0
 6d0:	0901                	addi	s2,s2,0
 6d2:	0004                	addi	s1,sp,0
 6d4:	0301                	addi	t1,t1,0
 6d6:	0901                	addi	s2,s2,0
 6d8:	0004                	addi	s1,sp,0
 6da:	0301                	addi	t1,t1,0
 6dc:	0901                	addi	s2,s2,0
 6de:	0004                	addi	s1,sp,0
 6e0:	0301                	addi	t1,t1,0
 6e2:	0901                	addi	s2,s2,0
 6e4:	0004                	addi	s1,sp,0
 6e6:	0301                	addi	t1,t1,0
 6e8:	0901                	addi	s2,s2,0
 6ea:	0004                	addi	s1,sp,0
 6ec:	0301                	addi	t1,t1,0
 6ee:	0901                	addi	s2,s2,0
 6f0:	0004                	addi	s1,sp,0
 6f2:	0301                	addi	t1,t1,0
 6f4:	0901                	addi	s2,s2,0
 6f6:	0004                	addi	s1,sp,0
 6f8:	0301                	addi	t1,t1,0
 6fa:	0901                	addi	s2,s2,0
 6fc:	0004                	addi	s1,sp,0
 6fe:	0301                	addi	t1,t1,0
 700:	0901                	addi	s2,s2,0
 702:	0004                	addi	s1,sp,0
 704:	0301                	addi	t1,t1,0
 706:	0901                	addi	s2,s2,0
 708:	0004                	addi	s1,sp,0
 70a:	0301                	addi	t1,t1,0
 70c:	0901                	addi	s2,s2,0
 70e:	0004                	addi	s1,sp,0
 710:	0301                	addi	t1,t1,0
 712:	0901                	addi	s2,s2,0
 714:	0004                	addi	s1,sp,0
 716:	0301                	addi	t1,t1,0
 718:	0901                	addi	s2,s2,0
 71a:	0004                	addi	s1,sp,0
 71c:	0301                	addi	t1,t1,0
 71e:	0901                	addi	s2,s2,0
 720:	0004                	addi	s1,sp,0
 722:	0301                	addi	t1,t1,0
 724:	0901                	addi	s2,s2,0
 726:	0004                	addi	s1,sp,0
 728:	0301                	addi	t1,t1,0
 72a:	0901                	addi	s2,s2,0
 72c:	0004                	addi	s1,sp,0
 72e:	0301                	addi	t1,t1,0
 730:	0901                	addi	s2,s2,0
 732:	0004                	addi	s1,sp,0
 734:	0301                	addi	t1,t1,0
 736:	0901                	addi	s2,s2,0
 738:	0004                	addi	s1,sp,0
 73a:	0301                	addi	t1,t1,0
 73c:	0901                	addi	s2,s2,0
 73e:	0004                	addi	s1,sp,0
 740:	0301                	addi	t1,t1,0
 742:	0901                	addi	s2,s2,0
 744:	0004                	addi	s1,sp,0
 746:	0301                	addi	t1,t1,0
 748:	0901                	addi	s2,s2,0
 74a:	0004                	addi	s1,sp,0
 74c:	0301                	addi	t1,t1,0
 74e:	0901                	addi	s2,s2,0
 750:	0004                	addi	s1,sp,0
 752:	0301                	addi	t1,t1,0
 754:	0901                	addi	s2,s2,0
 756:	0004                	addi	s1,sp,0
 758:	0301                	addi	t1,t1,0
 75a:	0901                	addi	s2,s2,0
 75c:	0004                	addi	s1,sp,0
 75e:	0301                	addi	t1,t1,0
 760:	0901                	addi	s2,s2,0
 762:	0004                	addi	s1,sp,0
 764:	0301                	addi	t1,t1,0
 766:	0901                	addi	s2,s2,0
 768:	0004                	addi	s1,sp,0
 76a:	0301                	addi	t1,t1,0
 76c:	0901                	addi	s2,s2,0
 76e:	0004                	addi	s1,sp,0
 770:	0301                	addi	t1,t1,0
 772:	0901                	addi	s2,s2,0
 774:	0004                	addi	s1,sp,0
 776:	0301                	addi	t1,t1,0
 778:	0901                	addi	s2,s2,0
 77a:	0004                	addi	s1,sp,0
 77c:	0301                	addi	t1,t1,0
 77e:	0901                	addi	s2,s2,0
 780:	0004                	addi	s1,sp,0
 782:	0901                	addi	s2,s2,0
 784:	0004                	addi	s1,sp,0
 786:	0100                	addi	s0,sp,128
 788:	0001                	nop
 78a:	0205                	addi	tp,tp,1
 78c:	0306                	slli	t1,t1,0x1
 78e:	0000                	unimp
 790:	03013f03          	0x3013f03
 794:	0901                	addi	s2,s2,0
 796:	0008                	addi	a0,sp,0
 798:	0301                	addi	t1,t1,0
 79a:	0901                	addi	s2,s2,0
 79c:	0004                	addi	s1,sp,0
 79e:	0301                	addi	t1,t1,0
 7a0:	0904                	addi	s1,sp,144
 7a2:	0004                	addi	s1,sp,0
 7a4:	0301                	addi	t1,t1,0
 7a6:	0901                	addi	s2,s2,0
 7a8:	0004                	addi	s1,sp,0
 7aa:	0301                	addi	t1,t1,0
 7ac:	0901                	addi	s2,s2,0
 7ae:	0004                	addi	s1,sp,0
 7b0:	0301                	addi	t1,t1,0
 7b2:	0901                	addi	s2,s2,0
 7b4:	0004                	addi	s1,sp,0
 7b6:	0301                	addi	t1,t1,0
 7b8:	0901                	addi	s2,s2,0
 7ba:	0004                	addi	s1,sp,0
 7bc:	0301                	addi	t1,t1,0
 7be:	0901                	addi	s2,s2,0
 7c0:	0004                	addi	s1,sp,0
 7c2:	0301                	addi	t1,t1,0
 7c4:	0901                	addi	s2,s2,0
 7c6:	0004                	addi	s1,sp,0
 7c8:	0301                	addi	t1,t1,0
 7ca:	0901                	addi	s2,s2,0
 7cc:	0004                	addi	s1,sp,0
 7ce:	0301                	addi	t1,t1,0
 7d0:	0901                	addi	s2,s2,0
 7d2:	0004                	addi	s1,sp,0
 7d4:	0301                	addi	t1,t1,0
 7d6:	0901                	addi	s2,s2,0
 7d8:	0004                	addi	s1,sp,0
 7da:	0301                	addi	t1,t1,0
 7dc:	00040903          	lb	s2,0(s0)
 7e0:	0301                	addi	t1,t1,0
 7e2:	0901                	addi	s2,s2,0
 7e4:	0008                	addi	a0,sp,0
 7e6:	0301                	addi	t1,t1,0
 7e8:	0901                	addi	s2,s2,0
 7ea:	0004                	addi	s1,sp,0
 7ec:	0301                	addi	t1,t1,0
 7ee:	00040903          	lb	s2,0(s0)
 7f2:	0301                	addi	t1,t1,0
 7f4:	0901                	addi	s2,s2,0
 7f6:	0008                	addi	a0,sp,0
 7f8:	0301                	addi	t1,t1,0
 7fa:	0901                	addi	s2,s2,0
 7fc:	0004                	addi	s1,sp,0
 7fe:	0301                	addi	t1,t1,0
 800:	00040903          	lb	s2,0(s0)
 804:	0301                	addi	t1,t1,0
 806:	0901                	addi	s2,s2,0
 808:	0008                	addi	a0,sp,0
 80a:	0301                	addi	t1,t1,0
 80c:	0901                	addi	s2,s2,0
 80e:	0004                	addi	s1,sp,0
 810:	0301                	addi	t1,t1,0
 812:	00040903          	lb	s2,0(s0)
 816:	0301                	addi	t1,t1,0
 818:	0901                	addi	s2,s2,0
 81a:	0008                	addi	a0,sp,0
 81c:	0301                	addi	t1,t1,0
 81e:	0901                	addi	s2,s2,0
 820:	0004                	addi	s1,sp,0
 822:	0301                	addi	t1,t1,0
 824:	00040903          	lb	s2,0(s0)
 828:	0301                	addi	t1,t1,0
 82a:	0901                	addi	s2,s2,0
 82c:	0004                	addi	s1,sp,0
 82e:	0301                	addi	t1,t1,0
 830:	0901                	addi	s2,s2,0
 832:	0004                	addi	s1,sp,0
 834:	0301                	addi	t1,t1,0
 836:	0901                	addi	s2,s2,0
 838:	0004                	addi	s1,sp,0
 83a:	0301                	addi	t1,t1,0
 83c:	00040903          	lb	s2,0(s0)
 840:	0901                	addi	s2,s2,0
 842:	0004                	addi	s1,sp,0
 844:	0100                	addi	s0,sp,128
 846:	5401                	li	s0,-32
 848:	0000                	unimp
 84a:	0200                	addi	s0,sp,256
 84c:	2200                	fld	fs0,0(a2)
 84e:	0000                	unimp
 850:	0100                	addi	s0,sp,128
 852:	fb01                	bnez	a4,762 <__call_exitprocs+0xa0>
 854:	0d0e                	slli	s10,s10,0x3
 856:	0100                	addi	s0,sp,128
 858:	0101                	addi	sp,sp,0
 85a:	0001                	nop
 85c:	0000                	unimp
 85e:	0001                	nop
 860:	0100                	addi	s0,sp,128
 862:	7300                	flw	fs0,32(a4)
 864:	7362                	flw	ft6,56(sp)
 866:	5f74                	lw	a3,124(a4)
 868:	6f62                	flw	ft10,24(sp)
 86a:	532e746f          	jal	s0,e7d9c <__TEST_RODATA_END+0xe5e28>
 86e:	0000                	unimp
 870:	0000                	unimp
 872:	0000                	unimp
 874:	0205                	addi	tp,tp,1
 876:	0392                	slli	t2,t2,0x4
 878:	0000                	unimp
 87a:	0319                	addi	t1,t1,6
 87c:	0901                	addi	s2,s2,0
 87e:	0004                	addi	s1,sp,0
 880:	0301                	addi	t1,t1,0
 882:	0906                	slli	s2,s2,0x1
 884:	0004                	addi	s1,sp,0
 886:	0301                	addi	t1,t1,0
 888:	0901                	addi	s2,s2,0
 88a:	0008                	addi	a0,sp,0
 88c:	0301                	addi	t1,t1,0
 88e:	0901                	addi	s2,s2,0
 890:	0004                	addi	s1,sp,0
 892:	0301                	addi	t1,t1,0
 894:	0908                	addi	a0,sp,144
 896:	0004                	addi	s1,sp,0
 898:	0901                	addi	s2,s2,0
 89a:	0002                	0x2
 89c:	0100                	addi	s0,sp,128
 89e:	01 00 4d 03 00          	Address 0x000000000000089e is out of bounds.


Disassembly of section .debug_frame:

00000000 <.debug_frame>:
   0:	000c                	addi	a1,sp,0
   2:	0000                	unimp
   4:	ffff                	0xffff
   6:	ffff                	0xffff
   8:	7c010003          	lb	zero,1984(sp)
   c:	0c01                	addi	s8,s8,0
   e:	0002                	0x2
  10:	001c                	addi	a5,sp,0
  12:	0000                	unimp
  14:	0000                	unimp
  16:	0000                	unimp
  18:	010a                	slli	sp,sp,0x2
  1a:	0000                	unimp
  1c:	0068                	addi	a0,sp,12
  1e:	0000                	unimp
  20:	0204                	addi	s1,sp,256
  22:	0000                	unimp
  24:	0e00                	addi	s0,sp,784
  26:	0440                	addi	s0,sp,516
  28:	0064                	addi	s1,sp,12
  2a:	0000                	unimp
  2c:	000e                	0xe
  2e:	0000                	unimp
  30:	000c                	addi	a1,sp,0
  32:	0000                	unimp
  34:	ffff                	0xffff
  36:	ffff                	0xffff
  38:	7c010003          	lb	zero,1984(sp)
  3c:	0c01                	addi	s8,s8,0
  3e:	0002                	0x2
  40:	000c                	addi	a1,sp,0
  42:	0000                	unimp
  44:	0030                	addi	a2,sp,8
  46:	0000                	unimp
  48:	0172                	slli	sp,sp,0x1c
  4a:	0000                	unimp
  4c:	001a                	0x1a
  4e:	0000                	unimp
  50:	000c                	addi	a1,sp,0
  52:	0000                	unimp
  54:	0030                	addi	a2,sp,8
  56:	0000                	unimp
  58:	018c                	addi	a1,sp,192
  5a:	0000                	unimp
  5c:	000c                	addi	a1,sp,0
  5e:	0000                	unimp
  60:	000c                	addi	a1,sp,0
  62:	0000                	unimp
  64:	0030                	addi	a2,sp,8
  66:	0000                	unimp
  68:	0198                	addi	a4,sp,192
  6a:	0000                	unimp
  6c:	000c                	addi	a1,sp,0
  6e:	0000                	unimp
  70:	000c                	addi	a1,sp,0
  72:	0000                	unimp
  74:	0030                	addi	a2,sp,8
  76:	0000                	unimp
  78:	01a4                	addi	s1,sp,200
  7a:	0000                	unimp
  7c:	000c                	addi	a1,sp,0
  7e:	0000                	unimp
  80:	000c                	addi	a1,sp,0
  82:	0000                	unimp
  84:	0030                	addi	a2,sp,8
  86:	0000                	unimp
  88:	01b0                	addi	a2,sp,200
  8a:	0000                	unimp
  8c:	000c                	addi	a1,sp,0
  8e:	0000                	unimp
  90:	000c                	addi	a1,sp,0
  92:	0000                	unimp
  94:	0030                	addi	a2,sp,8
  96:	0000                	unimp
  98:	01bc                	addi	a5,sp,200
  9a:	0000                	unimp
  9c:	000c                	addi	a1,sp,0
  9e:	0000                	unimp
  a0:	000c                	addi	a1,sp,0
  a2:	0000                	unimp
  a4:	0030                	addi	a2,sp,8
  a6:	0000                	unimp
  a8:	01c8                	addi	a0,sp,196
  aa:	0000                	unimp
  ac:	0004                	addi	s1,sp,0
  ae:	0000                	unimp
  b0:	000c                	addi	a1,sp,0
  b2:	0000                	unimp
  b4:	0030                	addi	a2,sp,8
  b6:	0000                	unimp
  b8:	01cc                	addi	a1,sp,196
  ba:	0000                	unimp
  bc:	000a                	0xa
  be:	0000                	unimp
  c0:	000c                	addi	a1,sp,0
  c2:	0000                	unimp
  c4:	0030                	addi	a2,sp,8
  c6:	0000                	unimp
  c8:	01d6                	slli	gp,gp,0x15
  ca:	0000                	unimp
  cc:	000c                	addi	a1,sp,0
  ce:	0000                	unimp
  d0:	000c                	addi	a1,sp,0
  d2:	0000                	unimp
  d4:	0030                	addi	a2,sp,8
  d6:	0000                	unimp
  d8:	01e2                	slli	gp,gp,0x18
  da:	0000                	unimp
  dc:	000c                	addi	a1,sp,0
  de:	0000                	unimp
  e0:	000c                	addi	a1,sp,0
  e2:	0000                	unimp
  e4:	0030                	addi	a2,sp,8
  e6:	0000                	unimp
  e8:	01ee                	slli	gp,gp,0x1b
  ea:	0000                	unimp
  ec:	000a                	0xa
  ee:	0000                	unimp
  f0:	000c                	addi	a1,sp,0
  f2:	0000                	unimp
  f4:	0030                	addi	a2,sp,8
  f6:	0000                	unimp
  f8:	01f8                	addi	a4,sp,204
  fa:	0000                	unimp
  fc:	0008                	addi	a0,sp,0
  fe:	0000                	unimp
 100:	000c                	addi	a1,sp,0
 102:	0000                	unimp
 104:	0030                	addi	a2,sp,8
 106:	0000                	unimp
 108:	0200                	addi	s0,sp,256
 10a:	0000                	unimp
 10c:	000c                	addi	a1,sp,0
 10e:	0000                	unimp
 110:	000c                	addi	a1,sp,0
 112:	0000                	unimp
 114:	0030                	addi	a2,sp,8
 116:	0000                	unimp
 118:	020c                	addi	a1,sp,256
 11a:	0000                	unimp
 11c:	000c                	addi	a1,sp,0
 11e:	0000                	unimp
 120:	000c                	addi	a1,sp,0
 122:	0000                	unimp
 124:	0030                	addi	a2,sp,8
 126:	0000                	unimp
 128:	0218                	addi	a4,sp,256
 12a:	0000                	unimp
 12c:	000c                	addi	a1,sp,0
 12e:	0000                	unimp
 130:	000c                	addi	a1,sp,0
 132:	0000                	unimp
 134:	0030                	addi	a2,sp,8
 136:	0000                	unimp
 138:	0224                	addi	s1,sp,264
 13a:	0000                	unimp
 13c:	0004                	addi	s1,sp,0
 13e:	0000                	unimp
 140:	000c                	addi	a1,sp,0
 142:	0000                	unimp
 144:	0030                	addi	a2,sp,8
 146:	0000                	unimp
 148:	0228                	addi	a0,sp,264
 14a:	0000                	unimp
 14c:	000c                	addi	a1,sp,0
 14e:	0000                	unimp
 150:	000c                	addi	a1,sp,0
 152:	0000                	unimp
 154:	0030                	addi	a2,sp,8
 156:	0000                	unimp
 158:	0234                	addi	a3,sp,264
 15a:	0000                	unimp
 15c:	0008                	addi	a0,sp,0
 15e:	0000                	unimp
 160:	000c                	addi	a1,sp,0
 162:	0000                	unimp
 164:	0030                	addi	a2,sp,8
 166:	0000                	unimp
 168:	023c                	addi	a5,sp,264
 16a:	0000                	unimp
 16c:	000a                	0xa
 16e:	0000                	unimp
 170:	000c                	addi	a1,sp,0
 172:	0000                	unimp
 174:	0030                	addi	a2,sp,8
 176:	0000                	unimp
 178:	0246                	slli	tp,tp,0x11
 17a:	0000                	unimp
 17c:	000a                	0xa
 17e:	0000                	unimp
 180:	000c                	addi	a1,sp,0
 182:	0000                	unimp
 184:	0030                	addi	a2,sp,8
 186:	0000                	unimp
 188:	0250                	addi	a2,sp,260
 18a:	0000                	unimp
 18c:	0004                	addi	s1,sp,0
 18e:	0000                	unimp
 190:	000c                	addi	a1,sp,0
 192:	0000                	unimp
 194:	0030                	addi	a2,sp,8
 196:	0000                	unimp
 198:	0254                	addi	a3,sp,260
 19a:	0000                	unimp
 19c:	000c                	addi	a1,sp,0
 19e:	0000                	unimp
 1a0:	000c                	addi	a1,sp,0
 1a2:	0000                	unimp
 1a4:	0030                	addi	a2,sp,8
 1a6:	0000                	unimp
 1a8:	0260                	addi	s0,sp,268
 1aa:	0000                	unimp
 1ac:	0004                	addi	s1,sp,0
 1ae:	0000                	unimp
 1b0:	000c                	addi	a1,sp,0
 1b2:	0000                	unimp
 1b4:	0030                	addi	a2,sp,8
 1b6:	0000                	unimp
 1b8:	0264                	addi	s1,sp,268
 1ba:	0000                	unimp
 1bc:	000c                	addi	a1,sp,0
 1be:	0000                	unimp
 1c0:	000c                	addi	a1,sp,0
 1c2:	0000                	unimp
 1c4:	0030                	addi	a2,sp,8
 1c6:	0000                	unimp
 1c8:	0270                	addi	a2,sp,268
 1ca:	0000                	unimp
 1cc:	0004                	addi	s1,sp,0
 1ce:	0000                	unimp
 1d0:	000c                	addi	a1,sp,0
 1d2:	0000                	unimp
 1d4:	0030                	addi	a2,sp,8
 1d6:	0000                	unimp
 1d8:	0274                	addi	a3,sp,268
 1da:	0000                	unimp
 1dc:	0008                	addi	a0,sp,0
 1de:	0000                	unimp
 1e0:	000c                	addi	a1,sp,0
 1e2:	0000                	unimp
 1e4:	0030                	addi	a2,sp,8
 1e6:	0000                	unimp
 1e8:	027c                	addi	a5,sp,268
 1ea:	0000                	unimp
 1ec:	0004                	addi	s1,sp,0
 1ee:	0000                	unimp
 1f0:	000c                	addi	a1,sp,0
 1f2:	0000                	unimp
 1f4:	0030                	addi	a2,sp,8
 1f6:	0000                	unimp
 1f8:	0280                	addi	s0,sp,320
 1fa:	0000                	unimp
 1fc:	0004                	addi	s1,sp,0
 1fe:	0000                	unimp
 200:	000c                	addi	a1,sp,0
 202:	0000                	unimp
 204:	0030                	addi	a2,sp,8
 206:	0000                	unimp
 208:	0284                	addi	s1,sp,320
 20a:	0000                	unimp
 20c:	000a                	0xa
 20e:	0000                	unimp
 210:	000c                	addi	a1,sp,0
 212:	0000                	unimp
 214:	0030                	addi	a2,sp,8
 216:	0000                	unimp
 218:	028e                	slli	t0,t0,0x3
 21a:	0000                	unimp
 21c:	000c                	addi	a1,sp,0
 21e:	0000                	unimp
 220:	000c                	addi	a1,sp,0
 222:	0000                	unimp
 224:	0030                	addi	a2,sp,8
 226:	0000                	unimp
 228:	029a                	slli	t0,t0,0x6
 22a:	0000                	unimp
 22c:	000a                	0xa
 22e:	0000                	unimp
 230:	000c                	addi	a1,sp,0
 232:	0000                	unimp
 234:	0030                	addi	a2,sp,8
 236:	0000                	unimp
 238:	02a4                	addi	s1,sp,328
 23a:	0000                	unimp
 23c:	002a                	0x2a
 23e:	0000                	unimp
 240:	000c                	addi	a1,sp,0
 242:	0000                	unimp
 244:	0030                	addi	a2,sp,8
 246:	0000                	unimp
 248:	02ce                	slli	t0,t0,0x13
 24a:	0000                	unimp
 24c:	0008                	addi	a0,sp,0
 24e:	0000                	unimp
 250:	000c                	addi	a1,sp,0
 252:	0000                	unimp
 254:	0030                	addi	a2,sp,8
 256:	0000                	unimp
 258:	02d6                	slli	t0,t0,0x15
 25a:	0000                	unimp
 25c:	0030                	addi	a2,sp,8
	...

Disassembly of section .debug_str:

00000000 <.debug_str>:
   0:	645f 6f73 685f      	0x685f6f73645f
   6:	6e61                	lui	t3,0x18
   8:	6c64                	flw	fs1,92(s0)
   a:	0065                	c.addi	zero,25
   c:	725f 6e61 3464      	0x34646e61725f
  12:	0038                	addi	a4,sp,8
  14:	655f 656d 6772      	0x6772656d655f
  1a:	6e65                	lui	t3,0x19
  1c:	5f007963          	bleu	a6,zero,60e <_reclaim_reent+0x58>
  20:	6164                	flw	fs1,68(a0)
  22:	6174                	flw	fa3,68(a0)
  24:	5f00                	lw	s0,56(a4)
  26:	74726377          	0x74726377
  2a:	5f626d6f          	jal	s10,26620 <__TEST_RODATA_END+0x246ac>
  2e:	74617473          	csrrci	s0,0x746,2
  32:	0065                	c.addi	zero,25
  34:	775f 7363 7472      	0x74727363775f
  3a:	73626d6f          	jal	s10,26770 <__TEST_RODATA_END+0x247fc>
  3e:	735f 6174 6574      	0x65746174735f
  44:	6c00                	flw	fs0,24(s0)
  46:	20676e6f          	jal	t3,7624c <__TEST_RODATA_END+0x742d8>
  4a:	6f6c                	flw	fa1,92(a4)
  4c:	676e                	flw	fa4,216(sp)
  4e:	7520                	flw	fs0,104(a0)
  50:	736e                	flw	ft6,248(sp)
  52:	6769                	lui	a4,0x1a
  54:	656e                	flw	fa0,216(sp)
  56:	2064                	fld	fs1,192(s0)
  58:	6e69                	lui	t3,0x1a
  5a:	0074                	addi	a3,sp,12
  5c:	6c5f 6662 6973      	0x697366626c5f
  62:	657a                	flw	fa0,156(sp)
  64:	4700                	lw	s0,8(a4)
  66:	554e                	lw	a0,240(sp)
  68:	4320                	lw	s0,64(a4)
  6a:	3131                	jal	fffffc76 <pulp__FC+0xfffffc77>
  6c:	3720                	fld	fs0,104(a4)
  6e:	312e                	fld	ft2,232(sp)
  70:	312e                	fld	ft2,232(sp)
  72:	3220                	fld	fs0,96(a2)
  74:	3130                	fld	fa2,96(a0)
  76:	30353037          	lui	zero,0x30353
  7a:	2039                	jal	88 <__boot_address+0x8>
  7c:	6d2d                	lui	s10,0xb
  7e:	7261                	lui	tp,0xffff8
  80:	723d6863          	bltu	s10,gp,7b0 <std.isra.0+0x34>
  84:	3376                	fld	ft6,376(sp)
  86:	6932                	flw	fs2,12(sp)
  88:	636d                	lui	t1,0x1b
  8a:	2d20                	fld	fs0,88(a0)
  8c:	616d                	addi	sp,sp,240
  8e:	6962                	flw	fs2,24(sp)
  90:	693d                	lui	s2,0xf
  92:	706c                	flw	fa1,100(s0)
  94:	2d203233          	0x2d203233
  98:	4f2d2067          	0x4f2d2067
  9c:	5f5f0073          	0x5f5f0073
  a0:	6f6c                	flw	fa1,92(a4)
  a2:	656c6163          	bltu	s8,s6,6e4 <__call_exitprocs+0x22>
  a6:	745f 5f00 626d      	0x626d5f00745f
  ac:	7472                	flw	fs0,60(sp)
  ae:	5f63776f          	jal	a4,376a4 <__TEST_RODATA_END+0x35730>
  b2:	74617473          	csrrci	s0,0x746,2
  b6:	0065                	c.addi	zero,25
  b8:	775f 7463 6d6f      	0x6d6f7463775f
  be:	5f62                	lw	t5,56(sp)
  c0:	74617473          	csrrci	s0,0x746,2
  c4:	0065                	c.addi	zero,25
  c6:	5f5f 6d74 735f      	0x735f6d745f5f
  cc:	6365                	lui	t1,0x19
  ce:	6c00                	flw	fs0,24(s0)
  d0:	20676e6f          	jal	t3,762d6 <__TEST_RODATA_END+0x74362>
  d4:	6f6c                	flw	fa1,92(a4)
  d6:	676e                	flw	fa4,216(sp)
  d8:	6920                	flw	fs0,80(a0)
  da:	746e                	flw	fs0,248(sp)
  dc:	5f00                	lw	s0,56(a4)
  de:	6275                	lui	tp,0x1d
  e0:	6675                	lui	a2,0x1d
  e2:	5f00                	lw	s0,56(a4)
  e4:	6162                	flw	ft2,24(sp)
  e6:	5f006573          	csrrsi	a0,0x5f0,0
  ea:	745f 5f6d 6f68      	0x6f685f6d745f
  f0:	7275                	lui	tp,0xffffd
  f2:	5f00                	lw	s0,56(a4)
  f4:	735f 0066 6f5f      	0x6f5f0066735f
  fa:	5f6e                	lw	t5,248(sp)
  fc:	7865                	lui	a6,0xffff9
  fe:	7469                	lui	s0,0xffffa
 100:	615f 6772 0073      	0x736772615f
 106:	635f 6f6f 696b      	0x696b6f6f635f
 10c:	0065                	c.addi	zero,25
 10e:	5f5f 6773 756c      	0x756c67735f5f
 114:	0065                	c.addi	zero,25
 116:	665f 616c 7367      	0x7367616c665f
 11c:	5f00                	lw	s0,56(a4)
 11e:	7369                	lui	t1,0xffffa
 120:	635f 6178 5f00      	0x5f006178635f
 126:	69647473          	csrrci	s0,0x696,8
 12a:	006e                	0x6e
 12c:	635f 7476 7562      	0x75627476635f
 132:	0066                	0x66
 134:	6f5f 6666 6573      	0x657366666f5f
 13a:	0074                	addi	a3,sp,12
 13c:	6d5f 7362 7472      	0x747273626d5f
 142:	7363776f          	jal	a4,37878 <__TEST_RODATA_END+0x35904>
 146:	735f 6174 6574      	0x65746174735f
 14c:	5f00                	lw	s0,56(a4)
 14e:	626d                	lui	tp,0x1b
 150:	6c72                	flw	fs8,28(sp)
 152:	6e65                	lui	t3,0x19
 154:	735f 6174 6574      	0x65746174735f
 15a:	5f00                	lw	s0,56(a4)
 15c:	6e66                	flw	ft8,88(sp)
 15e:	7261                	lui	tp,0xffff8
 160:	5f007367          	0x5f007367
 164:	6e66                	flw	ft8,88(sp)
 166:	735f0073          	0x735f0073
 16a:	6769                	lui	a4,0x1a
 16c:	006e                	0x6e
 16e:	665f 6f6c 6b63      	0x6b636f6c665f
 174:	745f 5f00 7473      	0x74735f00745f
 17a:	6564                	flw	fs1,76(a0)
 17c:	7272                	flw	ft4,60(sp)
 17e:	5f00                	lw	s0,56(a4)
 180:	6942                	flw	fs2,16(sp)
 182:	746e6967          	0x746e6967
 186:	5f00                	lw	s0,56(a4)
 188:	6d6d6167          	0x6d6d6167
 18c:	5f61                	li	t5,-8
 18e:	6e676973          	csrrsi	s2,0x6e6,14
 192:	006d6167          	0x6d6167
 196:	725f 6165 0064      	0x646165725f
 19c:	725f 7365 6c75      	0x6c757365725f
 1a2:	5f74                	lw	a3,124(a4)
 1a4:	5f5f006b          	0x5f5f006b
 1a8:	6d74                	flw	fa3,92(a0)
 1aa:	5f00                	lw	s0,56(a4)
 1ac:	775f 6863 0062      	0x626863775f
 1b2:	735f 6474 756f      	0x756f6474735f
 1b8:	0074                	addi	a3,sp,12
 1ba:	635f 7476 656c      	0x656c7476635f
 1c0:	006e                	0x6e
 1c2:	665f 6c69 0065      	0x656c69665f
 1c8:	6e5f 6f69 7362      	0x73626f696e5f
 1ce:	7300                	flw	fs0,32(a4)
 1d0:	6f68                	flw	fa0,92(a4)
 1d2:	7472                	flw	fs0,60(sp)
 1d4:	7520                	flw	fs0,104(a0)
 1d6:	736e                	flw	ft6,248(sp)
 1d8:	6769                	lui	a4,0x1a
 1da:	656e                	flw	fa0,216(sp)
 1dc:	2064                	fld	fs1,192(s0)
 1de:	6e69                	lui	t3,0x1a
 1e0:	0074                	addi	a3,sp,12
 1e2:	615f 6574 6978      	0x69786574615f
 1e8:	3074                	fld	fa3,224(s0)
 1ea:	5f00                	lw	s0,56(a4)
 1ec:	6e676973          	csrrsi	s2,0x6e6,14
 1f0:	6c61                	lui	s8,0x18
 1f2:	625f 6675 5f00      	0x5f006675625f
 1f8:	7361                	lui	t1,0xffff8
 1fa:	6d697463          	bleu	s6,s2,8c2 <__sfp+0x40>
 1fe:	5f65                	li	t5,-7
 200:	7562                	flw	fa0,56(sp)
 202:	0066                	0x66
 204:	725f 7365 6c75      	0x6c757365725f
 20a:	0074                	addi	a3,sp,12
 20c:	5f5f 6377 0068      	0x6863775f5f
 212:	616d                	addi	sp,sp,240
 214:	6e69                	lui	t3,0x1a
 216:	632e                	flw	ft6,200(sp)
 218:	7700                	flw	fs0,40(a4)
 21a:	6e69                	lui	t3,0x1a
 21c:	5f74                	lw	a3,124(a4)
 21e:	0074                	addi	a3,sp,12
 220:	6c5f 636f 006b      	0x6b636f6c5f
 226:	665f 616c 7367      	0x7367616c665f
 22c:	0032                	0x32
 22e:	775f 6972 6574      	0x65746972775f
 234:	5f00                	lw	s0,56(a4)
 236:	745f 5f6d 6579      	0x65795f6d745f
 23c:	7261                	lui	tp,0xffff8
 23e:	5f00                	lw	s0,56(a4)
 240:	6d6e                	flw	fs10,216(sp)
 242:	6c61                	lui	s8,0x18
 244:	6f6c                	flw	fa1,92(a4)
 246:	6f6c0063          	beq	s8,s6,926 <__fp_lock_all+0x4>
 24a:	676e                	flw	fa4,216(sp)
 24c:	6420                	flw	fs0,72(s0)
 24e:	6c62756f          	jal	a0,27914 <__TEST_RODATA_END+0x259a0>
 252:	0065                	c.addi	zero,25
 254:	6e5f 7865 6674      	0x667478656e5f
 25a:	5f00                	lw	s0,56(a4)
 25c:	745f 5f6d 6f6d      	0x6f6d5f6d745f
 262:	006e                	0x6e
 264:	615f 6574 6978      	0x69786574615f
 26a:	0074                	addi	a3,sp,12
 26c:	6f627573          	csrrci	a0,0x6f6,4
 270:	7470                	flw	fa2,108(s0)
 272:	7261                	lui	tp,0xffff8
 274:	5f5f0067          	jr	1525(t5) # 25f5 <__TEST_RODATA_END+0x681>
 278:	64696473          	csrrsi	s0,0x646,18
 27c:	6e69                	lui	t3,0x1a
 27e:	7469                	lui	s0,0xffffa
 280:	5f00                	lw	s0,56(a4)
 282:	7266                	flw	ft4,120(sp)
 284:	6565                	lui	a0,0x19
 286:	696c                	flw	fa1,84(a0)
 288:	5f007473          	csrrci	s0,0x5f0,0
 28c:	4f4c                	lw	a1,28(a4)
 28e:	525f4b43          	fmadd.d	fs6,ft10,ft5,fa0,rmm
 292:	4345                	li	t1,17
 294:	5255                	li	tp,-11
 296:	45564953          	0x45564953
 29a:	545f 7500 736e      	0x736e7500545f
 2a0:	6769                	lui	a4,0x1a
 2a2:	656e                	flw	fa0,216(sp)
 2a4:	2064                	fld	fs1,192(s0)
 2a6:	72616863          	bltu	sp,t1,9d6 <_malloc_trim_r+0x98>
 2aa:	5f00                	lw	s0,56(a4)
 2ac:	656e                	flw	fa0,216(sp)
 2ae:	685f0077          	0x685f0077
 2b2:	655f 7272 6f6e      	0x6f6e7272655f
 2b8:	7300                	flw	fs0,32(a4)
 2ba:	6f68                	flw	fa0,92(a4)
 2bc:	7472                	flw	fs0,60(sp)
 2be:	6920                	flw	fs0,80(a0)
 2c0:	746e                	flw	fs0,248(sp)
 2c2:	5f00                	lw	s0,56(a4)
 2c4:	745f 5f6d 6479      	0x64795f6d745f
 2ca:	7961                	lui	s2,0xffff8
 2cc:	5f00                	lw	s0,56(a4)
 2ce:	735f 7562 0066      	0x667562735f
 2d4:	695f 626f 0073      	0x73626f695f
 2da:	5f5f 4946 454c      	0x454c49465f5f
 2e0:	5f00                	lw	s0,56(a4)
 2e2:	626d                	lui	tp,0x1b
 2e4:	74617473          	csrrci	s0,0x746,2
 2e8:	5f65                	li	t5,-7
 2ea:	0074                	addi	a3,sp,12
 2ec:	5f5f 4673 4c49      	0x4c4946735f5f
 2f2:	0045                	c.addi	zero,17
 2f4:	6d5f 7362 6174      	0x617473626d5f
 2fa:	6574                	flw	fa3,76(a0)
 2fc:	5f00                	lw	s0,56(a4)
 2fe:	6172                	flw	ft2,28(sp)
 300:	646e                	flw	fs0,216(sp)
 302:	6e5f 7865 0074      	0x7478656e5f
 308:	6d5f 6c62 6e65      	0x6e656c626d5f
 30e:	735f 6174 6574      	0x65746174735f
 314:	5f00                	lw	s0,56(a4)
 316:	6e69                	lui	t3,0x1a
 318:	695f0063          	beq	t5,s5,998 <_malloc_trim_r+0x5a>
 31c:	646e                	flw	fs0,216(sp)
 31e:	5f00                	lw	s0,56(a4)
 320:	6f6c                	flw	fa1,92(a4)
 322:	656c6163          	bltu	s8,s6,964 <_malloc_trim_r+0x26>
 326:	5f00                	lw	s0,56(a4)
 328:	635f 656c 6e61      	0x6e61656c635f
 32e:	7075                	0x7075
 330:	5f00                	lw	s0,56(a4)
 332:	6e75                	lui	t3,0x1d
 334:	63657073          	csrci	0x636,10
 338:	6669                	lui	a2,0x1a
 33a:	6569                	lui	a0,0x1a
 33c:	5f64                	lw	s1,124(a4)
 33e:	6f6c                	flw	fa1,92(a4)
 340:	656c6163          	bltu	s8,s6,982 <_malloc_trim_r+0x44>
 344:	695f 666e 006f      	0x6f666e695f
 34a:	6d5f 7861 6477      	0x647778616d5f
 350:	725f0073          	0x725f0073
 354:	6565                	lui	a0,0x19
 356:	746e                	flw	fs0,248(sp)
 358:	5f00                	lw	s0,56(a4)
 35a:	64656573          	csrrsi	a0,0x646,10
 35e:	5f00                	lw	s0,56(a4)
 360:	635f 756f 746e      	0x746e756f635f
 366:	5f00                	lw	s0,56(a4)
 368:	765f 6c61 6575      	0x65756c61765f
 36e:	5f00                	lw	s0,56(a4)
 370:	6b656573          	csrrsi	a0,0x6b6,10
 374:	5f00                	lw	s0,56(a4)
 376:	7066                	flw	ft0,120(sp)
 378:	745f736f          	jal	t1,f82bc <__TEST_RODATA_END+0xf6348>
 37c:	2f00                	fld	fs0,24(a4)
 37e:	6f68                	flw	fa0,92(a4)
 380:	656d                	lui	a0,0x1b
 382:	3832732f          	0x3832732f
 386:	3931                	jal	ffffffa2 <pulp__FC+0xffffffa3>
 388:	3631                	jal	fffffe94 <pulp__FC+0xfffffe95>
 38a:	7369722f          	0x7369722f
 38e:	745f7663          	bleu	t0,t5,ada <_free_r+0xe4>
 392:	7365                	lui	t1,0xffff9
 394:	6974                	flw	fa3,84(a0)
 396:	676e                	flw	fa4,216(sp)
 398:	325f 3230 2f31      	0x2f313230325f
 39e:	74736273          	csrrsi	tp,0x747,6
 3a2:	5f00                	lw	s0,56(a4)
 3a4:	745f 5f6d 696d      	0x696d5f6d745f
 3aa:	006e                	0x6e
 3ac:	6d5f 6c75 0074      	0x746c756d5f
 3b2:	735f 7274 6f74      	0x6f747274735f
 3b8:	616c5f6b          	0x616c5f6b
 3bc:	5f007473          	csrrci	s0,0x5f0,0
 3c0:	6e66                	flw	ft8,88(sp)
 3c2:	7974                	flw	fa3,116(a0)
 3c4:	6570                	flw	fa2,76(a0)
 3c6:	615f0073          	0x615f0073
 3ca:	6464                	flw	fs1,76(s0)
 3cc:	5f00                	lw	s0,56(a4)
 3ce:	555f 6f4c 676e      	0x676e6f4c555f
 3d4:	5f00                	lw	s0,56(a4)
 3d6:	64746567          	0x64746567
 3da:	7461                	lui	s0,0xffff8
 3dc:	5f65                	li	t5,-7
 3de:	7265                	lui	tp,0xffff9
 3e0:	0072                	0x72
 3e2:	675f 6f6c 6162      	0x61626f6c675f
 3e8:	5f6c                	lw	a1,124(a4)
 3ea:	6d69                	lui	s10,0x1a
 3ec:	7570                	flw	fa2,108(a0)
 3ee:	6572                	flw	fa0,28(sp)
 3f0:	705f 7274 6100      	0x61007274705f
 3f6:	6772                	flw	fa4,28(sp)
 3f8:	0076                	0x76
 3fa:	755f 756e 6573      	0x6573756e755f
 400:	5f64                	lw	s1,124(a4)
 402:	6172                	flw	ft2,28(sp)
 404:	646e                	flw	fs0,216(sp)
 406:	5f00                	lw	s0,56(a4)
 408:	00736477          	0x736477
 40c:	5f5f 6d74 775f      	0x775f6d745f5f
 412:	6164                	flw	fs1,68(a0)
 414:	0079                	c.addi	zero,30
 416:	675f 756c 0065      	0x65756c675f
 41c:	735f 6973 657a      	0x657a6973735f
 422:	745f 5f00 366c      	0x366c5f00745f
 428:	6134                	flw	fa3,64(a0)
 42a:	625f 6675 5f00      	0x5f006675625f
 430:	5f676973          	csrrsi	s2,0x5f6,14
 434:	7566                	flw	fa0,120(sp)
 436:	636e                	flw	ft6,216(sp)
 438:	5f00                	lw	s0,56(a4)
 43a:	626e                	flw	ft4,216(sp)
 43c:	6675                	lui	a2,0x1d
 43e:	5f00                	lw	s0,56(a4)
 440:	6e75                	lui	t3,0x1d
 442:	7375                	lui	t1,0xffffd
 444:	6465                	lui	s0,0x19
 446:	6100                	flw	fs0,0(a0)
 448:	6772                	flw	fa4,28(sp)
 44a:	5f5f0063          	beq	t5,s5,a2a <_free_r+0x34>
 44e:	6d74                	flw	fa3,92(a0)
 450:	695f 6473 7473      	0x74736473695f
 456:	5f00                	lw	s0,56(a4)
 458:	6f6c                	flw	fa1,92(a4)
 45a:	746c6163          	bltu	s8,t1,b9c <__sfvwrite_r+0x8>
 45e:	6d69                	lui	s10,0x1a
 460:	5f65                	li	t5,-7
 462:	7562                	flw	fa0,56(sp)
 464:	0066                	0x66
 466:	635f 6f6c 6573      	0x65736f6c635f
 46c:	5f00                	lw	s0,56(a4)
 46e:	3472                	fld	fs0,312(sp)
 470:	0038                	addi	a4,sp,8
 472:	6d5f 7462 776f      	0x776f74626d5f
 478:	74735f63          	ble	t2,t1,bd6 <__sfvwrite_r+0x42>
 47c:	7461                	lui	s0,0xffff8
 47e:	0065                	c.addi	zero,25
 480:	705f 7335 6d00      	0x6d007335705f
 486:	6961                	lui	s2,0x18
 488:	006e                	0x6e
 48a:	5f5f 6d74 6d5f      	0x6d5f6d745f5f
 490:	6164                	flw	fs1,68(a0)
 492:	0079                	c.addi	zero,30
 494:	5f5f 6568 7061      	0x706165685f5f
 49a:	655f 646e 5f00      	0x5f00646e655f
 4a0:	7475                	lui	s0,0xffffd
 4a2:	6d69                	lui	s10,0x1a
 4a4:	0065                	c.addi	zero,25
 4a6:	6f5f 6570 006e      	0x6e65706f5f
 4ac:	645f 7961 696c      	0x696c7961645f
 4b2:	00746867          	0x746867
 4b6:	6f74706f          	j	483ac <__TEST_RODATA_END+0x46438>
 4ba:	7470                	flw	fa2,108(s0)
 4bc:	5f00                	lw	s0,56(a4)
 4be:	685f 6165 5f70      	0x5f706165685f
 4c4:	72617473          	csrrci	s0,0x726,2
 4c8:	0074                	addi	a3,sp,12
 4ca:	625f7473          	csrrci	s0,0x625,30
 4ce:	6b6c                	flw	fa1,84(a4)
 4d0:	657a6973          	csrrsi	s2,0x657,20
 4d4:	5f00                	lw	s0,56(a4)
 4d6:	6974                	flw	fa3,84(a0)
 4d8:	656d                	lui	a0,0x1b
 4da:	655f0073          	0x655f0073
 4de:	6578                	flw	fa4,76(a0)
 4e0:	00657663          	bleu	t1,a0,4ec <memset+0x76>
 4e4:	675f 7465 6974      	0x69747465675f
 4ea:	656d                	lui	a0,0x1b
 4ec:	6164666f          	jal	a2,46b02 <__TEST_RODATA_END+0x44b8e>
 4f0:	0079                	c.addi	zero,30
 4f2:	5f5f 6c6e 6e69      	0x6e696c6e5f5f
 4f8:	00745f6b          	0x745f6b
 4fc:	735f 7379 6e5f      	0x6e5f7379735f
 502:	7265                	lui	tp,0xffff9
 504:	0072                	0x72
 506:	7172                	flw	ft2,60(sp)
 508:	7074                	flw	fa3,100(s0)
 50a:	6f00                	flw	fs0,24(a4)
 50c:	646c                	flw	fa1,76(s0)
 50e:	625f 6b72 5f00      	0x5f006b72625f
 514:	695f 6f6e 745f      	0x745f6f6e695f
 51a:	5f00                	lw	s0,56(a4)
 51c:	736c                	flw	fa1,100(a4)
 51e:	6174                	flw	fa3,68(a0)
 520:	0074                	addi	a3,sp,12
 522:	755f 6c6e 6e69      	0x6e696c6e755f
 528:	6d72006b          	0x6d72006b
 52c:	7074                	flw	fa3,100(s0)
 52e:	5f00                	lw	s0,56(a4)
 530:	7466                	flw	fs0,120(sp)
 532:	6d69                	lui	s10,0x1a
 534:	0065                	c.addi	zero,25
 536:	6574706f          	j	4838c <__TEST_RODATA_END+0x46418>
 53a:	7272                	flw	ft4,60(sp)
 53c:	6600                	flw	fs0,8(a2)
 53e:	74617473          	csrrci	s0,0x746,2
 542:	7300                	flw	fs0,32(a4)
 544:	5f74                	lw	a3,124(a4)
 546:	6c62                	flw	fs8,24(sp)
 548:	736b636f          	jal	t1,b6c7e <__TEST_RODATA_END+0xb4d0a>
 54c:	7300                	flw	fs0,32(a4)
 54e:	5f74                	lw	a3,124(a4)
 550:	746d                	lui	s0,0xffffb
 552:	6d69                	lui	s10,0x1a
 554:	0065                	c.addi	zero,25
 556:	63737973          	csrrci	s2,0x637,6
 55a:	6c61                	lui	s8,0x18
 55c:	736c                	flw	fa1,100(a4)
 55e:	632e                	flw	ft6,200(sp)
 560:	7300                	flw	fs0,32(a4)
 562:	7262                	flw	ft4,56(sp)
 564:	776f006b          	0x776f006b
 568:	656e                	flw	fa0,216(sp)
 56a:	0072                	0x72
 56c:	636f6c63          	bltu	t5,s6,ba4 <__sfvwrite_r+0x10>
 570:	00745f6b          	0x745f6b
 574:	675f 7465 6970      	0x69707465675f
 57a:	0064                	addi	s1,sp,12
 57c:	6974                	flw	fa3,84(a0)
 57e:	656d                	lui	a0,0x1b
 580:	6176                	flw	ft2,92(sp)
 582:	006c                	addi	a1,sp,12
 584:	665f 726f 006b      	0x6b726f665f
 58a:	645f7473          	csrrci	s0,0x645,30
 58e:	7665                	lui	a2,0xffff9
 590:	7400                	flw	fs0,40(s0)
 592:	5f76                	lw	t5,124(sp)
 594:	736e                	flw	ft6,248(sp)
 596:	6365                	lui	t1,0x19
 598:	5f00                	lw	s0,56(a4)
 59a:	6d5f 646f 5f65      	0x5f65646f6d5f
 5a0:	0074                	addi	a3,sp,12
 5a2:	675f7473          	csrrci	s0,0x675,30
 5a6:	6469                	lui	s0,0x1a
 5a8:	7300                	flw	fs0,32(a4)
 5aa:	5f74                	lw	a3,124(a4)
 5ac:	6f6d                	lui	t5,0x1b
 5ae:	6564                	flw	fs1,76(a0)
 5b0:	7400                	flw	fs0,40(s0)
 5b2:	5f76                	lw	t5,124(sp)
 5b4:	7375                	lui	t1,0xffffd
 5b6:	6365                	lui	t1,0x19
 5b8:	6e00                	flw	fs0,24(a2)
 5ba:	7765                	lui	a4,0xffff9
 5bc:	6e5f 6d61 0065      	0x656d616e5f
 5c2:	6e5f7473          	csrrci	s0,0x6e5,30
 5c6:	696c                	flw	fa1,84(a0)
 5c8:	6b6e                	flw	fs6,216(sp)
 5ca:	7000                	flw	fs0,32(s0)
 5cc:	7461                	lui	s0,0xffff8
 5ce:	0068                	addi	a0,sp,12
 5d0:	745f 6e7a 6d61      	0x6d616e7a745f
 5d6:	0065                	c.addi	zero,25
 5d8:	6e69                	lui	t3,0x1a
 5da:	5f007263          	bleu	a6,zero,bbe <__sfvwrite_r+0x2a>
 5de:	696c                	flw	fa1,84(a0)
 5e0:	6b6e                	flw	fs6,216(sp)
 5e2:	7400                	flw	fs0,40(s0)
 5e4:	6d69                	lui	s10,0x1a
 5e6:	7365                	lui	t1,0xffff9
 5e8:	6570                	flw	fa2,76(a0)
 5ea:	6b5f0063          	beq	t5,s5,c8a <__sfvwrite_r+0xf6>
 5ee:	6c69                	lui	s8,0x1a
 5f0:	006c                	addi	a1,sp,12
 5f2:	7470                	flw	fa2,108(s0)
 5f4:	6472                	flw	fs0,28(sp)
 5f6:	6669                	lui	a2,0x1a
 5f8:	5f66                	lw	t5,120(sp)
 5fa:	0074                	addi	a3,sp,12
 5fc:	635f 6f68 6e77      	0x6e776f68635f
 602:	7300                	flw	fs0,32(a4)
 604:	5f74                	lw	a3,124(a4)
 606:	6975                	lui	s2,0x1d
 608:	0064                	addi	s1,sp,12
 60a:	6e65                	lui	t3,0x19
 60c:	6976                	flw	fs2,92(sp)
 60e:	6f72                	flw	ft10,28(sp)
 610:	006e                	0x6e
 612:	615f7473          	csrrci	s0,0x615,30
 616:	6974                	flw	fa3,84(a0)
 618:	656d                	lui	a0,0x1b
 61a:	7400                	flw	fs0,40(s0)
 61c:	6d69                	lui	s10,0x1a
 61e:	5f65                	li	t5,-7
 620:	0074                	addi	a3,sp,12
 622:	695f7473          	csrrci	s0,0x695,30
 626:	6f6e                	flw	ft10,216(sp)
 628:	5f00                	lw	s0,56(a4)
 62a:	6974                	flw	fa3,84(a0)
 62c:	656d                	lui	a0,0x1b
 62e:	6f7a                	flw	ft10,156(sp)
 630:	656e                	flw	fa0,216(sp)
 632:	5f00                	lw	s0,56(a4)
 634:	7366                	flw	ft6,120(sp)
 636:	6174                	flw	fa3,68(a0)
 638:	6174                	flw	fa3,68(a0)
 63a:	0074                	addi	a3,sp,12
 63c:	5f5f 6564 5f76      	0x5f7665645f5f
 642:	0074                	addi	a3,sp,12
 644:	6974706f          	j	484da <__TEST_RODATA_END+0x46566>
 648:	646e                	flw	fs0,216(sp)
 64a:	5f00                	lw	s0,56(a4)
 64c:	6361                	lui	t1,0x18
 64e:	73736563          	bltu	t1,s7,d78 <__sfvwrite_r+0x1e4>
 652:	6f00                	flw	fs0,24(a4)
 654:	646c                	flw	fa1,76(s0)
 656:	6e5f 6d61 0065      	0x656d616e5f
 65c:	735f7473          	csrrci	s0,0x735,30
 660:	6170                	flw	fa2,68(a0)
 662:	6572                	flw	fa0,28(sp)
 664:	0031                	c.addi	zero,12
 666:	735f7473          	csrrci	s0,0x735,30
 66a:	6170                	flw	fa2,68(a0)
 66c:	6572                	flw	fa0,28(sp)
 66e:	0032                	0x32
 670:	735f7473          	csrrci	s0,0x735,30
 674:	6170                	flw	fa2,68(a0)
 676:	6572                	flw	fa0,28(sp)
 678:	74730033          	0x74730033
 67c:	735f 6170 6572      	0x65726170735f
 682:	0034                	addi	a3,sp,8
 684:	5f5f 6967 5f64      	0x5f6469675f5f
 68a:	0074                	addi	a3,sp,12
 68c:	665f 6361 6563      	0x65636361665f
 692:	74617373          	csrrci	t1,0x746,2
 696:	6700                	flw	fs0,8(a4)
 698:	6f72                	flw	ft10,28(sp)
 69a:	7075                	0x7075
 69c:	6c00                	flw	fs0,24(s0)
 69e:	6b656573          	csrrsi	a0,0x6b6,10
 6a2:	6900                	flw	fs0,16(a0)
 6a4:	74746173          	csrrsi	sp,0x747,8
 6a8:	0079                	c.addi	zero,30
 6aa:	735f 6174 0074      	0x746174735f
 6b0:	6964                	flw	fs1,84(a0)
 6b2:	6672                	flw	fa2,28(sp)
 6b4:	0064                	addi	s1,sp,12
 6b6:	7274706f          	j	485dc <__TEST_RODATA_END+0x46668>
 6ba:	7365                	lui	t1,0xffff9
 6bc:	7465                	lui	s0,0xffff9
 6be:	5f00                	lw	s0,56(a4)
 6c0:	63737973          	csrrci	s2,0x637,6
 6c4:	00666e6f          	jal	t3,666ca <__TEST_RODATA_END+0x64756>
 6c8:	655f 6978 0074      	0x746978655f
 6ce:	675f 7465 7763      	0x77637465675f
 6d4:	0064                	addi	s1,sp,12
 6d6:	5f5f 6c62 736b      	0x736b6c625f5f
 6dc:	7a69                	lui	s4,0xffffa
 6de:	5f65                	li	t5,-7
 6e0:	0074                	addi	a3,sp,12
 6e2:	6e75                	lui	t3,0x1d
 6e4:	6d69                	lui	s10,0x1a
 6e6:	6c70                	flw	fa2,92(s0)
 6e8:	6d65                	lui	s10,0x19
 6ea:	6e65                	lui	t3,0x19
 6ec:	6574                	flw	fa3,76(a0)
 6ee:	5f64                	lw	s1,124(a4)
 6f0:	63737973          	csrrci	s2,0x637,6
 6f4:	6c61                	lui	s8,0x18
 6f6:	006c                	addi	a1,sp,12
 6f8:	5f5f 6975 5f64      	0x5f6469755f5f
 6fe:	0074                	addi	a3,sp,12
 700:	635f7473          	csrrci	s0,0x635,30
 704:	6974                	flw	fa3,84(a0)
 706:	656d                	lui	a0,0x1b
 708:	5f00                	lw	s0,56(a4)
 70a:	6f6d6863          	bltu	s10,s6,dfa <__sfvwrite_r+0x266>
 70e:	0064                	addi	s1,sp,12
 710:	7674                	flw	fa3,108(a2)
 712:	735f 6365 5f00      	0x5f006365735f
 718:	69646863          	bltu	s0,s6,da8 <__sfvwrite_r+0x214>
 71c:	0072                	0x72
 71e:	5f5f 6975 746e      	0x746e69755f5f
 724:	745f3233          	0x745f3233
 728:	7500                	flw	fs0,40(a0)
 72a:	6974                	flw	fa3,84(a0)
 72c:	626d                	lui	tp,0x1b
 72e:	6675                	lui	a2,0x1d
 730:	5f00                	lw	s0,56(a4)
 732:	735f 7375 6365      	0x63657375735f
 738:	73646e6f          	jal	t3,46e6e <__TEST_RODATA_END+0x44efa>
 73c:	745f 5f00 706f      	0x706f5f00745f
 742:	6e65                	lui	t3,0x19
 744:	7461                	lui	s0,0xffff8
 746:	6100                	flw	fs0,0(a0)
 748:	6464                	flw	fs1,76(s0)
 74a:	0072                	0x72
 74c:	735f7473          	csrrci	s0,0x735,30
 750:	7a69                	lui	s4,0xffffa
 752:	0065                	c.addi	zero,25
 754:	5f5f 666f 5f66      	0x5f66666f5f5f
 75a:	0074                	addi	a3,sp,12
 75c:	735f 7379 655f      	0x655f7379735f
 762:	7272                	flw	ft4,60(sp)
 764:	696c                	flw	fa1,84(a0)
 766:	65007473          	csrrci	s0,0x650,0
 76a:	6978                	flw	fa4,84(a0)
 76c:	5f74                	lw	a3,124(a4)
 76e:	74617473          	csrrci	s0,0x746,2
 772:	7375                	lui	t1,0xffffd
 774:	5f00                	lw	s0,56(a4)
 776:	625f 6b6c 6e63      	0x6e636b6c625f
 77c:	5f74                	lw	a3,124(a4)
 77e:	0074                	addi	a3,sp,12
 780:	6974                	flw	fa3,84(a0)
 782:	656d                	lui	a0,0x1b
 784:	0062                	0x62
 786:	616e                	flw	ft2,216(sp)
 788:	6f6e                	flw	ft10,216(sp)
 78a:	65656c73          	csrrsi	s8,0x656,10
 78e:	0070                	addi	a2,sp,12
 790:	725f7473          	csrrci	s0,0x725,30
 794:	6564                	flw	fs1,76(a0)
 796:	0076                	0x76
 798:	775f 6961 0074      	0x746961775f
 79e:	7065                	0x7065
 7a0:	7274                	flw	fa3,100(a2)
	...

Disassembly of section .debug_loc:

00000000 <.debug_loc>:
   0:	010a                	slli	sp,sp,0x2
   2:	0000                	unimp
   4:	014c                	addi	a1,sp,132
   6:	0000                	unimp
   8:	0001                	nop
   a:	4c5a                	lw	s8,148(sp)
   c:	0001                	nop
   e:	7200                	flw	fs0,32(a2)
  10:	0001                	nop
  12:	0400                	addi	s0,sp,512
  14:	f300                	fsw	fs0,32(a4)
  16:	5a01                	li	s4,-32
  18:	009f 0000 0000      	0x9f
  1e:	0000                	unimp
  20:	0a00                	addi	s0,sp,272
  22:	0001                	nop
  24:	4c00                	lw	s0,24(s0)
  26:	0001                	nop
  28:	0100                	addi	s0,sp,128
  2a:	5b00                	lw	s0,48(a4)
  2c:	014c                	addi	a1,sp,132
  2e:	0000                	unimp
  30:	0172                	slli	sp,sp,0x1c
  32:	0000                	unimp
  34:	0004                	addi	s1,sp,0
  36:	9f5b01f3          	0x9f5b01f3
	...
  42:	0144                	addi	s1,sp,132
  44:	0000                	unimp
  46:	014c                	addi	a1,sp,132
  48:	0000                	unimp
  4a:	0002                	0x2
  4c:	9f30                	0x9f30
  4e:	014c                	addi	a1,sp,132
  50:	0000                	unimp
  52:	0172                	slli	sp,sp,0x1c
  54:	0000                	unimp
  56:	0001                	nop
  58:	005f 0000 0000      	0x5f
  5e:	0000                	unimp
  60:	6400                	flw	fs0,8(s0)
  62:	0001                	nop
  64:	8800                	0x8800
  66:	0001                	nop
  68:	0100                	addi	s0,sp,128
  6a:	5a00                	lw	s0,48(a2)
  6c:	0188                	addi	a0,sp,192
  6e:	0000                	unimp
  70:	018a                	slli	gp,gp,0x2
  72:	0000                	unimp
  74:	0004                	addi	s1,sp,0
  76:	9f5a01f3          	0x9f5a01f3
  7a:	018a                	slli	gp,gp,0x2
  7c:	0000                	unimp
  7e:	0194                	addi	a3,sp,192
  80:	0000                	unimp
  82:	0001                	nop
  84:	005a                	0x5a
  86:	0000                	unimp
  88:	0000                	unimp
  8a:	0000                	unimp
  8c:	7000                	flw	fs0,32(s0)
  8e:	0001                	nop
  90:	8600                	0x8600
  92:	0001                	nop
  94:	0100                	addi	s0,sp,128
  96:	5c00                	lw	s0,56(s0)
  98:	018a                	slli	gp,gp,0x2
  9a:	0000                	unimp
  9c:	0192                	slli	gp,gp,0x4
  9e:	0000                	unimp
  a0:	0001                	nop
  a2:	925c                	0x925c
  a4:	0001                	nop
  a6:	9400                	0x9400
  a8:	0001                	nop
  aa:	0500                	addi	s0,sp,640
  ac:	0300                	addi	s0,sp,384
  ae:	0838                	addi	a4,sp,24
  b0:	0020                	addi	s0,sp,8
	...
  ba:	015c                	addi	a5,sp,132
  bc:	0000                	unimp
  be:	0162                	slli	sp,sp,0x18
  c0:	0000                	unimp
  c2:	0001                	nop
  c4:	625a                	flw	ft4,148(sp)
  c6:	0001                	nop
  c8:	6400                	flw	fs0,8(s0)
  ca:	0001                	nop
  cc:	0500                	addi	s0,sp,640
  ce:	0300                	addi	s0,sp,384
  d0:	0838                	addi	a4,sp,24
  d2:	0020                	addi	s0,sp,8
	...
  dc:	0132                	slli	sp,sp,0xc
  de:	0000                	unimp
  e0:	014a                	slli	sp,sp,0x12
  e2:	0000                	unimp
  e4:	0001                	nop
  e6:	4a5a                	lw	s4,148(sp)
  e8:	0001                	nop
  ea:	4c00                	lw	s0,24(s0)
  ec:	0001                	nop
  ee:	0400                	addi	s0,sp,512
  f0:	f300                	fsw	fs0,32(a4)
  f2:	5a01                	li	s4,-32
  f4:	4c9f 0001 5a00      	0x5a0000014c9f
  fa:	0001                	nop
  fc:	0100                	addi	s0,sp,128
  fe:	5a00                	lw	s0,48(a2)
 100:	015a                	slli	sp,sp,0x16
 102:	0000                	unimp
 104:	015c                	addi	a5,sp,132
 106:	0000                	unimp
 108:	0004                	addi	s1,sp,0
 10a:	9f5a01f3          	0x9f5a01f3
	...
 116:	0132                	slli	sp,sp,0xc
 118:	0000                	unimp
 11a:	014e                	slli	sp,sp,0x13
 11c:	0000                	unimp
 11e:	0001                	nop
 120:	00014e5b          	p.mac.zl.zl	t3,sp,zero,zero
 124:	5c00                	lw	s0,56(s0)
 126:	0001                	nop
 128:	0100                	addi	s0,sp,128
 12a:	5b00                	lw	s0,48(a4)
	...
 134:	0128                	addi	a0,sp,136
 136:	0000                	unimp
 138:	0130                	addi	a2,sp,136
 13a:	0000                	unimp
 13c:	0001                	nop
 13e:	305a                	fld	ft0,432(sp)
 140:	0001                	nop
 142:	3200                	fld	fs0,32(a2)
 144:	0001                	nop
 146:	0400                	addi	s0,sp,512
 148:	f300                	fsw	fs0,32(a4)
 14a:	5a01                	li	s4,-32
 14c:	009f 0000 0000      	0x9f
 152:	0000                	unimp
 154:	1200                	addi	s0,sp,288
 156:	0001                	nop
 158:	1a00                	addi	s0,sp,304
 15a:	0001                	nop
 15c:	0100                	addi	s0,sp,128
 15e:	5a00                	lw	s0,48(a2)
 160:	011a                	slli	sp,sp,0x6
 162:	0000                	unimp
 164:	011c                	addi	a5,sp,128
 166:	0000                	unimp
 168:	0004                	addi	s1,sp,0
 16a:	9f5a01f3          	0x9f5a01f3
	...
 176:	010e                	slli	sp,sp,0x3
 178:	0000                	unimp
 17a:	0110                	addi	a2,sp,128
 17c:	0000                	unimp
 17e:	0001                	nop
 180:	105a                	0x105a
 182:	0001                	nop
 184:	1200                	addi	s0,sp,288
 186:	0001                	nop
 188:	0400                	addi	s0,sp,512
 18a:	f300                	fsw	fs0,32(a4)
 18c:	5a01                	li	s4,-32
 18e:	009f 0000 0000      	0x9f
 194:	0000                	unimp
 196:	0a00                	addi	s0,sp,272
 198:	0001                	nop
 19a:	0c00                	addi	s0,sp,528
 19c:	0001                	nop
 19e:	0100                	addi	s0,sp,128
 1a0:	5a00                	lw	s0,48(a2)
 1a2:	010c                	addi	a1,sp,128
 1a4:	0000                	unimp
 1a6:	010e                	slli	sp,sp,0x3
 1a8:	0000                	unimp
 1aa:	0004                	addi	s1,sp,0
 1ac:	9f5a01f3          	0x9f5a01f3
	...
 1b8:	0102                	slli	sp,sp,0x0
 1ba:	0000                	unimp
 1bc:	0108                	addi	a0,sp,128
 1be:	0000                	unimp
 1c0:	0001                	nop
 1c2:	085a                	slli	a6,a6,0x16
 1c4:	0001                	nop
 1c6:	0a00                	addi	s0,sp,272
 1c8:	0001                	nop
 1ca:	0400                	addi	s0,sp,512
 1cc:	f300                	fsw	fs0,32(a4)
 1ce:	5a01                	li	s4,-32
 1d0:	009f 0000 0000      	0x9f
 1d6:	0000                	unimp
 1d8:	fe00                	fsw	fs0,56(a2)
 1da:	0000                	unimp
 1dc:	0000                	unimp
 1de:	0001                	nop
 1e0:	0100                	addi	s0,sp,128
 1e2:	5a00                	lw	s0,48(a2)
 1e4:	0100                	addi	s0,sp,128
 1e6:	0000                	unimp
 1e8:	0102                	slli	sp,sp,0x0
 1ea:	0000                	unimp
 1ec:	0004                	addi	s1,sp,0
 1ee:	9f5a01f3          	0x9f5a01f3
	...
 1fa:	00ee                	slli	ra,ra,0x1b
 1fc:	0000                	unimp
 1fe:	00f0                	addi	a2,sp,76
 200:	0000                	unimp
 202:	0001                	nop
 204:	f05a                	fsw	fs6,32(sp)
 206:	0000                	unimp
 208:	f200                	fsw	fs0,32(a2)
 20a:	0000                	unimp
 20c:	0400                	addi	s0,sp,512
 20e:	f300                	fsw	fs0,32(a4)
 210:	5a01                	li	s4,-32
 212:	009f 0000 0000      	0x9f
 218:	0000                	unimp
 21a:	de00                	sw	s0,56(a2)
 21c:	0000                	unimp
 21e:	e000                	fsw	fs0,0(s0)
 220:	0000                	unimp
 222:	0100                	addi	s0,sp,128
 224:	5a00                	lw	s0,48(a2)
 226:	00e0                	addi	s0,sp,76
 228:	0000                	unimp
 22a:	00e2                	slli	ra,ra,0x18
 22c:	0000                	unimp
 22e:	0004                	addi	s1,sp,0
 230:	9f5a01f3          	0x9f5a01f3
	...
 23c:	00d4                	addi	a3,sp,68
 23e:	0000                	unimp
 240:	00dc                	addi	a5,sp,68
 242:	0000                	unimp
 244:	0001                	nop
 246:	dc5a                	sw	s6,56(sp)
 248:	0000                	unimp
 24a:	de00                	sw	s0,56(a2)
 24c:	0000                	unimp
 24e:	0400                	addi	s0,sp,512
 250:	f300                	fsw	fs0,32(a4)
 252:	5a01                	li	s4,-32
 254:	009f 0000 0000      	0x9f
 25a:	0000                	unimp
 25c:	ca00                	sw	s0,16(a2)
 25e:	0000                	unimp
 260:	d200                	sw	s0,32(a2)
 262:	0000                	unimp
 264:	0100                	addi	s0,sp,128
 266:	5a00                	lw	s0,48(a2)
 268:	00d2                	slli	ra,ra,0x14
 26a:	0000                	unimp
 26c:	00d4                	addi	a3,sp,68
 26e:	0000                	unimp
 270:	0004                	addi	s1,sp,0
 272:	9f5a01f3          	0x9f5a01f3
	...
 27e:	00c2                	slli	ra,ra,0x10
 280:	0000                	unimp
 282:	00c4                	addi	s1,sp,68
 284:	0000                	unimp
 286:	0001                	nop
 288:	c45a                	sw	s6,8(sp)
 28a:	0000                	unimp
 28c:	c800                	sw	s0,16(s0)
 28e:	0000                	unimp
 290:	0300                	addi	s0,sp,384
 292:	7a00                	flw	fs0,48(a2)
 294:	9f01                	0x9f01
 296:	00c8                	addi	a0,sp,68
 298:	0000                	unimp
 29a:	00ca                	slli	ra,ra,0x12
 29c:	0000                	unimp
 29e:	0004                	addi	s1,sp,0
 2a0:	9f5a01f3          	0x9f5a01f3
	...
 2ac:	00b6                	slli	ra,ra,0xd
 2ae:	0000                	unimp
 2b0:	00c0                	addi	s0,sp,68
 2b2:	0000                	unimp
 2b4:	0001                	nop
 2b6:	c05a                	sw	s6,0(sp)
 2b8:	0000                	unimp
 2ba:	c200                	sw	s0,0(a2)
 2bc:	0000                	unimp
 2be:	0400                	addi	s0,sp,512
 2c0:	f300                	fsw	fs0,32(a4)
 2c2:	5a01                	li	s4,-32
 2c4:	009f 0000 0000      	0x9f
 2ca:	0000                	unimp
 2cc:	a600                	fsd	fs0,8(a2)
 2ce:	0000                	unimp
 2d0:	b000                	fsd	fs0,32(s0)
 2d2:	0000                	unimp
 2d4:	0100                	addi	s0,sp,128
 2d6:	5a00                	lw	s0,48(a2)
 2d8:	00b0                	addi	a2,sp,72
 2da:	0000                	unimp
 2dc:	00b2                	slli	ra,ra,0xc
 2de:	0000                	unimp
 2e0:	0004                	addi	s1,sp,0
 2e2:	9f5a01f3          	0x9f5a01f3
	...
 2ee:	008e                	slli	ra,ra,0x3
 2f0:	0000                	unimp
 2f2:	0098                	addi	a4,sp,64
 2f4:	0000                	unimp
 2f6:	0001                	nop
 2f8:	985a                	add	a6,a6,s6
 2fa:	0000                	unimp
 2fc:	9a00                	0x9a00
 2fe:	0000                	unimp
 300:	0400                	addi	s0,sp,512
 302:	f300                	fsw	fs0,32(a4)
 304:	5a01                	li	s4,-32
 306:	009f 0000 0000      	0x9f
 30c:	0000                	unimp
 30e:	8600                	0x8600
 310:	0000                	unimp
 312:	8c00                	0x8c00
 314:	0000                	unimp
 316:	0100                	addi	s0,sp,128
 318:	5a00                	lw	s0,48(a2)
 31a:	008c                	addi	a1,sp,64
 31c:	0000                	unimp
 31e:	008e                	slli	ra,ra,0x3
 320:	0000                	unimp
 322:	0004                	addi	s1,sp,0
 324:	9f5a01f3          	0x9f5a01f3
	...
 330:	005a                	0x5a
 332:	0000                	unimp
 334:	0062                	0x62
 336:	0000                	unimp
 338:	0001                	nop
 33a:	625a                	flw	ft4,148(sp)
 33c:	0000                	unimp
 33e:	6400                	flw	fs0,8(s0)
 340:	0000                	unimp
 342:	0400                	addi	s0,sp,512
 344:	f300                	fsw	fs0,32(a4)
 346:	5a01                	li	s4,-32
 348:	009f 0000 0000      	0x9f
 34e:	0000                	unimp
 350:	5600                	lw	s0,40(a2)
 352:	0000                	unimp
 354:	5800                	lw	s0,48(s0)
 356:	0000                	unimp
 358:	0100                	addi	s0,sp,128
 35a:	5a00                	lw	s0,48(a2)
 35c:	0058                	addi	a4,sp,4
 35e:	0000                	unimp
 360:	005a                	0x5a
 362:	0000                	unimp
 364:	0004                	addi	s1,sp,0
 366:	9f5a01f3          	0x9f5a01f3
	...
 372:	004a                	0x4a
 374:	0000                	unimp
 376:	0054                	addi	a3,sp,4
 378:	0000                	unimp
 37a:	0001                	nop
 37c:	545a                	lw	s0,180(sp)
 37e:	0000                	unimp
 380:	5600                	lw	s0,40(a2)
 382:	0000                	unimp
 384:	0400                	addi	s0,sp,512
 386:	f300                	fsw	fs0,32(a4)
 388:	5a01                	li	s4,-32
 38a:	009f 0000 0000      	0x9f
 390:	0000                	unimp
 392:	3e00                	fld	fs0,56(a2)
 394:	0000                	unimp
 396:	4800                	lw	s0,16(s0)
 398:	0000                	unimp
 39a:	0100                	addi	s0,sp,128
 39c:	5a00                	lw	s0,48(a2)
 39e:	0048                	addi	a0,sp,4
 3a0:	0000                	unimp
 3a2:	004a                	0x4a
 3a4:	0000                	unimp
 3a6:	0004                	addi	s1,sp,0
 3a8:	9f5a01f3          	0x9f5a01f3
	...
 3b4:	0026                	0x26
 3b6:	0000                	unimp
 3b8:	0030                	addi	a2,sp,8
 3ba:	0000                	unimp
 3bc:	0001                	nop
 3be:	305a                	fld	ft0,432(sp)
 3c0:	0000                	unimp
 3c2:	3200                	fld	fs0,32(a2)
 3c4:	0000                	unimp
 3c6:	0400                	addi	s0,sp,512
 3c8:	f300                	fsw	fs0,32(a4)
 3ca:	5a01                	li	s4,-32
 3cc:	009f 0000 0000      	0x9f
 3d2:	0000                	unimp
 3d4:	0000                	unimp
 3d6:	0000                	unimp
 3d8:	0c00                	addi	s0,sp,528
 3da:	0000                	unimp
 3dc:	0600                	addi	s0,sp,768
 3de:	0300                	addi	s0,sp,384
 3e0:	1e84                	addi	s1,sp,880
 3e2:	0000                	unimp
 3e4:	0c9f 0000 1a00      	0x1a0000000c9f
 3ea:	0000                	unimp
 3ec:	0100                	addi	s0,sp,128
 3ee:	5f00                	lw	s0,56(a4)
	...
 3f8:	001a                	0x1a
 3fa:	0000                	unimp
 3fc:	0024                	addi	s1,sp,8
 3fe:	0000                	unimp
 400:	0001                	nop
 402:	245a                	fld	fs0,400(sp)
 404:	0000                	unimp
 406:	2600                	fld	fs0,8(a2)
 408:	0000                	unimp
 40a:	0400                	addi	s0,sp,512
 40c:	f300                	fsw	fs0,32(a4)
 40e:	5a01                	li	s4,-32
 410:	009f 0000 0000      	0x9f
 416:	0000                	unimp
 418:	3200                	fld	fs0,32(a2)
 41a:	0000                	unimp
 41c:	3c00                	fld	fs0,56(s0)
 41e:	0000                	unimp
 420:	0100                	addi	s0,sp,128
 422:	5a00                	lw	s0,48(a2)
 424:	003c                	addi	a5,sp,8
 426:	0000                	unimp
 428:	003e                	0x3e
 42a:	0000                	unimp
 42c:	0004                	addi	s1,sp,0
 42e:	9f5a01f3          	0x9f5a01f3
	...
 43a:	0070                	addi	a2,sp,12
 43c:	0000                	unimp
 43e:	007a                	0x7a
 440:	0000                	unimp
 442:	0001                	nop
 444:	7a5a                	flw	fs4,180(sp)
 446:	0000                	unimp
 448:	7c00                	flw	fs0,56(s0)
 44a:	0000                	unimp
 44c:	0400                	addi	s0,sp,512
 44e:	f300                	fsw	fs0,32(a4)
 450:	5a01                	li	s4,-32
 452:	009f 0000 0000      	0x9f
 458:	0000                	unimp
	...

Disassembly of section .debug_ranges:

00000000 <.debug_ranges>:
   0:	010a                	slli	sp,sp,0x2
   2:	0000                	unimp
   4:	0172                	slli	sp,sp,0x1c
	...
   e:	0000                	unimp
  10:	ffff                	0xffff
  12:	ffff                	0xffff
	...
  1c:	0080                	addi	s0,sp,64
  1e:	0000                	unimp
  20:	0306                	slli	t1,t1,0x1
  22:	0000                	unimp
  24:	0392                	slli	t2,t2,0x4
	...
