
sbst.elf:     file format elf32-littleriscv


Disassembly of section .vectors:

00000000 <__vector_start>:
   0:	3160006f          	j	316 <sw_irq_handler>
   4:	3020006f          	j	306 <__no_irq_handler>
   8:	2fe0006f          	j	306 <__no_irq_handler>
   c:	2fa0006f          	j	306 <__no_irq_handler>
  10:	2f60006f          	j	306 <__no_irq_handler>
  14:	2f20006f          	j	306 <__no_irq_handler>
  18:	2ee0006f          	j	306 <__no_irq_handler>
  1c:	2ea0006f          	j	306 <__no_irq_handler>
  20:	2e60006f          	j	306 <__no_irq_handler>
  24:	2e20006f          	j	306 <__no_irq_handler>
  28:	2de0006f          	j	306 <__no_irq_handler>
  2c:	2da0006f          	j	306 <__no_irq_handler>
  30:	2d60006f          	j	306 <__no_irq_handler>
  34:	2d20006f          	j	306 <__no_irq_handler>
  38:	2ce0006f          	j	306 <__no_irq_handler>
  3c:	2ca0006f          	j	306 <__no_irq_handler>
  40:	2c60006f          	j	306 <__no_irq_handler>
  44:	2c20006f          	j	306 <__no_irq_handler>
  48:	2be0006f          	j	306 <__no_irq_handler>
  4c:	2ba0006f          	j	306 <__no_irq_handler>
  50:	2b60006f          	j	306 <__no_irq_handler>
  54:	2b20006f          	j	306 <__no_irq_handler>
  58:	2ae0006f          	j	306 <__no_irq_handler>
  5c:	2aa0006f          	j	306 <__no_irq_handler>
  60:	2a60006f          	j	306 <__no_irq_handler>
  64:	2a20006f          	j	306 <__no_irq_handler>
  68:	29e0006f          	j	306 <__no_irq_handler>
  6c:	29a0006f          	j	306 <__no_irq_handler>
  70:	2960006f          	j	306 <__no_irq_handler>
  74:	2920006f          	j	306 <__no_irq_handler>
  78:	28e0006f          	j	306 <__no_irq_handler>
  7c:	3120006f          	j	38e <verification_irq_handler>

Disassembly of section .init:

00000080 <_start>:
  80:	4081                	li	ra,0
  82:	4101                	li	sp,0
  84:	4181                	li	gp,0
  86:	4201                	li	tp,0
  88:	4281                	li	t0,0
  8a:	4301                	li	t1,0
  8c:	4381                	li	t2,0
  8e:	4401                	li	s0,0
  90:	4481                	li	s1,0
  92:	4501                	li	a0,0
  94:	4581                	li	a1,0
  96:	4601                	li	a2,0
  98:	4681                	li	a3,0
  9a:	4701                	li	a4,0
  9c:	4781                	li	a5,0
  9e:	4801                	li	a6,0
  a0:	4881                	li	a7,0
  a2:	4901                	li	s2,0
  a4:	4981                	li	s3,0
  a6:	4a01                	li	s4,0
  a8:	4a81                	li	s5,0
  aa:	4b01                	li	s6,0
  ac:	4b81                	li	s7,0
  ae:	4c01                	li	s8,0
  b0:	4c81                	li	s9,0
  b2:	4d01                	li	s10,0
  b4:	4d81                	li	s11,0
  b6:	4e01                	li	t3,0
  b8:	4e81                	li	t4,0
  ba:	4f01                	li	t5,0
  bc:	4f81                	li	t6,0
  be:	00200197          	auipc	gp,0x200
  c2:	74a18193          	addi	gp,gp,1866 # 200808 <__global_pointer$>
  c6:	00201117          	auipc	sp,0x201
  ca:	fca10113          	addi	sp,sp,-54 # 201090 <_sp>
  ce:	00000517          	auipc	a0,0x0
  d2:	f3250513          	addi	a0,a0,-206 # 0 <__vector_start>
  d6:	30551073          	csrw	mtvec,a0
  da:	00200517          	auipc	a0,0x200
  de:	77250513          	addi	a0,a0,1906 # 20084c <_edata>
  e2:	00200617          	auipc	a2,0x200
  e6:	7a260613          	addi	a2,a2,1954 # 200884 <__BSS_END__>
  ea:	8e09                	sub	a2,a2,a0
  ec:	4581                	li	a1,0
  ee:	2661                	jal	476 <memset>
  f0:	00000517          	auipc	a0,0x0
  f4:	2e050513          	addi	a0,a0,736 # 3d0 <__libc_fini_array>
  f8:	2c55                	jal	3ac <atexit>
  fa:	2e31                	jal	416 <__libc_init_array>
  fc:	2c59                	jal	392 <_sbst_boot>
  fe:	4502                	lw	a0,0(sp)
 100:	004c                	addi	a1,sp,4
 102:	4601                	li	a2,0
 104:	2019                	jal	10a <main>
 106:	ac45                	j	3b6 <exit>

00000108 <_fini>:
 108:	8082                	ret

Disassembly of section .text:

0000010a <main>:
     10a:	7139                	addi	sp,sp,-64
     10c:	52b00793          	li	a5,1323
     110:	c23e                	sw	a5,4(sp)
     112:	0ea00793          	li	a5,234
     116:	c43e                	sw	a5,8(sp)
     118:	02b00793          	li	a5,43
     11c:	c63e                	sw	a5,12(sp)
     11e:	000857b7          	lui	a5,0x85
     122:	23f78793          	addi	a5,a5,575 # 8523f <__TEST_RODATA_END+0x832cb>
     126:	c83e                	sw	a5,16(sp)
     128:	3e800793          	li	a5,1000
     12c:	ca3e                	sw	a5,20(sp)
     12e:	47b5                	li	a5,13
     130:	cc3e                	sw	a5,24(sp)
     132:	4789                	li	a5,2
     134:	ce3e                	sw	a5,28(sp)
     136:	4791                	li	a5,4
     138:	d03e                	sw	a5,32(sp)
     13a:	03600793          	li	a5,54
     13e:	d23e                	sw	a5,36(sp)
     140:	47a9                	li	a5,10
     142:	d43e                	sw	a5,40(sp)
     144:	0054                	addi	a3,sp,4
     146:	0838                	addi	a4,sp,24
     148:	4781                	li	a5,0
     14a:	4515                	li	a0,5
     14c:	4310                	lw	a2,0(a4)
     14e:	428c                	lw	a1,0(a3)
     150:	04010813          	addi	a6,sp,64
     154:	0691                	addi	a3,a3,4
     156:	02c5c5b3          	div	a1,a1,a2
     15a:	00279613          	slli	a2,a5,0x2
     15e:	9642                	add	a2,a2,a6
     160:	0785                	addi	a5,a5,1
     162:	0711                	addi	a4,a4,4
     164:	feb62623          	sw	a1,-20(a2)
     168:	fea792e3          	bne	a5,a0,14c <main+0x42>
     16c:	4501                	li	a0,0
     16e:	6121                	addi	sp,sp,64
     170:	8082                	ret

00000172 <unimplemented_syscall>:
     172:	000027b7          	lui	a5,0x2
     176:	e8478793          	addi	a5,a5,-380 # 1e84 <_isatty_r+0x2e>
     17a:	100006b7          	lui	a3,0x10000
     17e:	0007c703          	lbu	a4,0(a5)
     182:	e311                	bnez	a4,186 <unimplemented_syscall+0x14>
     184:	8082                	ret
     186:	0785                	addi	a5,a5,1
     188:	c298                	sw	a4,0(a3)
     18a:	bfd5                	j	17e <unimplemented_syscall+0xc>

0000018c <nanosleep>:
     18c:	05800713          	li	a4,88
     190:	06e1ac23          	sw	a4,120(gp) # 200880 <errno>
     194:	557d                	li	a0,-1
     196:	8082                	ret

00000198 <_access>:
     198:	05800713          	li	a4,88
     19c:	06e1ac23          	sw	a4,120(gp) # 200880 <errno>
     1a0:	557d                	li	a0,-1
     1a2:	8082                	ret

000001a4 <_chdir>:
     1a4:	05800713          	li	a4,88
     1a8:	06e1ac23          	sw	a4,120(gp) # 200880 <errno>
     1ac:	557d                	li	a0,-1
     1ae:	8082                	ret

000001b0 <_chmod>:
     1b0:	05800713          	li	a4,88
     1b4:	06e1ac23          	sw	a4,120(gp) # 200880 <errno>
     1b8:	557d                	li	a0,-1
     1ba:	8082                	ret

000001bc <_chown>:
     1bc:	05800713          	li	a4,88
     1c0:	06e1ac23          	sw	a4,120(gp) # 200880 <errno>
     1c4:	557d                	li	a0,-1
     1c6:	8082                	ret

000001c8 <close>:
     1c8:	557d                	li	a0,-1
     1ca:	8082                	ret

000001cc <_execve>:
     1cc:	4731                	li	a4,12
     1ce:	06e1ac23          	sw	a4,120(gp) # 200880 <errno>
     1d2:	557d                	li	a0,-1
     1d4:	8082                	ret

000001d6 <_exit>:
     1d6:	200007b7          	lui	a5,0x20000
     1da:	c3c8                	sw	a0,4(a5)
     1dc:	10500073          	wfi
     1e0:	8082                	ret

000001e2 <_faccessat>:
     1e2:	05800713          	li	a4,88
     1e6:	06e1ac23          	sw	a4,120(gp) # 200880 <errno>
     1ea:	557d                	li	a0,-1
     1ec:	8082                	ret

000001ee <_fork>:
     1ee:	472d                	li	a4,11
     1f0:	06e1ac23          	sw	a4,120(gp) # 200880 <errno>
     1f4:	557d                	li	a0,-1
     1f6:	8082                	ret

000001f8 <fstat>:
     1f8:	6789                	lui	a5,0x2
     1fa:	c1dc                	sw	a5,4(a1)
     1fc:	4501                	li	a0,0
     1fe:	8082                	ret

00000200 <_fstatat>:
     200:	05800713          	li	a4,88
     204:	06e1ac23          	sw	a4,120(gp) # 200880 <errno>
     208:	557d                	li	a0,-1
     20a:	8082                	ret

0000020c <_ftime>:
     20c:	05800713          	li	a4,88
     210:	06e1ac23          	sw	a4,120(gp) # 200880 <errno>
     214:	557d                	li	a0,-1
     216:	8082                	ret

00000218 <_getcwd>:
     218:	fa800713          	li	a4,-88
     21c:	06e1ac23          	sw	a4,120(gp) # 200880 <errno>
     220:	4501                	li	a0,0
     222:	8082                	ret

00000224 <_getpid>:
     224:	4505                	li	a0,1
     226:	8082                	ret

00000228 <_gettimeofday>:
     228:	fa800713          	li	a4,-88
     22c:	06e1ac23          	sw	a4,120(gp) # 200880 <errno>
     230:	557d                	li	a0,-1
     232:	8082                	ret

00000234 <isatty>:
     234:	157d                	addi	a0,a0,-1
     236:	00153513          	seqz	a0,a0
     23a:	8082                	ret

0000023c <_kill>:
     23c:	4759                	li	a4,22
     23e:	06e1ac23          	sw	a4,120(gp) # 200880 <errno>
     242:	557d                	li	a0,-1
     244:	8082                	ret

00000246 <_link>:
     246:	477d                	li	a4,31
     248:	06e1ac23          	sw	a4,120(gp) # 200880 <errno>
     24c:	557d                	li	a0,-1
     24e:	8082                	ret

00000250 <lseek>:
     250:	4501                	li	a0,0
     252:	8082                	ret

00000254 <_lstat>:
     254:	05800713          	li	a4,88
     258:	06e1ac23          	sw	a4,120(gp) # 200880 <errno>
     25c:	557d                	li	a0,-1
     25e:	8082                	ret

00000260 <_open>:
     260:	557d                	li	a0,-1
     262:	8082                	ret

00000264 <_openat>:
     264:	05800713          	li	a4,88
     268:	06e1ac23          	sw	a4,120(gp) # 200880 <errno>
     26c:	557d                	li	a0,-1
     26e:	8082                	ret

00000270 <read>:
     270:	4501                	li	a0,0
     272:	8082                	ret

00000274 <_stat>:
     274:	6789                	lui	a5,0x2
     276:	c1dc                	sw	a5,4(a1)
     278:	4501                	li	a0,0
     27a:	8082                	ret

0000027c <_sysconf>:
     27c:	557d                	li	a0,-1
     27e:	8082                	ret

00000280 <_times>:
     280:	557d                	li	a0,-1
     282:	8082                	ret

00000284 <_unlink>:
     284:	4709                	li	a4,2
     286:	06e1ac23          	sw	a4,120(gp) # 200880 <errno>
     28a:	557d                	li	a0,-1
     28c:	8082                	ret

0000028e <_utime>:
     28e:	05800713          	li	a4,88
     292:	06e1ac23          	sw	a4,120(gp) # 200880 <errno>
     296:	557d                	li	a0,-1
     298:	8082                	ret

0000029a <_wait>:
     29a:	4729                	li	a4,10
     29c:	06e1ac23          	sw	a4,120(gp) # 200880 <errno>
     2a0:	557d                	li	a0,-1
     2a2:	8082                	ret

000002a4 <write>:
     2a4:	4685                	li	a3,1
     2a6:	00c587b3          	add	a5,a1,a2
     2aa:	10000737          	lui	a4,0x10000
     2ae:	00d50c63          	beq	a0,a3,2c6 <write+0x22>
     2b2:	05800713          	li	a4,88
     2b6:	06e1ac23          	sw	a4,120(gp) # 200880 <errno>
     2ba:	557d                	li	a0,-1
     2bc:	8082                	ret
     2be:	0585                	addi	a1,a1,1
     2c0:	fff5c683          	lbu	a3,-1(a1)
     2c4:	c314                	sw	a3,0(a4)
     2c6:	fef59ce3          	bne	a1,a5,2be <write+0x1a>
     2ca:	8532                	mv	a0,a2
     2cc:	8082                	ret

000002ce <_brk>:
     2ce:	02a1a823          	sw	a0,48(gp) # 200838 <__SDATA_BEGIN__>
     2d2:	4501                	li	a0,0
     2d4:	8082                	ret

000002d6 <sbrk>:
     2d6:	07c18593          	addi	a1,gp,124 # 200884 <__BSS_END__>
     2da:	47c18793          	addi	a5,gp,1148 # 200c84 <__heap_end>
     2de:	0301a603          	lw	a2,48(gp) # 200838 <__SDATA_BEGIN__>
     2e2:	02f58063          	beq	a1,a5,302 <sbrk+0x2c>
     2e6:	00a60733          	add	a4,a2,a0
     2ea:	02e1a823          	sw	a4,48(gp) # 200838 <__SDATA_BEGIN__>
     2ee:	00f77763          	bleu	a5,a4,2fc <sbrk+0x26>
     2f2:	972a                	add	a4,a4,a0
     2f4:	02e1a823          	sw	a4,48(gp) # 200838 <__SDATA_BEGIN__>
     2f8:	8532                	mv	a0,a2
     2fa:	8082                	ret
     2fc:	02f1a823          	sw	a5,48(gp) # 200838 <__SDATA_BEGIN__>
     300:	bfe5                	j	2f8 <sbrk+0x22>
     302:	4601                	li	a2,0
     304:	bfd5                	j	2f8 <sbrk+0x22>

00000306 <__no_irq_handler>:
     306:	00002517          	auipc	a0,0x2
     30a:	c3650513          	addi	a0,a0,-970 # 1f3c <no_exception_handler_msg>
     30e:	280000ef          	jal	ra,58e <puts>
     312:	ff5ff06f          	j	306 <__no_irq_handler>

00000316 <sw_irq_handler>:
     316:	342022f3          	csrr	t0,mcause
     31a:	00129293          	slli	t0,t0,0x1
     31e:	0012d293          	srli	t0,t0,0x1
     322:	00200313          	li	t1,2
     326:	02628c63          	beq	t0,t1,35e <handle_illegal_insn>
     32a:	00b00313          	li	t1,11
     32e:	00628863          	beq	t0,t1,33e <handle_ecall>
     332:	00300313          	li	t1,3
     336:	00628c63          	beq	t0,t1,34e <handle_ebreak>
     33a:	0340006f          	j	36e <handle_unknown>

0000033e <handle_ecall>:
     33e:	00002517          	auipc	a0,0x2
     342:	b9850513          	addi	a0,a0,-1128 # 1ed6 <ecall_msg>
     346:	248000ef          	jal	ra,58e <puts>
     34a:	0340006f          	j	37e <end_handler>

0000034e <handle_ebreak>:
     34e:	00002517          	auipc	a0,0x2
     352:	ba950513          	addi	a0,a0,-1111 # 1ef7 <ebreak_msg>
     356:	238000ef          	jal	ra,58e <puts>
     35a:	0240006f          	j	37e <end_handler>

0000035e <handle_illegal_insn>:
     35e:	00002517          	auipc	a0,0x2
     362:	b4950513          	addi	a0,a0,-1207 # 1ea7 <illegal_insn_msg>
     366:	228000ef          	jal	ra,58e <puts>
     36a:	0140006f          	j	37e <end_handler>

0000036e <handle_unknown>:
     36e:	00002517          	auipc	a0,0x2
     372:	bab50513          	addi	a0,a0,-1109 # 1f19 <unknown_msg>
     376:	218000ef          	jal	ra,58e <puts>
     37a:	0040006f          	j	37e <end_handler>

0000037e <end_handler>:
     37e:	34102573          	csrr	a0,mepc
     382:	00450513          	addi	a0,a0,4
     386:	34151073          	csrw	mepc,a0
     38a:	30200073          	mret

0000038e <verification_irq_handler>:
     38e:	30200073          	mret

00000392 <_sbst_boot>:
     392:	00200537          	lui	a0,0x200
     396:	00050513          	mv	a0,a0
     39a:	00002297          	auipc	t0,0x2
     39e:	bc628293          	addi	t0,t0,-1082 # 1f60 <__TEST_RODATA_START>
     3a2:	0002a303          	lw	t1,0(t0)
     3a6:	0042a383          	lw	t2,4(t0)
     3aa:	8082                	ret

000003ac <atexit>:
     3ac:	85aa                	mv	a1,a0
     3ae:	4681                	li	a3,0
     3b0:	4601                	li	a2,0
     3b2:	4501                	li	a0,0
     3b4:	a47d                	j	662 <__register_exitproc>

000003b6 <exit>:
     3b6:	1141                	addi	sp,sp,-16
     3b8:	4581                	li	a1,0
     3ba:	c422                	sw	s0,8(sp)
     3bc:	c606                	sw	ra,12(sp)
     3be:	842a                	mv	s0,a0
     3c0:	2609                	jal	6c2 <__call_exitprocs>
     3c2:	0341a503          	lw	a0,52(gp) # 20083c <_global_impure_ptr>
     3c6:	5d5c                	lw	a5,60(a0)
     3c8:	c391                	beqz	a5,3cc <exit+0x16>
     3ca:	9782                	jalr	a5
     3cc:	8522                	mv	a0,s0
     3ce:	3521                	jal	1d6 <_exit>

000003d0 <__libc_fini_array>:
     3d0:	1101                	addi	sp,sp,-32
     3d2:	6789                	lui	a5,0x2
     3d4:	6709                	lui	a4,0x2
     3d6:	cc22                	sw	s0,24(sp)
     3d8:	f6070713          	addi	a4,a4,-160 # 1f60 <__TEST_RODATA_START>
     3dc:	f6078413          	addi	s0,a5,-160 # 1f60 <__TEST_RODATA_START>
     3e0:	8c19                	sub	s0,s0,a4
     3e2:	ca26                	sw	s1,20(sp)
     3e4:	c84a                	sw	s2,16(sp)
     3e6:	c64e                	sw	s3,12(sp)
     3e8:	ce06                	sw	ra,28(sp)
     3ea:	8409                	srai	s0,s0,0x2
     3ec:	4481                	li	s1,0
     3ee:	f6078913          	addi	s2,a5,-160
     3f2:	59f1                	li	s3,-4
     3f4:	00941963          	bne	s0,s1,406 <__TEST_DATA_SIZE+0x6>
     3f8:	4462                	lw	s0,24(sp)
     3fa:	40f2                	lw	ra,28(sp)
     3fc:	44d2                	lw	s1,20(sp)
     3fe:	4942                	lw	s2,16(sp)
     400:	49b2                	lw	s3,12(sp)
     402:	6105                	addi	sp,sp,32
     404:	b311                	j	108 <_fini>
     406:	033487b3          	mul	a5,s1,s3
     40a:	0485                	addi	s1,s1,1
     40c:	97ca                	add	a5,a5,s2
     40e:	ffc7a783          	lw	a5,-4(a5)
     412:	9782                	jalr	a5
     414:	b7c5                	j	3f4 <__libc_fini_array+0x24>

00000416 <__libc_init_array>:
     416:	1141                	addi	sp,sp,-16
     418:	c422                	sw	s0,8(sp)
     41a:	c226                	sw	s1,4(sp)
     41c:	6409                	lui	s0,0x2
     41e:	6489                	lui	s1,0x2
     420:	f6048793          	addi	a5,s1,-160 # 1f60 <__TEST_RODATA_START>
     424:	f6040413          	addi	s0,s0,-160 # 1f60 <__TEST_RODATA_START>
     428:	8c1d                	sub	s0,s0,a5
     42a:	c04a                	sw	s2,0(sp)
     42c:	c606                	sw	ra,12(sp)
     42e:	8409                	srai	s0,s0,0x2
     430:	f6048493          	addi	s1,s1,-160
     434:	4901                	li	s2,0
     436:	02891663          	bne	s2,s0,462 <__libc_init_array+0x4c>
     43a:	6489                	lui	s1,0x2
     43c:	31f1                	jal	108 <_fini>
     43e:	6409                	lui	s0,0x2
     440:	f6048793          	addi	a5,s1,-160 # 1f60 <__TEST_RODATA_START>
     444:	f6040413          	addi	s0,s0,-160 # 1f60 <__TEST_RODATA_START>
     448:	8c1d                	sub	s0,s0,a5
     44a:	8409                	srai	s0,s0,0x2
     44c:	f6048493          	addi	s1,s1,-160
     450:	4901                	li	s2,0
     452:	00891d63          	bne	s2,s0,46c <__libc_init_array+0x56>
     456:	40b2                	lw	ra,12(sp)
     458:	4422                	lw	s0,8(sp)
     45a:	4492                	lw	s1,4(sp)
     45c:	4902                	lw	s2,0(sp)
     45e:	0141                	addi	sp,sp,16
     460:	8082                	ret
     462:	409c                	lw	a5,0(s1)
     464:	0905                	addi	s2,s2,1
     466:	0491                	addi	s1,s1,4
     468:	9782                	jalr	a5
     46a:	b7f1                	j	436 <__libc_init_array+0x20>
     46c:	409c                	lw	a5,0(s1)
     46e:	0905                	addi	s2,s2,1
     470:	0491                	addi	s1,s1,4
     472:	9782                	jalr	a5
     474:	bff9                	j	452 <__libc_init_array+0x3c>

00000476 <memset>:
     476:	483d                	li	a6,15
     478:	872a                	mv	a4,a0
     47a:	02c87363          	bleu	a2,a6,4a0 <memset+0x2a>
     47e:	00f77793          	andi	a5,a4,15
     482:	efbd                	bnez	a5,500 <memset+0x8a>
     484:	e5ad                	bnez	a1,4ee <memset+0x78>
     486:	ff067693          	andi	a3,a2,-16
     48a:	8a3d                	andi	a2,a2,15
     48c:	96ba                	add	a3,a3,a4
     48e:	c30c                	sw	a1,0(a4)
     490:	c34c                	sw	a1,4(a4)
     492:	c70c                	sw	a1,8(a4)
     494:	c74c                	sw	a1,12(a4)
     496:	0741                	addi	a4,a4,16
     498:	fed76be3          	bltu	a4,a3,48e <memset+0x18>
     49c:	e211                	bnez	a2,4a0 <memset+0x2a>
     49e:	8082                	ret
     4a0:	40c806b3          	sub	a3,a6,a2
     4a4:	068a                	slli	a3,a3,0x2
     4a6:	00000297          	auipc	t0,0x0
     4aa:	9696                	add	a3,a3,t0
     4ac:	00a68067          	jr	10(a3) # 1000000a <_sp+0xfdfef7a>
     4b0:	00b70723          	sb	a1,14(a4)
     4b4:	00b706a3          	sb	a1,13(a4)
     4b8:	00b70623          	sb	a1,12(a4)
     4bc:	00b705a3          	sb	a1,11(a4)
     4c0:	00b70523          	sb	a1,10(a4)
     4c4:	00b704a3          	sb	a1,9(a4)
     4c8:	00b70423          	sb	a1,8(a4)
     4cc:	00b703a3          	sb	a1,7(a4)
     4d0:	00b70323          	sb	a1,6(a4)
     4d4:	00b702a3          	sb	a1,5(a4)
     4d8:	00b70223          	sb	a1,4(a4)
     4dc:	00b701a3          	sb	a1,3(a4)
     4e0:	00b70123          	sb	a1,2(a4)
     4e4:	00b700a3          	sb	a1,1(a4)
     4e8:	00b70023          	sb	a1,0(a4)
     4ec:	8082                	ret
     4ee:	0ff5f593          	andi	a1,a1,255
     4f2:	00859693          	slli	a3,a1,0x8
     4f6:	8dd5                	or	a1,a1,a3
     4f8:	01059693          	slli	a3,a1,0x10
     4fc:	8dd5                	or	a1,a1,a3
     4fe:	b761                	j	486 <memset+0x10>
     500:	00279693          	slli	a3,a5,0x2
     504:	00000297          	auipc	t0,0x0
     508:	9696                	add	a3,a3,t0
     50a:	8286                	mv	t0,ra
     50c:	fa8680e7          	jalr	-88(a3)
     510:	8096                	mv	ra,t0
     512:	17c1                	addi	a5,a5,-16
     514:	8f1d                	sub	a4,a4,a5
     516:	963e                	add	a2,a2,a5
     518:	f8c874e3          	bleu	a2,a6,4a0 <memset+0x2a>
     51c:	b7a5                	j	484 <memset+0xe>

0000051e <_puts_r>:
     51e:	7139                	addi	sp,sp,-64
     520:	dc22                	sw	s0,56(sp)
     522:	842a                	mv	s0,a0
     524:	852e                	mv	a0,a1
     526:	c62e                	sw	a1,12(sp)
     528:	de06                	sw	ra,60(sp)
     52a:	221d                	jal	650 <strlen>
     52c:	000027b7          	lui	a5,0x2
     530:	f5c78793          	addi	a5,a5,-164 # 1f5c <no_exception_handler_msg+0x20>
     534:	d43e                	sw	a5,40(sp)
     536:	4785                	li	a5,1
     538:	d63e                	sw	a5,44(sp)
     53a:	101c                	addi	a5,sp,32
     53c:	45b2                	lw	a1,12(sp)
     53e:	ca3e                	sw	a5,20(sp)
     540:	4789                	li	a5,2
     542:	cc3e                	sw	a5,24(sp)
     544:	5c1c                	lw	a5,56(s0)
     546:	d22a                	sw	a0,36(sp)
     548:	0505                	addi	a0,a0,1
     54a:	d02e                	sw	a1,32(sp)
     54c:	ce2a                	sw	a0,28(sp)
     54e:	440c                	lw	a1,8(s0)
     550:	e789                	bnez	a5,55a <_puts_r+0x3c>
     552:	8522                	mv	a0,s0
     554:	c62e                	sw	a1,12(sp)
     556:	2cf9                	jal	834 <__sinit>
     558:	45b2                	lw	a1,12(sp)
     55a:	00c59783          	lh	a5,12(a1)
     55e:	01279713          	slli	a4,a5,0x12
     562:	00074b63          	bltz	a4,578 <_puts_r+0x5a>
     566:	6689                	lui	a3,0x2
     568:	51f8                	lw	a4,100(a1)
     56a:	8fd5                	or	a5,a5,a3
     56c:	00f59623          	sh	a5,12(a1)
     570:	77f9                	lui	a5,0xffffe
     572:	17fd                	addi	a5,a5,-1
     574:	8ff9                	and	a5,a5,a4
     576:	d1fc                	sw	a5,100(a1)
     578:	0850                	addi	a2,sp,20
     57a:	8522                	mv	a0,s0
     57c:	2d21                	jal	b94 <__sfvwrite_r>
     57e:	57fd                	li	a5,-1
     580:	e111                	bnez	a0,584 <_puts_r+0x66>
     582:	47a9                	li	a5,10
     584:	50f2                	lw	ra,60(sp)
     586:	5462                	lw	s0,56(sp)
     588:	853e                	mv	a0,a5
     58a:	6121                	addi	sp,sp,64
     58c:	8082                	ret

0000058e <puts>:
     58e:	85aa                	mv	a1,a0
     590:	0381a503          	lw	a0,56(gp) # 200840 <_impure_ptr>
     594:	b769                	j	51e <_puts_r>

00000596 <cleanup_glue>:
     596:	1141                	addi	sp,sp,-16
     598:	c422                	sw	s0,8(sp)
     59a:	842e                	mv	s0,a1
     59c:	418c                	lw	a1,0(a1)
     59e:	c226                	sw	s1,4(sp)
     5a0:	c606                	sw	ra,12(sp)
     5a2:	84aa                	mv	s1,a0
     5a4:	c191                	beqz	a1,5a8 <cleanup_glue+0x12>
     5a6:	3fc5                	jal	596 <cleanup_glue>
     5a8:	85a2                	mv	a1,s0
     5aa:	4422                	lw	s0,8(sp)
     5ac:	40b2                	lw	ra,12(sp)
     5ae:	8526                	mv	a0,s1
     5b0:	4492                	lw	s1,4(sp)
     5b2:	0141                	addi	sp,sp,16
     5b4:	a189                	j	9f6 <_free_r>

000005b6 <_reclaim_reent>:
     5b6:	0381a783          	lw	a5,56(gp) # 200840 <_impure_ptr>
     5ba:	08a78a63          	beq	a5,a0,64e <_reclaim_reent+0x98>
     5be:	457c                	lw	a5,76(a0)
     5c0:	1101                	addi	sp,sp,-32
     5c2:	cc22                	sw	s0,24(sp)
     5c4:	ca26                	sw	s1,20(sp)
     5c6:	c84a                	sw	s2,16(sp)
     5c8:	ce06                	sw	ra,28(sp)
     5ca:	c64e                	sw	s3,12(sp)
     5cc:	842a                	mv	s0,a0
     5ce:	4481                	li	s1,0
     5d0:	08000913          	li	s2,128
     5d4:	e795                	bnez	a5,600 <_reclaim_reent+0x4a>
     5d6:	402c                	lw	a1,64(s0)
     5d8:	c199                	beqz	a1,5de <_reclaim_reent+0x28>
     5da:	8522                	mv	a0,s0
     5dc:	2929                	jal	9f6 <_free_r>
     5de:	14842583          	lw	a1,328(s0)
     5e2:	c99d                	beqz	a1,618 <_reclaim_reent+0x62>
     5e4:	14c40493          	addi	s1,s0,332
     5e8:	02958863          	beq	a1,s1,618 <_reclaim_reent+0x62>
     5ec:	0005a903          	lw	s2,0(a1)
     5f0:	8522                	mv	a0,s0
     5f2:	2111                	jal	9f6 <_free_r>
     5f4:	85ca                	mv	a1,s2
     5f6:	bfcd                	j	5e8 <_reclaim_reent+0x32>
     5f8:	95a6                	add	a1,a1,s1
     5fa:	418c                	lw	a1,0(a1)
     5fc:	e981                	bnez	a1,60c <_reclaim_reent+0x56>
     5fe:	0491                	addi	s1,s1,4
     600:	446c                	lw	a1,76(s0)
     602:	ff249be3          	bne	s1,s2,5f8 <_reclaim_reent+0x42>
     606:	8522                	mv	a0,s0
     608:	26fd                	jal	9f6 <_free_r>
     60a:	b7f1                	j	5d6 <_reclaim_reent+0x20>
     60c:	0005a983          	lw	s3,0(a1)
     610:	8522                	mv	a0,s0
     612:	26d5                	jal	9f6 <_free_r>
     614:	85ce                	mv	a1,s3
     616:	b7dd                	j	5fc <_reclaim_reent+0x46>
     618:	486c                	lw	a1,84(s0)
     61a:	c199                	beqz	a1,620 <_reclaim_reent+0x6a>
     61c:	8522                	mv	a0,s0
     61e:	2ee1                	jal	9f6 <_free_r>
     620:	5c1c                	lw	a5,56(s0)
     622:	cf99                	beqz	a5,640 <_reclaim_reent+0x8a>
     624:	5c5c                	lw	a5,60(s0)
     626:	8522                	mv	a0,s0
     628:	9782                	jalr	a5
     62a:	2e042583          	lw	a1,736(s0)
     62e:	c989                	beqz	a1,640 <_reclaim_reent+0x8a>
     630:	8522                	mv	a0,s0
     632:	4462                	lw	s0,24(sp)
     634:	40f2                	lw	ra,28(sp)
     636:	44d2                	lw	s1,20(sp)
     638:	4942                	lw	s2,16(sp)
     63a:	49b2                	lw	s3,12(sp)
     63c:	6105                	addi	sp,sp,32
     63e:	bfa1                	j	596 <cleanup_glue>
     640:	40f2                	lw	ra,28(sp)
     642:	4462                	lw	s0,24(sp)
     644:	44d2                	lw	s1,20(sp)
     646:	4942                	lw	s2,16(sp)
     648:	49b2                	lw	s3,12(sp)
     64a:	6105                	addi	sp,sp,32
     64c:	8082                	ret
     64e:	8082                	ret

00000650 <strlen>:
     650:	87aa                	mv	a5,a0
     652:	0785                	addi	a5,a5,1
     654:	fff7c703          	lbu	a4,-1(a5) # ffffdfff <pulp__FC+0xffffe000>
     658:	ff6d                	bnez	a4,652 <strlen+0x2>
     65a:	40a78533          	sub	a0,a5,a0
     65e:	157d                	addi	a0,a0,-1
     660:	8082                	ret

00000662 <__register_exitproc>:
     662:	0341a703          	lw	a4,52(gp) # 20083c <_global_impure_ptr>
     666:	832a                	mv	t1,a0
     668:	14872783          	lw	a5,328(a4)
     66c:	e789                	bnez	a5,676 <__register_exitproc+0x14>
     66e:	14c70793          	addi	a5,a4,332
     672:	14f72423          	sw	a5,328(a4)
     676:	43d8                	lw	a4,4(a5)
     678:	487d                	li	a6,31
     67a:	557d                	li	a0,-1
     67c:	04e84263          	blt	a6,a4,6c0 <__register_exitproc+0x5e>
     680:	00271893          	slli	a7,a4,0x2
     684:	02030963          	beqz	t1,6b6 <__register_exitproc+0x54>
     688:	01178533          	add	a0,a5,a7
     68c:	08c52423          	sw	a2,136(a0) # 200088 <__DATA_BEGIN__+0x80>
     690:	1887a803          	lw	a6,392(a5)
     694:	4605                	li	a2,1
     696:	00e61633          	sll	a2,a2,a4
     69a:	00c86833          	or	a6,a6,a2
     69e:	1907a423          	sw	a6,392(a5)
     6a2:	10d52423          	sw	a3,264(a0)
     6a6:	4689                	li	a3,2
     6a8:	00d31763          	bne	t1,a3,6b6 <__register_exitproc+0x54>
     6ac:	18c7a683          	lw	a3,396(a5)
     6b0:	8e55                	or	a2,a2,a3
     6b2:	18c7a623          	sw	a2,396(a5)
     6b6:	0705                	addi	a4,a4,1
     6b8:	c3d8                	sw	a4,4(a5)
     6ba:	97c6                	add	a5,a5,a7
     6bc:	c78c                	sw	a1,8(a5)
     6be:	4501                	li	a0,0
     6c0:	8082                	ret

000006c2 <__call_exitprocs>:
     6c2:	7179                	addi	sp,sp,-48
     6c4:	ce4e                	sw	s3,28(sp)
     6c6:	0341a983          	lw	s3,52(gp) # 20083c <_global_impure_ptr>
     6ca:	cc52                	sw	s4,24(sp)
     6cc:	ca56                	sw	s5,20(sp)
     6ce:	c85a                	sw	s6,16(sp)
     6d0:	d606                	sw	ra,44(sp)
     6d2:	d422                	sw	s0,40(sp)
     6d4:	d226                	sw	s1,36(sp)
     6d6:	d04a                	sw	s2,32(sp)
     6d8:	c65e                	sw	s7,12(sp)
     6da:	8aaa                	mv	s5,a0
     6dc:	8a2e                	mv	s4,a1
     6de:	4b05                	li	s6,1
     6e0:	1489a483          	lw	s1,328(s3)
     6e4:	c881                	beqz	s1,6f4 <__call_exitprocs+0x32>
     6e6:	40c0                	lw	s0,4(s1)
     6e8:	fff40913          	addi	s2,s0,-1
     6ec:	040a                	slli	s0,s0,0x2
     6ee:	9426                	add	s0,s0,s1
     6f0:	00095d63          	bgez	s2,70a <__call_exitprocs+0x48>
     6f4:	50b2                	lw	ra,44(sp)
     6f6:	5422                	lw	s0,40(sp)
     6f8:	5492                	lw	s1,36(sp)
     6fa:	5902                	lw	s2,32(sp)
     6fc:	49f2                	lw	s3,28(sp)
     6fe:	4a62                	lw	s4,24(sp)
     700:	4ad2                	lw	s5,20(sp)
     702:	4b42                	lw	s6,16(sp)
     704:	4bb2                	lw	s7,12(sp)
     706:	6145                	addi	sp,sp,48
     708:	8082                	ret
     70a:	000a0963          	beqz	s4,71c <__call_exitprocs+0x5a>
     70e:	10442783          	lw	a5,260(s0)
     712:	01478563          	beq	a5,s4,71c <__call_exitprocs+0x5a>
     716:	197d                	addi	s2,s2,-1
     718:	1471                	addi	s0,s0,-4
     71a:	bfd9                	j	6f0 <__call_exitprocs+0x2e>
     71c:	40d8                	lw	a4,4(s1)
     71e:	405c                	lw	a5,4(s0)
     720:	177d                	addi	a4,a4,-1
     722:	03271663          	bne	a4,s2,74e <__call_exitprocs+0x8c>
     726:	0124a223          	sw	s2,4(s1)
     72a:	d7f5                	beqz	a5,716 <__call_exitprocs+0x54>
     72c:	1884a683          	lw	a3,392(s1)
     730:	012b1733          	sll	a4,s6,s2
     734:	0044ab83          	lw	s7,4(s1)
     738:	8ef9                	and	a3,a3,a4
     73a:	ee89                	bnez	a3,754 <__call_exitprocs+0x92>
     73c:	9782                	jalr	a5
     73e:	40d8                	lw	a4,4(s1)
     740:	1489a783          	lw	a5,328(s3)
     744:	f9771ee3          	bne	a4,s7,6e0 <__call_exitprocs+0x1e>
     748:	fcf487e3          	beq	s1,a5,716 <__call_exitprocs+0x54>
     74c:	bf51                	j	6e0 <__call_exitprocs+0x1e>
     74e:	00042223          	sw	zero,4(s0)
     752:	bfe1                	j	72a <__call_exitprocs+0x68>
     754:	18c4a683          	lw	a3,396(s1)
     758:	08442583          	lw	a1,132(s0)
     75c:	8f75                	and	a4,a4,a3
     75e:	e701                	bnez	a4,766 <__call_exitprocs+0xa4>
     760:	8556                	mv	a0,s5
     762:	9782                	jalr	a5
     764:	bfe9                	j	73e <__call_exitprocs+0x7c>
     766:	852e                	mv	a0,a1
     768:	9782                	jalr	a5
     76a:	bfd1                	j	73e <__call_exitprocs+0x7c>

0000076c <__fp_lock>:
     76c:	4501                	li	a0,0
     76e:	8082                	ret

00000770 <_cleanup_r>:
     770:	000025b7          	lui	a1,0x2
     774:	a8c58593          	addi	a1,a1,-1396 # 1a8c <_fclose_r>
     778:	7560006f          	j	ece <_fwalk_reent>

0000077c <std.isra.0>:
     77c:	1141                	addi	sp,sp,-16
     77e:	c422                	sw	s0,8(sp)
     780:	c606                	sw	ra,12(sp)
     782:	842a                	mv	s0,a0
     784:	00b51623          	sh	a1,12(a0)
     788:	00c51723          	sh	a2,14(a0)
     78c:	00052023          	sw	zero,0(a0)
     790:	00052223          	sw	zero,4(a0)
     794:	00052423          	sw	zero,8(a0)
     798:	06052223          	sw	zero,100(a0)
     79c:	00052823          	sw	zero,16(a0)
     7a0:	00052a23          	sw	zero,20(a0)
     7a4:	00052c23          	sw	zero,24(a0)
     7a8:	4621                	li	a2,8
     7aa:	4581                	li	a1,0
     7ac:	05c50513          	addi	a0,a0,92
     7b0:	31d9                	jal	476 <memset>
     7b2:	000027b7          	lui	a5,0x2
     7b6:	89a78793          	addi	a5,a5,-1894 # 189a <__sread>
     7ba:	d01c                	sw	a5,32(s0)
     7bc:	000027b7          	lui	a5,0x2
     7c0:	8ce78793          	addi	a5,a5,-1842 # 18ce <__swrite>
     7c4:	d05c                	sw	a5,36(s0)
     7c6:	000027b7          	lui	a5,0x2
     7ca:	91c78793          	addi	a5,a5,-1764 # 191c <__sseek>
     7ce:	d41c                	sw	a5,40(s0)
     7d0:	000027b7          	lui	a5,0x2
     7d4:	95278793          	addi	a5,a5,-1710 # 1952 <__sclose>
     7d8:	cc40                	sw	s0,28(s0)
     7da:	d45c                	sw	a5,44(s0)
     7dc:	40b2                	lw	ra,12(sp)
     7de:	4422                	lw	s0,8(sp)
     7e0:	0141                	addi	sp,sp,16
     7e2:	8082                	ret

000007e4 <__fp_unlock>:
     7e4:	4501                	li	a0,0
     7e6:	8082                	ret

000007e8 <__sfmoreglue>:
     7e8:	1141                	addi	sp,sp,-16
     7ea:	c226                	sw	s1,4(sp)
     7ec:	06800613          	li	a2,104
     7f0:	fff58493          	addi	s1,a1,-1
     7f4:	02c484b3          	mul	s1,s1,a2
     7f8:	c04a                	sw	s2,0(sp)
     7fa:	892e                	mv	s2,a1
     7fc:	c422                	sw	s0,8(sp)
     7fe:	c606                	sw	ra,12(sp)
     800:	07448593          	addi	a1,s1,116
     804:	736000ef          	jal	ra,f3a <_malloc_r>
     808:	842a                	mv	s0,a0
     80a:	c919                	beqz	a0,820 <__sfmoreglue+0x38>
     80c:	00052023          	sw	zero,0(a0)
     810:	01252223          	sw	s2,4(a0)
     814:	0531                	addi	a0,a0,12
     816:	c408                	sw	a0,8(s0)
     818:	06848613          	addi	a2,s1,104
     81c:	4581                	li	a1,0
     81e:	39a1                	jal	476 <memset>
     820:	8522                	mv	a0,s0
     822:	40b2                	lw	ra,12(sp)
     824:	4422                	lw	s0,8(sp)
     826:	4492                	lw	s1,4(sp)
     828:	4902                	lw	s2,0(sp)
     82a:	0141                	addi	sp,sp,16
     82c:	8082                	ret

0000082e <_cleanup>:
     82e:	0341a503          	lw	a0,52(gp) # 20083c <_global_impure_ptr>
     832:	bf3d                	j	770 <_cleanup_r>

00000834 <__sinit>:
     834:	5d1c                	lw	a5,56(a0)
     836:	e7a9                	bnez	a5,880 <__sinit+0x4c>
     838:	1141                	addi	sp,sp,-16
     83a:	000007b7          	lui	a5,0x0
     83e:	c606                	sw	ra,12(sp)
     840:	c422                	sw	s0,8(sp)
     842:	77078793          	addi	a5,a5,1904 # 770 <_cleanup_r>
     846:	dd5c                	sw	a5,60(a0)
     848:	478d                	li	a5,3
     84a:	2ef52223          	sw	a5,740(a0)
     84e:	2ec50793          	addi	a5,a0,748
     852:	842a                	mv	s0,a0
     854:	2ef52423          	sw	a5,744(a0)
     858:	2e052023          	sw	zero,736(a0)
     85c:	4148                	lw	a0,4(a0)
     85e:	4601                	li	a2,0
     860:	4591                	li	a1,4
     862:	3f29                	jal	77c <std.isra.0>
     864:	4408                	lw	a0,8(s0)
     866:	4605                	li	a2,1
     868:	45a5                	li	a1,9
     86a:	3f09                	jal	77c <std.isra.0>
     86c:	4448                	lw	a0,12(s0)
     86e:	4609                	li	a2,2
     870:	45c9                	li	a1,18
     872:	3729                	jal	77c <std.isra.0>
     874:	4785                	li	a5,1
     876:	dc1c                	sw	a5,56(s0)
     878:	40b2                	lw	ra,12(sp)
     87a:	4422                	lw	s0,8(sp)
     87c:	0141                	addi	sp,sp,16
     87e:	8082                	ret
     880:	8082                	ret

00000882 <__sfp>:
     882:	1141                	addi	sp,sp,-16
     884:	c226                	sw	s1,4(sp)
     886:	0341a483          	lw	s1,52(gp) # 20083c <_global_impure_ptr>
     88a:	c04a                	sw	s2,0(sp)
     88c:	c606                	sw	ra,12(sp)
     88e:	5c9c                	lw	a5,56(s1)
     890:	c422                	sw	s0,8(sp)
     892:	892a                	mv	s2,a0
     894:	e399                	bnez	a5,89a <__sfp+0x18>
     896:	8526                	mv	a0,s1
     898:	3f71                	jal	834 <__sinit>
     89a:	2e048493          	addi	s1,s1,736
     89e:	4480                	lw	s0,8(s1)
     8a0:	40dc                	lw	a5,4(s1)
     8a2:	17fd                	addi	a5,a5,-1
     8a4:	0007d663          	bgez	a5,8b0 <__sfp+0x2e>
     8a8:	409c                	lw	a5,0(s1)
     8aa:	cb89                	beqz	a5,8bc <__sfp+0x3a>
     8ac:	4084                	lw	s1,0(s1)
     8ae:	bfc5                	j	89e <__sfp+0x1c>
     8b0:	00c41703          	lh	a4,12(s0)
     8b4:	c705                	beqz	a4,8dc <__sfp+0x5a>
     8b6:	06840413          	addi	s0,s0,104
     8ba:	b7e5                	j	8a2 <__sfp+0x20>
     8bc:	4591                	li	a1,4
     8be:	854a                	mv	a0,s2
     8c0:	3725                	jal	7e8 <__sfmoreglue>
     8c2:	c088                	sw	a0,0(s1)
     8c4:	f565                	bnez	a0,8ac <__sfp+0x2a>
     8c6:	47b1                	li	a5,12
     8c8:	00f92023          	sw	a5,0(s2)
     8cc:	4401                	li	s0,0
     8ce:	8522                	mv	a0,s0
     8d0:	40b2                	lw	ra,12(sp)
     8d2:	4422                	lw	s0,8(sp)
     8d4:	4492                	lw	s1,4(sp)
     8d6:	4902                	lw	s2,0(sp)
     8d8:	0141                	addi	sp,sp,16
     8da:	8082                	ret
     8dc:	77c1                	lui	a5,0xffff0
     8de:	0785                	addi	a5,a5,1
     8e0:	06042223          	sw	zero,100(s0)
     8e4:	00042023          	sw	zero,0(s0)
     8e8:	00042223          	sw	zero,4(s0)
     8ec:	00042423          	sw	zero,8(s0)
     8f0:	c45c                	sw	a5,12(s0)
     8f2:	00042823          	sw	zero,16(s0)
     8f6:	00042a23          	sw	zero,20(s0)
     8fa:	00042c23          	sw	zero,24(s0)
     8fe:	4621                	li	a2,8
     900:	4581                	li	a1,0
     902:	05c40513          	addi	a0,s0,92
     906:	3e85                	jal	476 <memset>
     908:	02042823          	sw	zero,48(s0)
     90c:	02042a23          	sw	zero,52(s0)
     910:	04042223          	sw	zero,68(s0)
     914:	04042423          	sw	zero,72(s0)
     918:	bf5d                	j	8ce <__sfp+0x4c>

0000091a <__sfp_lock_acquire>:
     91a:	8082                	ret

0000091c <__sfp_lock_release>:
     91c:	8082                	ret

0000091e <__sinit_lock_acquire>:
     91e:	8082                	ret

00000920 <__sinit_lock_release>:
     920:	8082                	ret

00000922 <__fp_lock_all>:
     922:	0381a503          	lw	a0,56(gp) # 200840 <_impure_ptr>
     926:	000005b7          	lui	a1,0x0
     92a:	76c58593          	addi	a1,a1,1900 # 76c <__fp_lock>
     92e:	ab3d                	j	e6c <_fwalk>

00000930 <__fp_unlock_all>:
     930:	0381a503          	lw	a0,56(gp) # 200840 <_impure_ptr>
     934:	000005b7          	lui	a1,0x0
     938:	7e458593          	addi	a1,a1,2020 # 7e4 <__fp_unlock>
     93c:	ab05                	j	e6c <_fwalk>

0000093e <_malloc_trim_r>:
     93e:	7179                	addi	sp,sp,-48
     940:	d04a                	sw	s2,32(sp)
     942:	d422                	sw	s0,40(sp)
     944:	d226                	sw	s1,36(sp)
     946:	ce4e                	sw	s3,28(sp)
     948:	c62e                	sw	a1,12(sp)
     94a:	d606                	sw	ra,44(sp)
     94c:	89aa                	mv	s3,a0
     94e:	c2818913          	addi	s2,gp,-984 # 200430 <__malloc_av_>
     952:	38b000ef          	jal	ra,14dc <__malloc_lock>
     956:	00892783          	lw	a5,8(s2)
     95a:	45b2                	lw	a1,12(sp)
     95c:	43c4                	lw	s1,4(a5)
     95e:	6785                	lui	a5,0x1
     960:	fef78413          	addi	s0,a5,-17 # fef <_malloc_r+0xb5>
     964:	98f1                	andi	s1,s1,-4
     966:	8c0d                	sub	s0,s0,a1
     968:	9426                	add	s0,s0,s1
     96a:	8031                	srli	s0,s0,0xc
     96c:	147d                	addi	s0,s0,-1
     96e:	0432                	slli	s0,s0,0xc
     970:	00f45d63          	ble	a5,s0,98a <_malloc_trim_r+0x4c>
     974:	854e                	mv	a0,s3
     976:	369000ef          	jal	ra,14de <__malloc_unlock>
     97a:	4501                	li	a0,0
     97c:	50b2                	lw	ra,44(sp)
     97e:	5422                	lw	s0,40(sp)
     980:	5492                	lw	s1,36(sp)
     982:	5902                	lw	s2,32(sp)
     984:	49f2                	lw	s3,28(sp)
     986:	6145                	addi	sp,sp,48
     988:	8082                	ret
     98a:	4581                	li	a1,0
     98c:	854e                	mv	a0,s3
     98e:	6e1000ef          	jal	ra,186e <_sbrk_r>
     992:	00892783          	lw	a5,8(s2)
     996:	97a6                	add	a5,a5,s1
     998:	fcf51ee3          	bne	a0,a5,974 <_malloc_trim_r+0x36>
     99c:	408005b3          	neg	a1,s0
     9a0:	854e                	mv	a0,s3
     9a2:	6cd000ef          	jal	ra,186e <_sbrk_r>
     9a6:	57fd                	li	a5,-1
     9a8:	02f51663          	bne	a0,a5,9d4 <_malloc_trim_r+0x96>
     9ac:	4581                	li	a1,0
     9ae:	854e                	mv	a0,s3
     9b0:	6bf000ef          	jal	ra,186e <_sbrk_r>
     9b4:	00892703          	lw	a4,8(s2)
     9b8:	46bd                	li	a3,15
     9ba:	40e507b3          	sub	a5,a0,a4
     9be:	faf6dbe3          	ble	a5,a3,974 <_malloc_trim_r+0x36>
     9c2:	03c1a683          	lw	a3,60(gp) # 200844 <__malloc_sbrk_base>
     9c6:	0017e793          	ori	a5,a5,1
     9ca:	c35c                	sw	a5,4(a4)
     9cc:	8d15                	sub	a0,a0,a3
     9ce:	04a1a823          	sw	a0,80(gp) # 200858 <__malloc_current_mallinfo>
     9d2:	b74d                	j	974 <_malloc_trim_r+0x36>
     9d4:	00892783          	lw	a5,8(s2)
     9d8:	8c81                	sub	s1,s1,s0
     9da:	0014e493          	ori	s1,s1,1
     9de:	c3c4                	sw	s1,4(a5)
     9e0:	0501a783          	lw	a5,80(gp) # 200858 <__malloc_current_mallinfo>
     9e4:	854e                	mv	a0,s3
     9e6:	40878433          	sub	s0,a5,s0
     9ea:	0481a823          	sw	s0,80(gp) # 200858 <__malloc_current_mallinfo>
     9ee:	2f1000ef          	jal	ra,14de <__malloc_unlock>
     9f2:	4505                	li	a0,1
     9f4:	b761                	j	97c <_malloc_trim_r+0x3e>

000009f6 <_free_r>:
     9f6:	18058e63          	beqz	a1,b92 <_free_r+0x19c>
     9fa:	1141                	addi	sp,sp,-16
     9fc:	c422                	sw	s0,8(sp)
     9fe:	c226                	sw	s1,4(sp)
     a00:	842a                	mv	s0,a0
     a02:	84ae                	mv	s1,a1
     a04:	c606                	sw	ra,12(sp)
     a06:	2d7000ef          	jal	ra,14dc <__malloc_lock>
     a0a:	ffc4a503          	lw	a0,-4(s1)
     a0e:	ff848693          	addi	a3,s1,-8
     a12:	ffe57793          	andi	a5,a0,-2
     a16:	c2818813          	addi	a6,gp,-984 # 200430 <__malloc_av_>
     a1a:	00f685b3          	add	a1,a3,a5
     a1e:	41d8                	lw	a4,4(a1)
     a20:	00882803          	lw	a6,8(a6)
     a24:	c2818613          	addi	a2,gp,-984 # 200430 <__malloc_av_>
     a28:	9b71                	andi	a4,a4,-4
     a2a:	8905                	andi	a0,a0,1
     a2c:	02b81f63          	bne	a6,a1,a6a <_free_r+0x74>
     a30:	97ba                	add	a5,a5,a4
     a32:	e909                	bnez	a0,a44 <_free_r+0x4e>
     a34:	ff84a703          	lw	a4,-8(s1)
     a38:	8e99                	sub	a3,a3,a4
     a3a:	468c                	lw	a1,8(a3)
     a3c:	97ba                	add	a5,a5,a4
     a3e:	46d8                	lw	a4,12(a3)
     a40:	c5d8                	sw	a4,12(a1)
     a42:	c70c                	sw	a1,8(a4)
     a44:	0017e713          	ori	a4,a5,1
     a48:	c2d8                	sw	a4,4(a3)
     a4a:	0401a703          	lw	a4,64(gp) # 200848 <__malloc_trim_threshold>
     a4e:	c614                	sw	a3,8(a2)
     a50:	00e7e663          	bltu	a5,a4,a5c <_free_r+0x66>
     a54:	04c1a583          	lw	a1,76(gp) # 200854 <__malloc_top_pad>
     a58:	8522                	mv	a0,s0
     a5a:	35d5                	jal	93e <_malloc_trim_r>
     a5c:	8522                	mv	a0,s0
     a5e:	4422                	lw	s0,8(sp)
     a60:	40b2                	lw	ra,12(sp)
     a62:	4492                	lw	s1,4(sp)
     a64:	0141                	addi	sp,sp,16
     a66:	2790006f          	j	14de <__malloc_unlock>
     a6a:	c1d8                	sw	a4,4(a1)
     a6c:	4801                	li	a6,0
     a6e:	e105                	bnez	a0,a8e <_free_r+0x98>
     a70:	ff84a503          	lw	a0,-8(s1)
     a74:	c3018893          	addi	a7,gp,-976 # 200438 <__malloc_av_+0x8>
     a78:	8e89                	sub	a3,a3,a0
     a7a:	97aa                	add	a5,a5,a0
     a7c:	4688                	lw	a0,8(a3)
     a7e:	07150a63          	beq	a0,a7,af2 <_free_r+0xfc>
     a82:	00c6a883          	lw	a7,12(a3) # 200c <__TEST_RODATA_END+0x98>
     a86:	01152623          	sw	a7,12(a0)
     a8a:	00a8a423          	sw	a0,8(a7)
     a8e:	00e58533          	add	a0,a1,a4
     a92:	4148                	lw	a0,4(a0)
     a94:	8905                	andi	a0,a0,1
     a96:	ed11                	bnez	a0,ab2 <_free_r+0xbc>
     a98:	97ba                	add	a5,a5,a4
     a9a:	4598                	lw	a4,8(a1)
     a9c:	04081d63          	bnez	a6,af6 <_free_r+0x100>
     aa0:	c3018513          	addi	a0,gp,-976 # 200438 <__malloc_av_+0x8>
     aa4:	04a71963          	bne	a4,a0,af6 <_free_r+0x100>
     aa8:	ca54                	sw	a3,20(a2)
     aaa:	ca14                	sw	a3,16(a2)
     aac:	c6d8                	sw	a4,12(a3)
     aae:	c698                	sw	a4,8(a3)
     ab0:	4805                	li	a6,1
     ab2:	0017e713          	ori	a4,a5,1
     ab6:	c2d8                	sw	a4,4(a3)
     ab8:	00f68733          	add	a4,a3,a5
     abc:	c31c                	sw	a5,0(a4)
     abe:	f8081fe3          	bnez	a6,a5c <_free_r+0x66>
     ac2:	1ff00713          	li	a4,511
     ac6:	02f76c63          	bltu	a4,a5,afe <_free_r+0x108>
     aca:	838d                	srli	a5,a5,0x3
     acc:	4027d593          	srai	a1,a5,0x2
     ad0:	4705                	li	a4,1
     ad2:	00b71733          	sll	a4,a4,a1
     ad6:	424c                	lw	a1,4(a2)
     ad8:	0785                	addi	a5,a5,1
     ada:	078e                	slli	a5,a5,0x3
     adc:	97b2                	add	a5,a5,a2
     ade:	8f4d                	or	a4,a4,a1
     ae0:	c258                	sw	a4,4(a2)
     ae2:	4398                	lw	a4,0(a5)
     ae4:	ff878613          	addi	a2,a5,-8
     ae8:	c6d0                	sw	a2,12(a3)
     aea:	c698                	sw	a4,8(a3)
     aec:	c394                	sw	a3,0(a5)
     aee:	c754                	sw	a3,12(a4)
     af0:	b7b5                	j	a5c <_free_r+0x66>
     af2:	4805                	li	a6,1
     af4:	bf69                	j	a8e <_free_r+0x98>
     af6:	45cc                	lw	a1,12(a1)
     af8:	c74c                	sw	a1,12(a4)
     afa:	c598                	sw	a4,8(a1)
     afc:	bf5d                	j	ab2 <_free_r+0xbc>
     afe:	0097d593          	srli	a1,a5,0x9
     b02:	4711                	li	a4,4
     b04:	02b76b63          	bltu	a4,a1,b3a <_free_r+0x144>
     b08:	0067d713          	srli	a4,a5,0x6
     b0c:	03870713          	addi	a4,a4,56
     b10:	00170593          	addi	a1,a4,1
     b14:	058e                	slli	a1,a1,0x3
     b16:	95b2                	add	a1,a1,a2
     b18:	ff858513          	addi	a0,a1,-8
     b1c:	418c                	lw	a1,0(a1)
     b1e:	06b51463          	bne	a0,a1,b86 <_free_r+0x190>
     b22:	4785                	li	a5,1
     b24:	8709                	srai	a4,a4,0x2
     b26:	00e79733          	sll	a4,a5,a4
     b2a:	425c                	lw	a5,4(a2)
     b2c:	8f5d                	or	a4,a4,a5
     b2e:	c258                	sw	a4,4(a2)
     b30:	c6c8                	sw	a0,12(a3)
     b32:	c68c                	sw	a1,8(a3)
     b34:	c514                	sw	a3,8(a0)
     b36:	c5d4                	sw	a3,12(a1)
     b38:	b715                	j	a5c <_free_r+0x66>
     b3a:	4751                	li	a4,20
     b3c:	00b76563          	bltu	a4,a1,b46 <_free_r+0x150>
     b40:	05b58713          	addi	a4,a1,91
     b44:	b7f1                	j	b10 <_free_r+0x11a>
     b46:	05400713          	li	a4,84
     b4a:	00b76763          	bltu	a4,a1,b58 <_free_r+0x162>
     b4e:	00c7d713          	srli	a4,a5,0xc
     b52:	06e70713          	addi	a4,a4,110
     b56:	bf6d                	j	b10 <_free_r+0x11a>
     b58:	15400713          	li	a4,340
     b5c:	00b76763          	bltu	a4,a1,b6a <_free_r+0x174>
     b60:	00f7d713          	srli	a4,a5,0xf
     b64:	07770713          	addi	a4,a4,119
     b68:	b765                	j	b10 <_free_r+0x11a>
     b6a:	55400513          	li	a0,1364
     b6e:	07e00713          	li	a4,126
     b72:	f8b56fe3          	bltu	a0,a1,b10 <_free_r+0x11a>
     b76:	0127d713          	srli	a4,a5,0x12
     b7a:	07c70713          	addi	a4,a4,124
     b7e:	bf49                	j	b10 <_free_r+0x11a>
     b80:	458c                	lw	a1,8(a1)
     b82:	00b50663          	beq	a0,a1,b8e <_free_r+0x198>
     b86:	41d8                	lw	a4,4(a1)
     b88:	9b71                	andi	a4,a4,-4
     b8a:	fee7ebe3          	bltu	a5,a4,b80 <_free_r+0x18a>
     b8e:	45c8                	lw	a0,12(a1)
     b90:	b745                	j	b30 <_free_r+0x13a>
     b92:	8082                	ret

00000b94 <__sfvwrite_r>:
     b94:	461c                	lw	a5,8(a2)
     b96:	e781                	bnez	a5,b9e <__sfvwrite_r+0xa>
     b98:	4781                	li	a5,0
     b9a:	853e                	mv	a0,a5
     b9c:	8082                	ret
     b9e:	00c5d783          	lhu	a5,12(a1)
     ba2:	715d                	addi	sp,sp,-80
     ba4:	c4a2                	sw	s0,72(sp)
     ba6:	c0ca                	sw	s2,64(sp)
     ba8:	da56                	sw	s5,52(sp)
     baa:	c686                	sw	ra,76(sp)
     bac:	c2a6                	sw	s1,68(sp)
     bae:	de4e                	sw	s3,60(sp)
     bb0:	dc52                	sw	s4,56(sp)
     bb2:	d85a                	sw	s6,48(sp)
     bb4:	d65e                	sw	s7,44(sp)
     bb6:	d462                	sw	s8,40(sp)
     bb8:	d266                	sw	s9,36(sp)
     bba:	d06a                	sw	s10,32(sp)
     bbc:	ce6e                	sw	s11,28(sp)
     bbe:	8ba1                	andi	a5,a5,8
     bc0:	8ab2                	mv	s5,a2
     bc2:	842e                	mv	s0,a1
     bc4:	892a                	mv	s2,a0
     bc6:	cfd9                	beqz	a5,c64 <__sfvwrite_r+0xd0>
     bc8:	499c                	lw	a5,16(a1)
     bca:	cfc9                	beqz	a5,c64 <__sfvwrite_r+0xd0>
     bcc:	00c45783          	lhu	a5,12(s0)
     bd0:	000aaa03          	lw	s4,0(s5)
     bd4:	0027f713          	andi	a4,a5,2
     bd8:	0e071863          	bnez	a4,cc8 <__sfvwrite_r+0x134>
     bdc:	8b85                	andi	a5,a5,1
     bde:	16078063          	beqz	a5,d3e <__sfvwrite_r+0x1aa>
     be2:	4b81                	li	s7,0
     be4:	4501                	li	a0,0
     be6:	4b01                	li	s6,0
     be8:	4981                	li	s3,0
     bea:	24098363          	beqz	s3,e30 <__sfvwrite_r+0x29c>
     bee:	ed01                	bnez	a0,c06 <__sfvwrite_r+0x72>
     bf0:	864e                	mv	a2,s3
     bf2:	45a9                	li	a1,10
     bf4:	855a                	mv	a0,s6
     bf6:	7d0000ef          	jal	ra,13c6 <memchr>
     bfa:	00198b93          	addi	s7,s3,1
     bfe:	c501                	beqz	a0,c06 <__sfvwrite_r+0x72>
     c00:	0505                	addi	a0,a0,1
     c02:	41650bb3          	sub	s7,a0,s6
     c06:	8c5e                	mv	s8,s7
     c08:	0179f363          	bleu	s7,s3,c0e <__sfvwrite_r+0x7a>
     c0c:	8c4e                	mv	s8,s3
     c0e:	4008                	lw	a0,0(s0)
     c10:	481c                	lw	a5,16(s0)
     c12:	4854                	lw	a3,20(s0)
     c14:	22a7f563          	bleu	a0,a5,e3e <__sfvwrite_r+0x2aa>
     c18:	4404                	lw	s1,8(s0)
     c1a:	94b6                	add	s1,s1,a3
     c1c:	2384d163          	ble	s8,s1,e3e <__sfvwrite_r+0x2aa>
     c20:	85da                	mv	a1,s6
     c22:	8626                	mv	a2,s1
     c24:	07b000ef          	jal	ra,149e <memmove>
     c28:	401c                	lw	a5,0(s0)
     c2a:	85a2                	mv	a1,s0
     c2c:	854a                	mv	a0,s2
     c2e:	97a6                	add	a5,a5,s1
     c30:	c01c                	sw	a5,0(s0)
     c32:	04a010ef          	jal	ra,1c7c <_fflush_r>
     c36:	0e051c63          	bnez	a0,d2e <__sfvwrite_r+0x19a>
     c3a:	409b8bb3          	sub	s7,s7,s1
     c3e:	4505                	li	a0,1
     c40:	000b9763          	bnez	s7,c4e <__sfvwrite_r+0xba>
     c44:	85a2                	mv	a1,s0
     c46:	854a                	mv	a0,s2
     c48:	034010ef          	jal	ra,1c7c <_fflush_r>
     c4c:	e16d                	bnez	a0,d2e <__sfvwrite_r+0x19a>
     c4e:	008aa783          	lw	a5,8(s5)
     c52:	9b26                	add	s6,s6,s1
     c54:	409989b3          	sub	s3,s3,s1
     c58:	409784b3          	sub	s1,a5,s1
     c5c:	009aa423          	sw	s1,8(s5)
     c60:	f4c9                	bnez	s1,bea <__sfvwrite_r+0x56>
     c62:	a091                	j	ca6 <__sfvwrite_r+0x112>
     c64:	85a2                	mv	a1,s0
     c66:	854a                	mv	a0,s2
     c68:	521000ef          	jal	ra,1988 <__swsetup_r>
     c6c:	57fd                	li	a5,-1
     c6e:	dd39                	beqz	a0,bcc <__sfvwrite_r+0x38>
     c70:	a825                	j	ca8 <__sfvwrite_r+0x114>
     c72:	000a2983          	lw	s3,0(s4)
     c76:	004a2483          	lw	s1,4(s4)
     c7a:	0a21                	addi	s4,s4,8
     c7c:	d8fd                	beqz	s1,c72 <__sfvwrite_r+0xde>
     c7e:	86a6                	mv	a3,s1
     c80:	009b7363          	bleu	s1,s6,c86 <__sfvwrite_r+0xf2>
     c84:	86da                	mv	a3,s6
     c86:	505c                	lw	a5,36(s0)
     c88:	4c4c                	lw	a1,28(s0)
     c8a:	864e                	mv	a2,s3
     c8c:	854a                	mv	a0,s2
     c8e:	9782                	jalr	a5
     c90:	08a05f63          	blez	a0,d2e <__sfvwrite_r+0x19a>
     c94:	008aa783          	lw	a5,8(s5)
     c98:	99aa                	add	s3,s3,a0
     c9a:	8c89                	sub	s1,s1,a0
     c9c:	40a78533          	sub	a0,a5,a0
     ca0:	00aaa423          	sw	a0,8(s5)
     ca4:	fd61                	bnez	a0,c7c <__sfvwrite_r+0xe8>
     ca6:	4781                	li	a5,0
     ca8:	40b6                	lw	ra,76(sp)
     caa:	4426                	lw	s0,72(sp)
     cac:	4496                	lw	s1,68(sp)
     cae:	4906                	lw	s2,64(sp)
     cb0:	59f2                	lw	s3,60(sp)
     cb2:	5a62                	lw	s4,56(sp)
     cb4:	5ad2                	lw	s5,52(sp)
     cb6:	5b42                	lw	s6,48(sp)
     cb8:	5bb2                	lw	s7,44(sp)
     cba:	5c22                	lw	s8,40(sp)
     cbc:	5c92                	lw	s9,36(sp)
     cbe:	5d02                	lw	s10,32(sp)
     cc0:	4df2                	lw	s11,28(sp)
     cc2:	853e                	mv	a0,a5
     cc4:	6161                	addi	sp,sp,80
     cc6:	8082                	ret
     cc8:	80000b37          	lui	s6,0x80000
     ccc:	4981                	li	s3,0
     cce:	4481                	li	s1,0
     cd0:	c00b4b13          	xori	s6,s6,-1024
     cd4:	b765                	j	c7c <__sfvwrite_r+0xe8>
     cd6:	000a2b03          	lw	s6,0(s4)
     cda:	004a2483          	lw	s1,4(s4)
     cde:	0a21                	addi	s4,s4,8
     ce0:	d8fd                	beqz	s1,cd6 <__sfvwrite_r+0x142>
     ce2:	00c45703          	lhu	a4,12(s0)
     ce6:	441c                	lw	a5,8(s0)
     ce8:	4008                	lw	a0,0(s0)
     cea:	20077693          	andi	a3,a4,512
     cee:	0e068563          	beqz	a3,dd8 <__sfvwrite_r+0x244>
     cf2:	08f4e863          	bltu	s1,a5,d82 <__sfvwrite_r+0x1ee>
     cf6:	48077693          	andi	a3,a4,1152
     cfa:	c6c1                	beqz	a3,d82 <__sfvwrite_r+0x1ee>
     cfc:	01442d83          	lw	s11,20(s0)
     d00:	480c                	lw	a1,16(s0)
     d02:	03bc8db3          	mul	s11,s9,s11
     d06:	40b509b3          	sub	s3,a0,a1
     d0a:	00198793          	addi	a5,s3,1
     d0e:	97a6                	add	a5,a5,s1
     d10:	03adcdb3          	div	s11,s11,s10
     d14:	00fdf363          	bleu	a5,s11,d1a <__sfvwrite_r+0x186>
     d18:	8dbe                	mv	s11,a5
     d1a:	40077713          	andi	a4,a4,1024
     d1e:	cf51                	beqz	a4,dba <__sfvwrite_r+0x226>
     d20:	85ee                	mv	a1,s11
     d22:	854a                	mv	a0,s2
     d24:	2c19                	jal	f3a <_malloc_r>
     d26:	e51d                	bnez	a0,d54 <__sfvwrite_r+0x1c0>
     d28:	47b1                	li	a5,12
     d2a:	00f92023          	sw	a5,0(s2)
     d2e:	00c45783          	lhu	a5,12(s0)
     d32:	0407e793          	ori	a5,a5,64
     d36:	00f41623          	sh	a5,12(s0)
     d3a:	57fd                	li	a5,-1
     d3c:	b7b5                	j	ca8 <__sfvwrite_r+0x114>
     d3e:	80000bb7          	lui	s7,0x80000
     d42:	ffebcc13          	xori	s8,s7,-2
     d46:	4b01                	li	s6,0
     d48:	4481                	li	s1,0
     d4a:	fffbcb93          	not	s7,s7
     d4e:	4c8d                	li	s9,3
     d50:	4d09                	li	s10,2
     d52:	b779                	j	ce0 <__sfvwrite_r+0x14c>
     d54:	480c                	lw	a1,16(s0)
     d56:	864e                	mv	a2,s3
     d58:	c62a                	sw	a0,12(sp)
     d5a:	2559                	jal	13e0 <memcpy>
     d5c:	00c45703          	lhu	a4,12(s0)
     d60:	47b2                	lw	a5,12(sp)
     d62:	b7f77713          	andi	a4,a4,-1153
     d66:	08076713          	ori	a4,a4,128
     d6a:	00e41623          	sh	a4,12(s0)
     d6e:	c81c                	sw	a5,16(s0)
     d70:	01b42a23          	sw	s11,20(s0)
     d74:	97ce                	add	a5,a5,s3
     d76:	413d8db3          	sub	s11,s11,s3
     d7a:	c01c                	sw	a5,0(s0)
     d7c:	01b42423          	sw	s11,8(s0)
     d80:	87a6                	mv	a5,s1
     d82:	89a6                	mv	s3,s1
     d84:	00f4f363          	bleu	a5,s1,d8a <__sfvwrite_r+0x1f6>
     d88:	87a6                	mv	a5,s1
     d8a:	4008                	lw	a0,0(s0)
     d8c:	863e                	mv	a2,a5
     d8e:	85da                	mv	a1,s6
     d90:	c63e                	sw	a5,12(sp)
     d92:	2731                	jal	149e <memmove>
     d94:	47b2                	lw	a5,12(sp)
     d96:	4418                	lw	a4,8(s0)
     d98:	8f1d                	sub	a4,a4,a5
     d9a:	c418                	sw	a4,8(s0)
     d9c:	4018                	lw	a4,0(s0)
     d9e:	97ba                	add	a5,a5,a4
     da0:	c01c                	sw	a5,0(s0)
     da2:	008aa783          	lw	a5,8(s5)
     da6:	9b4e                	add	s6,s6,s3
     da8:	413484b3          	sub	s1,s1,s3
     dac:	413789b3          	sub	s3,a5,s3
     db0:	013aa423          	sw	s3,8(s5)
     db4:	f20996e3          	bnez	s3,ce0 <__sfvwrite_r+0x14c>
     db8:	b5fd                	j	ca6 <__sfvwrite_r+0x112>
     dba:	866e                	mv	a2,s11
     dbc:	854a                	mv	a0,s2
     dbe:	270d                	jal	14e0 <_realloc_r>
     dc0:	87aa                	mv	a5,a0
     dc2:	f555                	bnez	a0,d6e <__sfvwrite_r+0x1da>
     dc4:	480c                	lw	a1,16(s0)
     dc6:	854a                	mv	a0,s2
     dc8:	313d                	jal	9f6 <_free_r>
     dca:	00c45783          	lhu	a5,12(s0)
     dce:	f7f7f793          	andi	a5,a5,-129
     dd2:	00f41623          	sh	a5,12(s0)
     dd6:	bf89                	j	d28 <__sfvwrite_r+0x194>
     dd8:	4818                	lw	a4,16(s0)
     dda:	00a76563          	bltu	a4,a0,de4 <__sfvwrite_r+0x250>
     dde:	4854                	lw	a3,20(s0)
     de0:	02d4f763          	bleu	a3,s1,e0e <__sfvwrite_r+0x27a>
     de4:	89be                	mv	s3,a5
     de6:	00f4f363          	bleu	a5,s1,dec <__sfvwrite_r+0x258>
     dea:	89a6                	mv	s3,s1
     dec:	864e                	mv	a2,s3
     dee:	85da                	mv	a1,s6
     df0:	257d                	jal	149e <memmove>
     df2:	441c                	lw	a5,8(s0)
     df4:	4018                	lw	a4,0(s0)
     df6:	413787b3          	sub	a5,a5,s3
     dfa:	974e                	add	a4,a4,s3
     dfc:	c41c                	sw	a5,8(s0)
     dfe:	c018                	sw	a4,0(s0)
     e00:	f3cd                	bnez	a5,da2 <__sfvwrite_r+0x20e>
     e02:	85a2                	mv	a1,s0
     e04:	854a                	mv	a0,s2
     e06:	677000ef          	jal	ra,1c7c <_fflush_r>
     e0a:	dd41                	beqz	a0,da2 <__sfvwrite_r+0x20e>
     e0c:	b70d                	j	d2e <__sfvwrite_r+0x19a>
     e0e:	87de                	mv	a5,s7
     e10:	009c6363          	bltu	s8,s1,e16 <__sfvwrite_r+0x282>
     e14:	87a6                	mv	a5,s1
     e16:	02d7c7b3          	div	a5,a5,a3
     e1a:	5058                	lw	a4,36(s0)
     e1c:	4c4c                	lw	a1,28(s0)
     e1e:	865a                	mv	a2,s6
     e20:	854a                	mv	a0,s2
     e22:	02d786b3          	mul	a3,a5,a3
     e26:	9702                	jalr	a4
     e28:	89aa                	mv	s3,a0
     e2a:	f6a04ce3          	bgtz	a0,da2 <__sfvwrite_r+0x20e>
     e2e:	b701                	j	d2e <__sfvwrite_r+0x19a>
     e30:	000a2b03          	lw	s6,0(s4)
     e34:	004a2983          	lw	s3,4(s4)
     e38:	4501                	li	a0,0
     e3a:	0a21                	addi	s4,s4,8
     e3c:	b37d                	j	bea <__sfvwrite_r+0x56>
     e3e:	00dc4b63          	blt	s8,a3,e54 <__sfvwrite_r+0x2c0>
     e42:	505c                	lw	a5,36(s0)
     e44:	4c4c                	lw	a1,28(s0)
     e46:	865a                	mv	a2,s6
     e48:	854a                	mv	a0,s2
     e4a:	9782                	jalr	a5
     e4c:	84aa                	mv	s1,a0
     e4e:	dea046e3          	bgtz	a0,c3a <__sfvwrite_r+0xa6>
     e52:	bdf1                	j	d2e <__sfvwrite_r+0x19a>
     e54:	8662                	mv	a2,s8
     e56:	85da                	mv	a1,s6
     e58:	2599                	jal	149e <memmove>
     e5a:	441c                	lw	a5,8(s0)
     e5c:	84e2                	mv	s1,s8
     e5e:	418787b3          	sub	a5,a5,s8
     e62:	c41c                	sw	a5,8(s0)
     e64:	401c                	lw	a5,0(s0)
     e66:	97e2                	add	a5,a5,s8
     e68:	c01c                	sw	a5,0(s0)
     e6a:	bbc1                	j	c3a <__sfvwrite_r+0xa6>

00000e6c <_fwalk>:
     e6c:	7179                	addi	sp,sp,-48
     e6e:	d422                	sw	s0,40(sp)
     e70:	d04a                	sw	s2,32(sp)
     e72:	cc52                	sw	s4,24(sp)
     e74:	ca56                	sw	s5,20(sp)
     e76:	d606                	sw	ra,44(sp)
     e78:	d226                	sw	s1,36(sp)
     e7a:	ce4e                	sw	s3,28(sp)
     e7c:	2e050413          	addi	s0,a0,736
     e80:	4901                	li	s2,0
     e82:	4a05                	li	s4,1
     e84:	5afd                	li	s5,-1
     e86:	e819                	bnez	s0,e9c <_fwalk+0x30>
     e88:	50b2                	lw	ra,44(sp)
     e8a:	5422                	lw	s0,40(sp)
     e8c:	854a                	mv	a0,s2
     e8e:	5492                	lw	s1,36(sp)
     e90:	5902                	lw	s2,32(sp)
     e92:	49f2                	lw	s3,28(sp)
     e94:	4a62                	lw	s4,24(sp)
     e96:	4ad2                	lw	s5,20(sp)
     e98:	6145                	addi	sp,sp,48
     e9a:	8082                	ret
     e9c:	4404                	lw	s1,8(s0)
     e9e:	00442983          	lw	s3,4(s0)
     ea2:	19fd                	addi	s3,s3,-1
     ea4:	0009d463          	bgez	s3,eac <_fwalk+0x40>
     ea8:	4000                	lw	s0,0(s0)
     eaa:	bff1                	j	e86 <_fwalk+0x1a>
     eac:	00c4d783          	lhu	a5,12(s1)
     eb0:	00fa7c63          	bleu	a5,s4,ec8 <_fwalk+0x5c>
     eb4:	00e49783          	lh	a5,14(s1)
     eb8:	01578863          	beq	a5,s5,ec8 <_fwalk+0x5c>
     ebc:	c62e                	sw	a1,12(sp)
     ebe:	8526                	mv	a0,s1
     ec0:	9582                	jalr	a1
     ec2:	45b2                	lw	a1,12(sp)
     ec4:	00a96933          	or	s2,s2,a0
     ec8:	06848493          	addi	s1,s1,104
     ecc:	bfd9                	j	ea2 <_fwalk+0x36>

00000ece <_fwalk_reent>:
     ece:	7179                	addi	sp,sp,-48
     ed0:	d422                	sw	s0,40(sp)
     ed2:	d04a                	sw	s2,32(sp)
     ed4:	cc52                	sw	s4,24(sp)
     ed6:	ca56                	sw	s5,20(sp)
     ed8:	c85a                	sw	s6,16(sp)
     eda:	c65e                	sw	s7,12(sp)
     edc:	d606                	sw	ra,44(sp)
     ede:	d226                	sw	s1,36(sp)
     ee0:	ce4e                	sw	s3,28(sp)
     ee2:	8a2a                	mv	s4,a0
     ee4:	8aae                	mv	s5,a1
     ee6:	2e050413          	addi	s0,a0,736
     eea:	4901                	li	s2,0
     eec:	4b05                	li	s6,1
     eee:	5bfd                	li	s7,-1
     ef0:	ec09                	bnez	s0,f0a <_fwalk_reent+0x3c>
     ef2:	50b2                	lw	ra,44(sp)
     ef4:	5422                	lw	s0,40(sp)
     ef6:	854a                	mv	a0,s2
     ef8:	5492                	lw	s1,36(sp)
     efa:	5902                	lw	s2,32(sp)
     efc:	49f2                	lw	s3,28(sp)
     efe:	4a62                	lw	s4,24(sp)
     f00:	4ad2                	lw	s5,20(sp)
     f02:	4b42                	lw	s6,16(sp)
     f04:	4bb2                	lw	s7,12(sp)
     f06:	6145                	addi	sp,sp,48
     f08:	8082                	ret
     f0a:	4404                	lw	s1,8(s0)
     f0c:	00442983          	lw	s3,4(s0)
     f10:	19fd                	addi	s3,s3,-1
     f12:	0009d463          	bgez	s3,f1a <_fwalk_reent+0x4c>
     f16:	4000                	lw	s0,0(s0)
     f18:	bfe1                	j	ef0 <_fwalk_reent+0x22>
     f1a:	00c4d783          	lhu	a5,12(s1)
     f1e:	00fb7b63          	bleu	a5,s6,f34 <_fwalk_reent+0x66>
     f22:	00e49783          	lh	a5,14(s1)
     f26:	01778763          	beq	a5,s7,f34 <_fwalk_reent+0x66>
     f2a:	85a6                	mv	a1,s1
     f2c:	8552                	mv	a0,s4
     f2e:	9a82                	jalr	s5
     f30:	00a96933          	or	s2,s2,a0
     f34:	06848493          	addi	s1,s1,104
     f38:	bfe1                	j	f10 <_fwalk_reent+0x42>

00000f3a <_malloc_r>:
     f3a:	7179                	addi	sp,sp,-48
     f3c:	d606                	sw	ra,44(sp)
     f3e:	d422                	sw	s0,40(sp)
     f40:	d226                	sw	s1,36(sp)
     f42:	d04a                	sw	s2,32(sp)
     f44:	ce4e                	sw	s3,28(sp)
     f46:	cc52                	sw	s4,24(sp)
     f48:	ca56                	sw	s5,20(sp)
     f4a:	c85a                	sw	s6,16(sp)
     f4c:	c65e                	sw	s7,12(sp)
     f4e:	c462                	sw	s8,8(sp)
     f50:	00b58793          	addi	a5,a1,11
     f54:	4759                	li	a4,22
     f56:	02f77563          	bleu	a5,a4,f80 <_malloc_r+0x46>
     f5a:	ff87f493          	andi	s1,a5,-8
     f5e:	0204d263          	bgez	s1,f82 <_malloc_r+0x48>
     f62:	47b1                	li	a5,12
     f64:	c11c                	sw	a5,0(a0)
     f66:	4501                	li	a0,0
     f68:	50b2                	lw	ra,44(sp)
     f6a:	5422                	lw	s0,40(sp)
     f6c:	5492                	lw	s1,36(sp)
     f6e:	5902                	lw	s2,32(sp)
     f70:	49f2                	lw	s3,28(sp)
     f72:	4a62                	lw	s4,24(sp)
     f74:	4ad2                	lw	s5,20(sp)
     f76:	4b42                	lw	s6,16(sp)
     f78:	4bb2                	lw	s7,12(sp)
     f7a:	4c22                	lw	s8,8(sp)
     f7c:	6145                	addi	sp,sp,48
     f7e:	8082                	ret
     f80:	44c1                	li	s1,16
     f82:	feb4e0e3          	bltu	s1,a1,f62 <_malloc_r+0x28>
     f86:	89aa                	mv	s3,a0
     f88:	2b91                	jal	14dc <__malloc_lock>
     f8a:	1f700793          	li	a5,503
     f8e:	c2818913          	addi	s2,gp,-984 # 200430 <__malloc_av_>
     f92:	0297ec63          	bltu	a5,s1,fca <_malloc_r+0x90>
     f96:	00848713          	addi	a4,s1,8
     f9a:	974a                	add	a4,a4,s2
     f9c:	4340                	lw	s0,4(a4)
     f9e:	ff870693          	addi	a3,a4,-8
     fa2:	0034d793          	srli	a5,s1,0x3
     fa6:	00d41663          	bne	s0,a3,fb2 <_malloc_r+0x78>
     faa:	4740                	lw	s0,12(a4)
     fac:	0789                	addi	a5,a5,2
     fae:	04870c63          	beq	a4,s0,1006 <_malloc_r+0xcc>
     fb2:	405c                	lw	a5,4(s0)
     fb4:	4458                	lw	a4,12(s0)
     fb6:	4414                	lw	a3,8(s0)
     fb8:	9bf1                	andi	a5,a5,-4
     fba:	97a2                	add	a5,a5,s0
     fbc:	c6d8                	sw	a4,12(a3)
     fbe:	c714                	sw	a3,8(a4)
     fc0:	43d8                	lw	a4,4(a5)
     fc2:	00176713          	ori	a4,a4,1
     fc6:	c3d8                	sw	a4,4(a5)
     fc8:	a8b5                	j	1044 <_malloc_r+0x10a>
     fca:	0094d713          	srli	a4,s1,0x9
     fce:	03f00793          	li	a5,63
     fd2:	cb01                	beqz	a4,fe2 <_malloc_r+0xa8>
     fd4:	4791                	li	a5,4
     fd6:	06e7ec63          	bltu	a5,a4,104e <_malloc_r+0x114>
     fda:	0064d793          	srli	a5,s1,0x6
     fde:	03878793          	addi	a5,a5,56
     fe2:	00178713          	addi	a4,a5,1
     fe6:	070e                	slli	a4,a4,0x3
     fe8:	974a                	add	a4,a4,s2
     fea:	4340                	lw	s0,4(a4)
     fec:	ff870593          	addi	a1,a4,-8
     ff0:	453d                	li	a0,15
     ff2:	00b40963          	beq	s0,a1,1004 <_malloc_r+0xca>
     ff6:	4058                	lw	a4,4(s0)
     ff8:	9b71                	andi	a4,a4,-4
     ffa:	40970633          	sub	a2,a4,s1
     ffe:	08c55b63          	ble	a2,a0,1094 <_malloc_r+0x15a>
    1002:	17fd                	addi	a5,a5,-1
    1004:	0785                	addi	a5,a5,1
    1006:	01092403          	lw	s0,16(s2)
    100a:	00890693          	addi	a3,s2,8
    100e:	c3018593          	addi	a1,gp,-976 # 200438 <__malloc_av_+0x8>
    1012:	0ed40263          	beq	s0,a3,10f6 <_malloc_r+0x1bc>
    1016:	4058                	lw	a4,4(s0)
    1018:	463d                	li	a2,15
    101a:	9b71                	andi	a4,a4,-4
    101c:	40970533          	sub	a0,a4,s1
    1020:	08a65563          	ble	a0,a2,10aa <_malloc_r+0x170>
    1024:	0014e793          	ori	a5,s1,1
    1028:	c05c                	sw	a5,4(s0)
    102a:	00940633          	add	a2,s0,s1
    102e:	00c92a23          	sw	a2,20(s2)
    1032:	00c92823          	sw	a2,16(s2)
    1036:	00156793          	ori	a5,a0,1
    103a:	c654                	sw	a3,12(a2)
    103c:	c614                	sw	a3,8(a2)
    103e:	c25c                	sw	a5,4(a2)
    1040:	9722                	add	a4,a4,s0
    1042:	c308                	sw	a0,0(a4)
    1044:	854e                	mv	a0,s3
    1046:	2961                	jal	14de <__malloc_unlock>
    1048:	00840513          	addi	a0,s0,8
    104c:	bf31                	j	f68 <_malloc_r+0x2e>
    104e:	47d1                	li	a5,20
    1050:	00e7e563          	bltu	a5,a4,105a <_malloc_r+0x120>
    1054:	05b70793          	addi	a5,a4,91
    1058:	b769                	j	fe2 <_malloc_r+0xa8>
    105a:	05400793          	li	a5,84
    105e:	00e7e763          	bltu	a5,a4,106c <_malloc_r+0x132>
    1062:	00c4d793          	srli	a5,s1,0xc
    1066:	06e78793          	addi	a5,a5,110
    106a:	bfa5                	j	fe2 <_malloc_r+0xa8>
    106c:	15400793          	li	a5,340
    1070:	00e7e763          	bltu	a5,a4,107e <_malloc_r+0x144>
    1074:	00f4d793          	srli	a5,s1,0xf
    1078:	07778793          	addi	a5,a5,119
    107c:	b79d                	j	fe2 <_malloc_r+0xa8>
    107e:	55400693          	li	a3,1364
    1082:	07e00793          	li	a5,126
    1086:	f4e6eee3          	bltu	a3,a4,fe2 <_malloc_r+0xa8>
    108a:	0124d793          	srli	a5,s1,0x12
    108e:	07c78793          	addi	a5,a5,124
    1092:	bf81                	j	fe2 <_malloc_r+0xa8>
    1094:	4454                	lw	a3,12(s0)
    1096:	00064863          	bltz	a2,10a6 <_malloc_r+0x16c>
    109a:	441c                	lw	a5,8(s0)
    109c:	c7d4                	sw	a3,12(a5)
    109e:	c69c                	sw	a5,8(a3)
    10a0:	00e407b3          	add	a5,s0,a4
    10a4:	bf31                	j	fc0 <_malloc_r+0x86>
    10a6:	8436                	mv	s0,a3
    10a8:	b7a9                	j	ff2 <_malloc_r+0xb8>
    10aa:	00d92a23          	sw	a3,20(s2)
    10ae:	00d92823          	sw	a3,16(s2)
    10b2:	00054863          	bltz	a0,10c2 <_malloc_r+0x188>
    10b6:	9722                	add	a4,a4,s0
    10b8:	435c                	lw	a5,4(a4)
    10ba:	0017e793          	ori	a5,a5,1
    10be:	c35c                	sw	a5,4(a4)
    10c0:	b751                	j	1044 <_malloc_r+0x10a>
    10c2:	1ff00693          	li	a3,511
    10c6:	00492803          	lw	a6,4(s2)
    10ca:	10e6ee63          	bltu	a3,a4,11e6 <_malloc_r+0x2ac>
    10ce:	830d                	srli	a4,a4,0x3
    10d0:	40275613          	srai	a2,a4,0x2
    10d4:	4685                	li	a3,1
    10d6:	0705                	addi	a4,a4,1
    10d8:	00c696b3          	sll	a3,a3,a2
    10dc:	070e                	slli	a4,a4,0x3
    10de:	974a                	add	a4,a4,s2
    10e0:	0106e6b3          	or	a3,a3,a6
    10e4:	00d92223          	sw	a3,4(s2)
    10e8:	4314                	lw	a3,0(a4)
    10ea:	ff870613          	addi	a2,a4,-8
    10ee:	c450                	sw	a2,12(s0)
    10f0:	c414                	sw	a3,8(s0)
    10f2:	c300                	sw	s0,0(a4)
    10f4:	c6c0                	sw	s0,12(a3)
    10f6:	4027d713          	srai	a4,a5,0x2
    10fa:	4305                	li	t1,1
    10fc:	00e31333          	sll	t1,t1,a4
    1100:	00492703          	lw	a4,4(s2)
    1104:	04676c63          	bltu	a4,t1,115c <_malloc_r+0x222>
    1108:	006776b3          	and	a3,a4,t1
    110c:	e699                	bnez	a3,111a <_malloc_r+0x1e0>
    110e:	9bf1                	andi	a5,a5,-4
    1110:	0306                	slli	t1,t1,0x1
    1112:	006776b3          	and	a3,a4,t1
    1116:	0791                	addi	a5,a5,4
    1118:	dee5                	beqz	a3,1110 <_malloc_r+0x1d6>
    111a:	4e3d                	li	t3,15
    111c:	00379693          	slli	a3,a5,0x3
    1120:	96ca                	add	a3,a3,s2
    1122:	8836                	mv	a6,a3
    1124:	853e                	mv	a0,a5
    1126:	00c82403          	lw	s0,12(a6)
    112a:	15041963          	bne	s0,a6,127c <_malloc_r+0x342>
    112e:	0505                	addi	a0,a0,1
    1130:	00357713          	andi	a4,a0,3
    1134:	0821                	addi	a6,a6,8
    1136:	fb65                	bnez	a4,1126 <_malloc_r+0x1ec>
    1138:	0037f713          	andi	a4,a5,3
    113c:	18071963          	bnez	a4,12ce <_malloc_r+0x394>
    1140:	00492703          	lw	a4,4(s2)
    1144:	fff34793          	not	a5,t1
    1148:	8ff9                	and	a5,a5,a4
    114a:	00f92223          	sw	a5,4(s2)
    114e:	00492703          	lw	a4,4(s2)
    1152:	0306                	slli	t1,t1,0x1
    1154:	00676463          	bltu	a4,t1,115c <_malloc_r+0x222>
    1158:	18031863          	bnez	t1,12e8 <_malloc_r+0x3ae>
    115c:	00892b83          	lw	s7,8(s2)
    1160:	004ba403          	lw	s0,4(s7) # 80000004 <pulp__FC+0x80000005>
    1164:	ffc47a93          	andi	s5,s0,-4
    1168:	009ae763          	bltu	s5,s1,1176 <_malloc_r+0x23c>
    116c:	409a8733          	sub	a4,s5,s1
    1170:	47bd                	li	a5,15
    1172:	24e7c063          	blt	a5,a4,13b2 <_malloc_r+0x478>
    1176:	04c1a403          	lw	s0,76(gp) # 200854 <__malloc_top_pad>
    117a:	03c1a703          	lw	a4,60(gp) # 200844 <__malloc_sbrk_base>
    117e:	57fd                	li	a5,-1
    1180:	9426                	add	s0,s0,s1
    1182:	16f71563          	bne	a4,a5,12ec <_malloc_r+0x3b2>
    1186:	0441                	addi	s0,s0,16
    1188:	85a2                	mv	a1,s0
    118a:	854e                	mv	a0,s3
    118c:	25cd                	jal	186e <_sbrk_r>
    118e:	57fd                	li	a5,-1
    1190:	8b2a                	mv	s6,a0
    1192:	1cf50663          	beq	a0,a5,135e <_malloc_r+0x424>
    1196:	015b87b3          	add	a5,s7,s5
    119a:	00f57463          	bleu	a5,a0,11a2 <_malloc_r+0x268>
    119e:	1d2b9063          	bne	s7,s2,135e <_malloc_r+0x424>
    11a2:	05018693          	addi	a3,gp,80 # 200858 <__malloc_current_mallinfo>
    11a6:	4298                	lw	a4,0(a3)
    11a8:	05018c13          	addi	s8,gp,80 # 200858 <__malloc_current_mallinfo>
    11ac:	9722                	add	a4,a4,s0
    11ae:	c298                	sw	a4,0(a3)
    11b0:	15679463          	bne	a5,s6,12f8 <_malloc_r+0x3be>
    11b4:	01479693          	slli	a3,a5,0x14
    11b8:	14069063          	bnez	a3,12f8 <_malloc_r+0x3be>
    11bc:	00892783          	lw	a5,8(s2)
    11c0:	9456                	add	s0,s0,s5
    11c2:	00146413          	ori	s0,s0,1
    11c6:	c3c0                	sw	s0,4(a5)
    11c8:	000c2783          	lw	a5,0(s8)
    11cc:	0481a683          	lw	a3,72(gp) # 200850 <__malloc_max_sbrked_mem>
    11d0:	00f6f463          	bleu	a5,a3,11d8 <_malloc_r+0x29e>
    11d4:	04f1a423          	sw	a5,72(gp) # 200850 <__malloc_max_sbrked_mem>
    11d8:	0441a683          	lw	a3,68(gp) # 20084c <_edata>
    11dc:	18f6f163          	bleu	a5,a3,135e <_malloc_r+0x424>
    11e0:	04f1a223          	sw	a5,68(gp) # 20084c <_edata>
    11e4:	aaad                	j	135e <_malloc_r+0x424>
    11e6:	00975613          	srli	a2,a4,0x9
    11ea:	4691                	li	a3,4
    11ec:	02c6ec63          	bltu	a3,a2,1224 <_malloc_r+0x2ea>
    11f0:	00675693          	srli	a3,a4,0x6
    11f4:	03868693          	addi	a3,a3,56
    11f8:	00168613          	addi	a2,a3,1
    11fc:	060e                	slli	a2,a2,0x3
    11fe:	964a                	add	a2,a2,s2
    1200:	ff860513          	addi	a0,a2,-8
    1204:	4210                	lw	a2,0(a2)
    1206:	06c51563          	bne	a0,a2,1270 <_malloc_r+0x336>
    120a:	8689                	srai	a3,a3,0x2
    120c:	4705                	li	a4,1
    120e:	00d716b3          	sll	a3,a4,a3
    1212:	0106e6b3          	or	a3,a3,a6
    1216:	00d92223          	sw	a3,4(s2)
    121a:	c448                	sw	a0,12(s0)
    121c:	c410                	sw	a2,8(s0)
    121e:	c500                	sw	s0,8(a0)
    1220:	c640                	sw	s0,12(a2)
    1222:	bdd1                	j	10f6 <_malloc_r+0x1bc>
    1224:	46d1                	li	a3,20
    1226:	00c6e563          	bltu	a3,a2,1230 <_malloc_r+0x2f6>
    122a:	05b60693          	addi	a3,a2,91
    122e:	b7e9                	j	11f8 <_malloc_r+0x2be>
    1230:	05400693          	li	a3,84
    1234:	00c6e763          	bltu	a3,a2,1242 <_malloc_r+0x308>
    1238:	00c75693          	srli	a3,a4,0xc
    123c:	06e68693          	addi	a3,a3,110
    1240:	bf65                	j	11f8 <_malloc_r+0x2be>
    1242:	15400693          	li	a3,340
    1246:	00c6e763          	bltu	a3,a2,1254 <_malloc_r+0x31a>
    124a:	00f75693          	srli	a3,a4,0xf
    124e:	07768693          	addi	a3,a3,119
    1252:	b75d                	j	11f8 <_malloc_r+0x2be>
    1254:	55400513          	li	a0,1364
    1258:	07e00693          	li	a3,126
    125c:	f8c56ee3          	bltu	a0,a2,11f8 <_malloc_r+0x2be>
    1260:	01275693          	srli	a3,a4,0x12
    1264:	07c68693          	addi	a3,a3,124
    1268:	bf41                	j	11f8 <_malloc_r+0x2be>
    126a:	4610                	lw	a2,8(a2)
    126c:	00c50663          	beq	a0,a2,1278 <_malloc_r+0x33e>
    1270:	4254                	lw	a3,4(a2)
    1272:	9af1                	andi	a3,a3,-4
    1274:	fed76be3          	bltu	a4,a3,126a <_malloc_r+0x330>
    1278:	4648                	lw	a0,12(a2)
    127a:	b745                	j	121a <_malloc_r+0x2e0>
    127c:	4058                	lw	a4,4(s0)
    127e:	4450                	lw	a2,12(s0)
    1280:	9b71                	andi	a4,a4,-4
    1282:	409708b3          	sub	a7,a4,s1
    1286:	031e5763          	ble	a7,t3,12b4 <_malloc_r+0x37a>
    128a:	0014e793          	ori	a5,s1,1
    128e:	c05c                	sw	a5,4(s0)
    1290:	441c                	lw	a5,8(s0)
    1292:	009406b3          	add	a3,s0,s1
    1296:	9722                	add	a4,a4,s0
    1298:	c7d0                	sw	a2,12(a5)
    129a:	c61c                	sw	a5,8(a2)
    129c:	00d92a23          	sw	a3,20(s2)
    12a0:	00d92823          	sw	a3,16(s2)
    12a4:	0018e793          	ori	a5,a7,1
    12a8:	c6cc                	sw	a1,12(a3)
    12aa:	c68c                	sw	a1,8(a3)
    12ac:	c2dc                	sw	a5,4(a3)
    12ae:	01172023          	sw	a7,0(a4)
    12b2:	bb49                	j	1044 <_malloc_r+0x10a>
    12b4:	0008cb63          	bltz	a7,12ca <_malloc_r+0x390>
    12b8:	9722                	add	a4,a4,s0
    12ba:	435c                	lw	a5,4(a4)
    12bc:	0017e793          	ori	a5,a5,1
    12c0:	c35c                	sw	a5,4(a4)
    12c2:	441c                	lw	a5,8(s0)
    12c4:	c7d0                	sw	a2,12(a5)
    12c6:	c61c                	sw	a5,8(a2)
    12c8:	bbb5                	j	1044 <_malloc_r+0x10a>
    12ca:	8432                	mv	s0,a2
    12cc:	bdb9                	j	112a <_malloc_r+0x1f0>
    12ce:	ff868713          	addi	a4,a3,-8
    12d2:	4294                	lw	a3,0(a3)
    12d4:	17fd                	addi	a5,a5,-1
    12d6:	e6e681e3          	beq	a3,a4,1138 <_malloc_r+0x1fe>
    12da:	bd95                	j	114e <_malloc_r+0x214>
    12dc:	0791                	addi	a5,a5,4
    12de:	0306                	slli	t1,t1,0x1
    12e0:	006776b3          	and	a3,a4,t1
    12e4:	dee5                	beqz	a3,12dc <_malloc_r+0x3a2>
    12e6:	bd1d                	j	111c <_malloc_r+0x1e2>
    12e8:	87aa                	mv	a5,a0
    12ea:	bfdd                	j	12e0 <_malloc_r+0x3a6>
    12ec:	6785                	lui	a5,0x1
    12ee:	07bd                	addi	a5,a5,15
    12f0:	943e                	add	s0,s0,a5
    12f2:	77fd                	lui	a5,0xfffff
    12f4:	8c7d                	and	s0,s0,a5
    12f6:	bd49                	j	1188 <_malloc_r+0x24e>
    12f8:	03c1a603          	lw	a2,60(gp) # 200844 <__malloc_sbrk_base>
    12fc:	56fd                	li	a3,-1
    12fe:	06d61e63          	bne	a2,a3,137a <_malloc_r+0x440>
    1302:	0361ae23          	sw	s6,60(gp) # 200844 <__malloc_sbrk_base>
    1306:	007b7593          	andi	a1,s6,7
    130a:	c589                	beqz	a1,1314 <_malloc_r+0x3da>
    130c:	47a1                	li	a5,8
    130e:	40b785b3          	sub	a1,a5,a1
    1312:	9b2e                	add	s6,s6,a1
    1314:	6785                	lui	a5,0x1
    1316:	95be                	add	a1,a1,a5
    1318:	945a                	add	s0,s0,s6
    131a:	17fd                	addi	a5,a5,-1
    131c:	8c7d                	and	s0,s0,a5
    131e:	40858a33          	sub	s4,a1,s0
    1322:	85d2                	mv	a1,s4
    1324:	854e                	mv	a0,s3
    1326:	23a1                	jal	186e <_sbrk_r>
    1328:	57fd                	li	a5,-1
    132a:	00f51463          	bne	a0,a5,1332 <_malloc_r+0x3f8>
    132e:	855a                	mv	a0,s6
    1330:	4a01                	li	s4,0
    1332:	000c2783          	lw	a5,0(s8)
    1336:	41650533          	sub	a0,a0,s6
    133a:	01692423          	sw	s6,8(s2)
    133e:	97d2                	add	a5,a5,s4
    1340:	9a2a                	add	s4,s4,a0
    1342:	001a6a13          	ori	s4,s4,1
    1346:	00fc2023          	sw	a5,0(s8)
    134a:	014b2223          	sw	s4,4(s6) # 80000004 <pulp__FC+0x80000005>
    134e:	e72b8de3          	beq	s7,s2,11c8 <_malloc_r+0x28e>
    1352:	473d                	li	a4,15
    1354:	03576963          	bltu	a4,s5,1386 <_malloc_r+0x44c>
    1358:	4785                	li	a5,1
    135a:	00fb2223          	sw	a5,4(s6)
    135e:	00892783          	lw	a5,8(s2)
    1362:	43dc                	lw	a5,4(a5)
    1364:	9bf1                	andi	a5,a5,-4
    1366:	40978733          	sub	a4,a5,s1
    136a:	0097e563          	bltu	a5,s1,1374 <_malloc_r+0x43a>
    136e:	47bd                	li	a5,15
    1370:	04e7c163          	blt	a5,a4,13b2 <_malloc_r+0x478>
    1374:	854e                	mv	a0,s3
    1376:	22a5                	jal	14de <__malloc_unlock>
    1378:	b6fd                	j	f66 <_malloc_r+0x2c>
    137a:	40fb07b3          	sub	a5,s6,a5
    137e:	97ba                	add	a5,a5,a4
    1380:	00fc2023          	sw	a5,0(s8)
    1384:	b749                	j	1306 <_malloc_r+0x3cc>
    1386:	004ba783          	lw	a5,4(s7)
    138a:	ff4a8413          	addi	s0,s5,-12
    138e:	9861                	andi	s0,s0,-8
    1390:	8b85                	andi	a5,a5,1
    1392:	8fc1                	or	a5,a5,s0
    1394:	00fba223          	sw	a5,4(s7)
    1398:	4695                	li	a3,5
    139a:	008b87b3          	add	a5,s7,s0
    139e:	c3d4                	sw	a3,4(a5)
    13a0:	c794                	sw	a3,8(a5)
    13a2:	e28773e3          	bleu	s0,a4,11c8 <_malloc_r+0x28e>
    13a6:	008b8593          	addi	a1,s7,8
    13aa:	854e                	mv	a0,s3
    13ac:	e4aff0ef          	jal	ra,9f6 <_free_r>
    13b0:	bd21                	j	11c8 <_malloc_r+0x28e>
    13b2:	00892403          	lw	s0,8(s2)
    13b6:	0014e793          	ori	a5,s1,1
    13ba:	c05c                	sw	a5,4(s0)
    13bc:	009407b3          	add	a5,s0,s1
    13c0:	00f92423          	sw	a5,8(s2)
    13c4:	befd                	j	fc2 <_malloc_r+0x88>

000013c6 <memchr>:
    13c6:	0ff5f593          	andi	a1,a1,255
    13ca:	962a                	add	a2,a2,a0
    13cc:	00c51463          	bne	a0,a2,13d4 <memchr+0xe>
    13d0:	4501                	li	a0,0
    13d2:	8082                	ret
    13d4:	00054783          	lbu	a5,0(a0)
    13d8:	feb78de3          	beq	a5,a1,13d2 <memchr+0xc>
    13dc:	0505                	addi	a0,a0,1
    13de:	b7fd                	j	13cc <memchr+0x6>

000013e0 <memcpy>:
    13e0:	00a5c7b3          	xor	a5,a1,a0
    13e4:	8b8d                	andi	a5,a5,3
    13e6:	00c50733          	add	a4,a0,a2
    13ea:	e781                	bnez	a5,13f2 <memcpy+0x12>
    13ec:	478d                	li	a5,3
    13ee:	00c7ef63          	bltu	a5,a2,140c <memcpy+0x2c>
    13f2:	87aa                	mv	a5,a0
    13f4:	00e56963          	bltu	a0,a4,1406 <memcpy+0x26>
    13f8:	8082                	ret
    13fa:	0005c683          	lbu	a3,0(a1)
    13fe:	0785                	addi	a5,a5,1
    1400:	0585                	addi	a1,a1,1
    1402:	fed78fa3          	sb	a3,-1(a5) # fff <_malloc_r+0xc5>
    1406:	fee7eae3          	bltu	a5,a4,13fa <memcpy+0x1a>
    140a:	8082                	ret
    140c:	00357793          	andi	a5,a0,3
    1410:	ebbd                	bnez	a5,1486 <memcpy+0xa6>
    1412:	87aa                	mv	a5,a0
    1414:	ffc77693          	andi	a3,a4,-4
    1418:	fe068613          	addi	a2,a3,-32
    141c:	06c7fc63          	bleu	a2,a5,1494 <memcpy+0xb4>
    1420:	0005a383          	lw	t2,0(a1)
    1424:	0045a283          	lw	t0,4(a1)
    1428:	0085af83          	lw	t6,8(a1)
    142c:	00c5af03          	lw	t5,12(a1)
    1430:	0105ae83          	lw	t4,16(a1)
    1434:	0145ae03          	lw	t3,20(a1)
    1438:	0185a303          	lw	t1,24(a1)
    143c:	01c5a883          	lw	a7,28(a1)
    1440:	02458593          	addi	a1,a1,36
    1444:	02478793          	addi	a5,a5,36
    1448:	ffc5a803          	lw	a6,-4(a1)
    144c:	fc77ae23          	sw	t2,-36(a5)
    1450:	fe57a023          	sw	t0,-32(a5)
    1454:	fff7a223          	sw	t6,-28(a5)
    1458:	ffe7a423          	sw	t5,-24(a5)
    145c:	ffd7a623          	sw	t4,-20(a5)
    1460:	ffc7a823          	sw	t3,-16(a5)
    1464:	fe67aa23          	sw	t1,-12(a5)
    1468:	ff17ac23          	sw	a7,-8(a5)
    146c:	ff07ae23          	sw	a6,-4(a5)
    1470:	b775                	j	141c <memcpy+0x3c>
    1472:	0005c683          	lbu	a3,0(a1)
    1476:	0785                	addi	a5,a5,1
    1478:	0585                	addi	a1,a1,1
    147a:	fed78fa3          	sb	a3,-1(a5)
    147e:	0037f693          	andi	a3,a5,3
    1482:	fae5                	bnez	a3,1472 <memcpy+0x92>
    1484:	bf41                	j	1414 <memcpy+0x34>
    1486:	87aa                	mv	a5,a0
    1488:	bfdd                	j	147e <memcpy+0x9e>
    148a:	4190                	lw	a2,0(a1)
    148c:	0791                	addi	a5,a5,4
    148e:	0591                	addi	a1,a1,4
    1490:	fec7ae23          	sw	a2,-4(a5)
    1494:	fed7ebe3          	bltu	a5,a3,148a <memcpy+0xaa>
    1498:	f6e7e7e3          	bltu	a5,a4,1406 <memcpy+0x26>
    149c:	8082                	ret

0000149e <memmove>:
    149e:	00c50733          	add	a4,a0,a2
    14a2:	00a5e663          	bltu	a1,a0,14ae <memmove+0x10>
    14a6:	87aa                	mv	a5,a0
    14a8:	02f71363          	bne	a4,a5,14ce <memmove+0x30>
    14ac:	8082                	ret
    14ae:	00c587b3          	add	a5,a1,a2
    14b2:	8e1d                	sub	a2,a2,a5
    14b4:	fef579e3          	bleu	a5,a0,14a6 <memmove+0x8>
    14b8:	00c786b3          	add	a3,a5,a2
    14bc:	e291                	bnez	a3,14c0 <memmove+0x22>
    14be:	8082                	ret
    14c0:	17fd                	addi	a5,a5,-1
    14c2:	0007c683          	lbu	a3,0(a5)
    14c6:	177d                	addi	a4,a4,-1
    14c8:	00d70023          	sb	a3,0(a4)
    14cc:	b7f5                	j	14b8 <memmove+0x1a>
    14ce:	0585                	addi	a1,a1,1
    14d0:	fff5c683          	lbu	a3,-1(a1)
    14d4:	0785                	addi	a5,a5,1
    14d6:	fed78fa3          	sb	a3,-1(a5)
    14da:	b7f9                	j	14a8 <memmove+0xa>

000014dc <__malloc_lock>:
    14dc:	8082                	ret

000014de <__malloc_unlock>:
    14de:	8082                	ret

000014e0 <_realloc_r>:
    14e0:	7139                	addi	sp,sp,-64
    14e2:	dc22                	sw	s0,56(sp)
    14e4:	de06                	sw	ra,60(sp)
    14e6:	842e                	mv	s0,a1
    14e8:	da26                	sw	s1,52(sp)
    14ea:	d84a                	sw	s2,48(sp)
    14ec:	d64e                	sw	s3,44(sp)
    14ee:	d452                	sw	s4,40(sp)
    14f0:	d256                	sw	s5,36(sp)
    14f2:	d05a                	sw	s6,32(sp)
    14f4:	ce5e                	sw	s7,28(sp)
    14f6:	cc62                	sw	s8,24(sp)
    14f8:	85b2                	mv	a1,a2
    14fa:	ec09                	bnez	s0,1514 <_realloc_r+0x34>
    14fc:	5462                	lw	s0,56(sp)
    14fe:	50f2                	lw	ra,60(sp)
    1500:	54d2                	lw	s1,52(sp)
    1502:	5942                	lw	s2,48(sp)
    1504:	59b2                	lw	s3,44(sp)
    1506:	5a22                	lw	s4,40(sp)
    1508:	5a92                	lw	s5,36(sp)
    150a:	5b02                	lw	s6,32(sp)
    150c:	4bf2                	lw	s7,28(sp)
    150e:	4c62                	lw	s8,24(sp)
    1510:	6121                	addi	sp,sp,64
    1512:	b425                	j	f3a <_malloc_r>
    1514:	8aaa                	mv	s5,a0
    1516:	c632                	sw	a2,12(sp)
    1518:	37d1                	jal	14dc <__malloc_lock>
    151a:	45b2                	lw	a1,12(sp)
    151c:	ffc42683          	lw	a3,-4(s0)
    1520:	47d9                	li	a5,22
    1522:	00b58993          	addi	s3,a1,11
    1526:	ff840b93          	addi	s7,s0,-8
    152a:	ffc6f913          	andi	s2,a3,-4
    152e:	0337f763          	bleu	s3,a5,155c <_realloc_r+0x7c>
    1532:	ff89fb13          	andi	s6,s3,-8
    1536:	020b5463          	bgez	s6,155e <_realloc_r+0x7e>
    153a:	47b1                	li	a5,12
    153c:	00faa023          	sw	a5,0(s5)
    1540:	4a01                	li	s4,0
    1542:	50f2                	lw	ra,60(sp)
    1544:	5462                	lw	s0,56(sp)
    1546:	8552                	mv	a0,s4
    1548:	54d2                	lw	s1,52(sp)
    154a:	5942                	lw	s2,48(sp)
    154c:	59b2                	lw	s3,44(sp)
    154e:	5a22                	lw	s4,40(sp)
    1550:	5a92                	lw	s5,36(sp)
    1552:	5b02                	lw	s6,32(sp)
    1554:	4bf2                	lw	s7,28(sp)
    1556:	4c62                	lw	s8,24(sp)
    1558:	6121                	addi	sp,sp,64
    155a:	8082                	ret
    155c:	4b41                	li	s6,16
    155e:	fcbb6ee3          	bltu	s6,a1,153a <_realloc_r+0x5a>
    1562:	2f695b63          	ble	s6,s2,1858 <_realloc_r+0x378>
    1566:	c2818713          	addi	a4,gp,-984 # 200430 <__malloc_av_>
    156a:	4710                	lw	a2,8(a4)
    156c:	012b87b3          	add	a5,s7,s2
    1570:	43d8                	lw	a4,4(a5)
    1572:	c2818c13          	addi	s8,gp,-984 # 200430 <__malloc_av_>
    1576:	00f60863          	beq	a2,a5,1586 <_realloc_r+0xa6>
    157a:	ffe77513          	andi	a0,a4,-2
    157e:	953e                	add	a0,a0,a5
    1580:	4148                	lw	a0,4(a0)
    1582:	8905                	andi	a0,a0,1
    1584:	e549                	bnez	a0,160e <_realloc_r+0x12e>
    1586:	9b71                	andi	a4,a4,-4
    1588:	00e909b3          	add	s3,s2,a4
    158c:	02f61b63          	bne	a2,a5,15c2 <_realloc_r+0xe2>
    1590:	010b0513          	addi	a0,s6,16
    1594:	06a9cf63          	blt	s3,a0,1612 <_realloc_r+0x132>
    1598:	9bda                	add	s7,s7,s6
    159a:	416989b3          	sub	s3,s3,s6
    159e:	017c2423          	sw	s7,8(s8)
    15a2:	0019e993          	ori	s3,s3,1
    15a6:	013ba223          	sw	s3,4(s7)
    15aa:	ffc42983          	lw	s3,-4(s0)
    15ae:	8556                	mv	a0,s5
    15b0:	8a22                	mv	s4,s0
    15b2:	0019f993          	andi	s3,s3,1
    15b6:	0169e9b3          	or	s3,s3,s6
    15ba:	ff342e23          	sw	s3,-4(s0)
    15be:	3705                	jal	14de <__malloc_unlock>
    15c0:	b749                	j	1542 <_realloc_r+0x62>
    15c2:	0569c863          	blt	s3,s6,1612 <_realloc_r+0x132>
    15c6:	47d8                	lw	a4,12(a5)
    15c8:	479c                	lw	a5,8(a5)
    15ca:	c7d8                	sw	a4,12(a5)
    15cc:	c71c                	sw	a5,8(a4)
    15ce:	004ba703          	lw	a4,4(s7)
    15d2:	416986b3          	sub	a3,s3,s6
    15d6:	463d                	li	a2,15
    15d8:	8b05                	andi	a4,a4,1
    15da:	013b87b3          	add	a5,s7,s3
    15de:	26d67f63          	bleu	a3,a2,185c <_realloc_r+0x37c>
    15e2:	00eb69b3          	or	s3,s6,a4
    15e6:	013ba223          	sw	s3,4(s7)
    15ea:	016b85b3          	add	a1,s7,s6
    15ee:	0016e693          	ori	a3,a3,1
    15f2:	c1d4                	sw	a3,4(a1)
    15f4:	43d8                	lw	a4,4(a5)
    15f6:	05a1                	addi	a1,a1,8
    15f8:	8556                	mv	a0,s5
    15fa:	00176713          	ori	a4,a4,1
    15fe:	c3d8                	sw	a4,4(a5)
    1600:	bf6ff0ef          	jal	ra,9f6 <_free_r>
    1604:	8556                	mv	a0,s5
    1606:	3de1                	jal	14de <__malloc_unlock>
    1608:	008b8a13          	addi	s4,s7,8
    160c:	bf1d                	j	1542 <_realloc_r+0x62>
    160e:	4701                	li	a4,0
    1610:	4781                	li	a5,0
    1612:	8a85                	andi	a3,a3,1
    1614:	1a069563          	bnez	a3,17be <_realloc_r+0x2de>
    1618:	ff842483          	lw	s1,-8(s0)
    161c:	409b84b3          	sub	s1,s7,s1
    1620:	0044aa03          	lw	s4,4(s1)
    1624:	ffca7a13          	andi	s4,s4,-4
    1628:	9a4a                	add	s4,s4,s2
    162a:	12078163          	beqz	a5,174c <_realloc_r+0x26c>
    162e:	014709b3          	add	s3,a4,s4
    1632:	0af61063          	bne	a2,a5,16d2 <_realloc_r+0x1f2>
    1636:	010b0793          	addi	a5,s6,16
    163a:	10f9c963          	blt	s3,a5,174c <_realloc_r+0x26c>
    163e:	4498                	lw	a4,8(s1)
    1640:	44dc                	lw	a5,12(s1)
    1642:	ffc90613          	addi	a2,s2,-4
    1646:	00848a13          	addi	s4,s1,8
    164a:	c75c                	sw	a5,12(a4)
    164c:	c798                	sw	a4,8(a5)
    164e:	02400713          	li	a4,36
    1652:	06c76c63          	bltu	a4,a2,16ca <_realloc_r+0x1ea>
    1656:	46cd                	li	a3,19
    1658:	87d2                	mv	a5,s4
    165a:	00c6fc63          	bleu	a2,a3,1672 <_realloc_r+0x192>
    165e:	401c                	lw	a5,0(s0)
    1660:	c49c                	sw	a5,8(s1)
    1662:	405c                	lw	a5,4(s0)
    1664:	c4dc                	sw	a5,12(s1)
    1666:	47ed                	li	a5,27
    1668:	02c7ee63          	bltu	a5,a2,16a4 <_realloc_r+0x1c4>
    166c:	0421                	addi	s0,s0,8
    166e:	01048793          	addi	a5,s1,16
    1672:	4018                	lw	a4,0(s0)
    1674:	c398                	sw	a4,0(a5)
    1676:	4058                	lw	a4,4(s0)
    1678:	c3d8                	sw	a4,4(a5)
    167a:	4418                	lw	a4,8(s0)
    167c:	c798                	sw	a4,8(a5)
    167e:	016487b3          	add	a5,s1,s6
    1682:	416989b3          	sub	s3,s3,s6
    1686:	00fc2423          	sw	a5,8(s8)
    168a:	0019e993          	ori	s3,s3,1
    168e:	0137a223          	sw	s3,4(a5)
    1692:	40dc                	lw	a5,4(s1)
    1694:	8b85                	andi	a5,a5,1
    1696:	0167e9b3          	or	s3,a5,s6
    169a:	0134a223          	sw	s3,4(s1)
    169e:	8556                	mv	a0,s5
    16a0:	3d3d                	jal	14de <__malloc_unlock>
    16a2:	b545                	j	1542 <_realloc_r+0x62>
    16a4:	441c                	lw	a5,8(s0)
    16a6:	c89c                	sw	a5,16(s1)
    16a8:	445c                	lw	a5,12(s0)
    16aa:	c8dc                	sw	a5,20(s1)
    16ac:	00e60663          	beq	a2,a4,16b8 <_realloc_r+0x1d8>
    16b0:	0441                	addi	s0,s0,16
    16b2:	01848793          	addi	a5,s1,24
    16b6:	bf75                	j	1672 <_realloc_r+0x192>
    16b8:	481c                	lw	a5,16(s0)
    16ba:	0461                	addi	s0,s0,24
    16bc:	cc9c                	sw	a5,24(s1)
    16be:	ffc42703          	lw	a4,-4(s0)
    16c2:	02048793          	addi	a5,s1,32
    16c6:	ccd8                	sw	a4,28(s1)
    16c8:	b76d                	j	1672 <_realloc_r+0x192>
    16ca:	85a2                	mv	a1,s0
    16cc:	8552                	mv	a0,s4
    16ce:	3bc1                	jal	149e <memmove>
    16d0:	b77d                	j	167e <_realloc_r+0x19e>
    16d2:	0769cd63          	blt	s3,s6,174c <_realloc_r+0x26c>
    16d6:	47d8                	lw	a4,12(a5)
    16d8:	479c                	lw	a5,8(a5)
    16da:	ffc90613          	addi	a2,s2,-4
    16de:	00848513          	addi	a0,s1,8
    16e2:	c7d8                	sw	a4,12(a5)
    16e4:	c71c                	sw	a5,8(a4)
    16e6:	4498                	lw	a4,8(s1)
    16e8:	44dc                	lw	a5,12(s1)
    16ea:	c75c                	sw	a5,12(a4)
    16ec:	c798                	sw	a4,8(a5)
    16ee:	02400793          	li	a5,36
    16f2:	04c7ea63          	bltu	a5,a2,1746 <_realloc_r+0x266>
    16f6:	474d                	li	a4,19
    16f8:	00c77c63          	bleu	a2,a4,1710 <_realloc_r+0x230>
    16fc:	4018                	lw	a4,0(s0)
    16fe:	c498                	sw	a4,8(s1)
    1700:	4058                	lw	a4,4(s0)
    1702:	c4d8                	sw	a4,12(s1)
    1704:	476d                	li	a4,27
    1706:	00c76d63          	bltu	a4,a2,1720 <_realloc_r+0x240>
    170a:	0421                	addi	s0,s0,8
    170c:	01048513          	addi	a0,s1,16
    1710:	401c                	lw	a5,0(s0)
    1712:	c11c                	sw	a5,0(a0)
    1714:	405c                	lw	a5,4(s0)
    1716:	c15c                	sw	a5,4(a0)
    1718:	441c                	lw	a5,8(s0)
    171a:	c51c                	sw	a5,8(a0)
    171c:	8ba6                	mv	s7,s1
    171e:	bd45                	j	15ce <_realloc_r+0xee>
    1720:	4418                	lw	a4,8(s0)
    1722:	c898                	sw	a4,16(s1)
    1724:	4458                	lw	a4,12(s0)
    1726:	c8d8                	sw	a4,20(s1)
    1728:	00f60663          	beq	a2,a5,1734 <_realloc_r+0x254>
    172c:	0441                	addi	s0,s0,16
    172e:	01848513          	addi	a0,s1,24
    1732:	bff9                	j	1710 <_realloc_r+0x230>
    1734:	481c                	lw	a5,16(s0)
    1736:	02048513          	addi	a0,s1,32
    173a:	0461                	addi	s0,s0,24
    173c:	cc9c                	sw	a5,24(s1)
    173e:	ffc42783          	lw	a5,-4(s0)
    1742:	ccdc                	sw	a5,28(s1)
    1744:	b7f1                	j	1710 <_realloc_r+0x230>
    1746:	85a2                	mv	a1,s0
    1748:	3b99                	jal	149e <memmove>
    174a:	bfc9                	j	171c <_realloc_r+0x23c>
    174c:	076a4963          	blt	s4,s6,17be <_realloc_r+0x2de>
    1750:	44dc                	lw	a5,12(s1)
    1752:	4498                	lw	a4,8(s1)
    1754:	ffc90613          	addi	a2,s2,-4
    1758:	00848513          	addi	a0,s1,8
    175c:	c75c                	sw	a5,12(a4)
    175e:	c798                	sw	a4,8(a5)
    1760:	02400793          	li	a5,36
    1764:	04c7ea63          	bltu	a5,a2,17b8 <_realloc_r+0x2d8>
    1768:	474d                	li	a4,19
    176a:	00c77c63          	bleu	a2,a4,1782 <_realloc_r+0x2a2>
    176e:	4018                	lw	a4,0(s0)
    1770:	c498                	sw	a4,8(s1)
    1772:	4058                	lw	a4,4(s0)
    1774:	c4d8                	sw	a4,12(s1)
    1776:	476d                	li	a4,27
    1778:	00c76d63          	bltu	a4,a2,1792 <_realloc_r+0x2b2>
    177c:	0421                	addi	s0,s0,8
    177e:	01048513          	addi	a0,s1,16
    1782:	401c                	lw	a5,0(s0)
    1784:	c11c                	sw	a5,0(a0)
    1786:	405c                	lw	a5,4(s0)
    1788:	c15c                	sw	a5,4(a0)
    178a:	441c                	lw	a5,8(s0)
    178c:	c51c                	sw	a5,8(a0)
    178e:	89d2                	mv	s3,s4
    1790:	b771                	j	171c <_realloc_r+0x23c>
    1792:	4418                	lw	a4,8(s0)
    1794:	c898                	sw	a4,16(s1)
    1796:	4458                	lw	a4,12(s0)
    1798:	c8d8                	sw	a4,20(s1)
    179a:	00f60663          	beq	a2,a5,17a6 <_realloc_r+0x2c6>
    179e:	0441                	addi	s0,s0,16
    17a0:	01848513          	addi	a0,s1,24
    17a4:	bff9                	j	1782 <_realloc_r+0x2a2>
    17a6:	481c                	lw	a5,16(s0)
    17a8:	02048513          	addi	a0,s1,32
    17ac:	0461                	addi	s0,s0,24
    17ae:	cc9c                	sw	a5,24(s1)
    17b0:	ffc42783          	lw	a5,-4(s0)
    17b4:	ccdc                	sw	a5,28(s1)
    17b6:	b7f1                	j	1782 <_realloc_r+0x2a2>
    17b8:	85a2                	mv	a1,s0
    17ba:	31d5                	jal	149e <memmove>
    17bc:	bfc9                	j	178e <_realloc_r+0x2ae>
    17be:	8556                	mv	a0,s5
    17c0:	f7aff0ef          	jal	ra,f3a <_malloc_r>
    17c4:	8a2a                	mv	s4,a0
    17c6:	ec050ce3          	beqz	a0,169e <_realloc_r+0x1be>
    17ca:	ffc42783          	lw	a5,-4(s0)
    17ce:	ff850713          	addi	a4,a0,-8
    17d2:	9bf9                	andi	a5,a5,-2
    17d4:	97de                	add	a5,a5,s7
    17d6:	00e79863          	bne	a5,a4,17e6 <_realloc_r+0x306>
    17da:	ffc52983          	lw	s3,-4(a0)
    17de:	ffc9f993          	andi	s3,s3,-4
    17e2:	99ca                	add	s3,s3,s2
    17e4:	b3ed                	j	15ce <_realloc_r+0xee>
    17e6:	ffc90613          	addi	a2,s2,-4
    17ea:	02400793          	li	a5,36
    17ee:	06c7e263          	bltu	a5,a2,1852 <_realloc_r+0x372>
    17f2:	474d                	li	a4,19
    17f4:	04c77c63          	bleu	a2,a4,184c <_realloc_r+0x36c>
    17f8:	4018                	lw	a4,0(s0)
    17fa:	c118                	sw	a4,0(a0)
    17fc:	4058                	lw	a4,4(s0)
    17fe:	c158                	sw	a4,4(a0)
    1800:	476d                	li	a4,27
    1802:	02c76163          	bltu	a4,a2,1824 <_realloc_r+0x344>
    1806:	00840713          	addi	a4,s0,8
    180a:	00850793          	addi	a5,a0,8
    180e:	4314                	lw	a3,0(a4)
    1810:	c394                	sw	a3,0(a5)
    1812:	4354                	lw	a3,4(a4)
    1814:	c3d4                	sw	a3,4(a5)
    1816:	4718                	lw	a4,8(a4)
    1818:	c798                	sw	a4,8(a5)
    181a:	85a2                	mv	a1,s0
    181c:	8556                	mv	a0,s5
    181e:	9d8ff0ef          	jal	ra,9f6 <_free_r>
    1822:	bdb5                	j	169e <_realloc_r+0x1be>
    1824:	4418                	lw	a4,8(s0)
    1826:	c518                	sw	a4,8(a0)
    1828:	4458                	lw	a4,12(s0)
    182a:	c558                	sw	a4,12(a0)
    182c:	00f60763          	beq	a2,a5,183a <_realloc_r+0x35a>
    1830:	01040713          	addi	a4,s0,16
    1834:	01050793          	addi	a5,a0,16
    1838:	bfd9                	j	180e <_realloc_r+0x32e>
    183a:	481c                	lw	a5,16(s0)
    183c:	01840713          	addi	a4,s0,24
    1840:	c91c                	sw	a5,16(a0)
    1842:	4854                	lw	a3,20(s0)
    1844:	01850793          	addi	a5,a0,24
    1848:	c954                	sw	a3,20(a0)
    184a:	b7d1                	j	180e <_realloc_r+0x32e>
    184c:	87aa                	mv	a5,a0
    184e:	8722                	mv	a4,s0
    1850:	bf7d                	j	180e <_realloc_r+0x32e>
    1852:	85a2                	mv	a1,s0
    1854:	31a9                	jal	149e <memmove>
    1856:	b7d1                	j	181a <_realloc_r+0x33a>
    1858:	89ca                	mv	s3,s2
    185a:	bb95                	j	15ce <_realloc_r+0xee>
    185c:	00e9e9b3          	or	s3,s3,a4
    1860:	013ba223          	sw	s3,4(s7)
    1864:	43d8                	lw	a4,4(a5)
    1866:	00176713          	ori	a4,a4,1
    186a:	c3d8                	sw	a4,4(a5)
    186c:	bb61                	j	1604 <_realloc_r+0x124>

0000186e <_sbrk_r>:
    186e:	1141                	addi	sp,sp,-16
    1870:	c422                	sw	s0,8(sp)
    1872:	c226                	sw	s1,4(sp)
    1874:	84aa                	mv	s1,a0
    1876:	852e                	mv	a0,a1
    1878:	c606                	sw	ra,12(sp)
    187a:	0601ac23          	sw	zero,120(gp) # 200880 <errno>
    187e:	a59fe0ef          	jal	ra,2d6 <sbrk>
    1882:	57fd                	li	a5,-1
    1884:	00f51663          	bne	a0,a5,1890 <_sbrk_r+0x22>
    1888:	0781a783          	lw	a5,120(gp) # 200880 <errno>
    188c:	c391                	beqz	a5,1890 <_sbrk_r+0x22>
    188e:	c09c                	sw	a5,0(s1)
    1890:	40b2                	lw	ra,12(sp)
    1892:	4422                	lw	s0,8(sp)
    1894:	4492                	lw	s1,4(sp)
    1896:	0141                	addi	sp,sp,16
    1898:	8082                	ret

0000189a <__sread>:
    189a:	1141                	addi	sp,sp,-16
    189c:	c422                	sw	s0,8(sp)
    189e:	842e                	mv	s0,a1
    18a0:	00e59583          	lh	a1,14(a1)
    18a4:	c606                	sw	ra,12(sp)
    18a6:	2b89                	jal	1df8 <_read_r>
    18a8:	00054963          	bltz	a0,18ba <__sread+0x20>
    18ac:	483c                	lw	a5,80(s0)
    18ae:	97aa                	add	a5,a5,a0
    18b0:	c83c                	sw	a5,80(s0)
    18b2:	40b2                	lw	ra,12(sp)
    18b4:	4422                	lw	s0,8(sp)
    18b6:	0141                	addi	sp,sp,16
    18b8:	8082                	ret
    18ba:	00c45783          	lhu	a5,12(s0)
    18be:	777d                	lui	a4,0xfffff
    18c0:	177d                	addi	a4,a4,-1
    18c2:	8ff9                	and	a5,a5,a4
    18c4:	00f41623          	sh	a5,12(s0)
    18c8:	b7ed                	j	18b2 <__sread+0x18>

000018ca <__seofread>:
    18ca:	4501                	li	a0,0
    18cc:	8082                	ret

000018ce <__swrite>:
    18ce:	00c5d783          	lhu	a5,12(a1)
    18d2:	1101                	addi	sp,sp,-32
    18d4:	cc22                	sw	s0,24(sp)
    18d6:	ca26                	sw	s1,20(sp)
    18d8:	c84a                	sw	s2,16(sp)
    18da:	c64e                	sw	s3,12(sp)
    18dc:	ce06                	sw	ra,28(sp)
    18de:	1007f793          	andi	a5,a5,256
    18e2:	84aa                	mv	s1,a0
    18e4:	842e                	mv	s0,a1
    18e6:	8932                	mv	s2,a2
    18e8:	89b6                	mv	s3,a3
    18ea:	c791                	beqz	a5,18f6 <__swrite+0x28>
    18ec:	00e59583          	lh	a1,14(a1)
    18f0:	4689                	li	a3,2
    18f2:	4601                	li	a2,0
    18f4:	2ec9                	jal	1cc6 <_lseek_r>
    18f6:	00c45783          	lhu	a5,12(s0)
    18fa:	777d                	lui	a4,0xfffff
    18fc:	177d                	addi	a4,a4,-1
    18fe:	8ff9                	and	a5,a5,a4
    1900:	00f41623          	sh	a5,12(s0)
    1904:	00e41583          	lh	a1,14(s0)
    1908:	4462                	lw	s0,24(sp)
    190a:	40f2                	lw	ra,28(sp)
    190c:	86ce                	mv	a3,s3
    190e:	864a                	mv	a2,s2
    1910:	49b2                	lw	s3,12(sp)
    1912:	4942                	lw	s2,16(sp)
    1914:	8526                	mv	a0,s1
    1916:	44d2                	lw	s1,20(sp)
    1918:	6105                	addi	sp,sp,32
    191a:	a83d                	j	1958 <_write_r>

0000191c <__sseek>:
    191c:	1141                	addi	sp,sp,-16
    191e:	c422                	sw	s0,8(sp)
    1920:	842e                	mv	s0,a1
    1922:	00e59583          	lh	a1,14(a1)
    1926:	c606                	sw	ra,12(sp)
    1928:	2e79                	jal	1cc6 <_lseek_r>
    192a:	57fd                	li	a5,-1
    192c:	00c45703          	lhu	a4,12(s0)
    1930:	00f51b63          	bne	a0,a5,1946 <__sseek+0x2a>
    1934:	77fd                	lui	a5,0xfffff
    1936:	17fd                	addi	a5,a5,-1
    1938:	8ff9                	and	a5,a5,a4
    193a:	00f41623          	sh	a5,12(s0)
    193e:	40b2                	lw	ra,12(sp)
    1940:	4422                	lw	s0,8(sp)
    1942:	0141                	addi	sp,sp,16
    1944:	8082                	ret
    1946:	6785                	lui	a5,0x1
    1948:	8fd9                	or	a5,a5,a4
    194a:	00f41623          	sh	a5,12(s0)
    194e:	c828                	sw	a0,80(s0)
    1950:	b7fd                	j	193e <__sseek+0x22>

00001952 <__sclose>:
    1952:	00e59583          	lh	a1,14(a1)
    1956:	a229                	j	1a60 <_close_r>

00001958 <_write_r>:
    1958:	1141                	addi	sp,sp,-16
    195a:	c422                	sw	s0,8(sp)
    195c:	c226                	sw	s1,4(sp)
    195e:	84aa                	mv	s1,a0
    1960:	852e                	mv	a0,a1
    1962:	85b2                	mv	a1,a2
    1964:	8636                	mv	a2,a3
    1966:	c606                	sw	ra,12(sp)
    1968:	0601ac23          	sw	zero,120(gp) # 200880 <errno>
    196c:	939fe0ef          	jal	ra,2a4 <write>
    1970:	57fd                	li	a5,-1
    1972:	00f51663          	bne	a0,a5,197e <_write_r+0x26>
    1976:	0781a783          	lw	a5,120(gp) # 200880 <errno>
    197a:	c391                	beqz	a5,197e <_write_r+0x26>
    197c:	c09c                	sw	a5,0(s1)
    197e:	40b2                	lw	ra,12(sp)
    1980:	4422                	lw	s0,8(sp)
    1982:	4492                	lw	s1,4(sp)
    1984:	0141                	addi	sp,sp,16
    1986:	8082                	ret

00001988 <__swsetup_r>:
    1988:	1141                	addi	sp,sp,-16
    198a:	c226                	sw	s1,4(sp)
    198c:	84aa                	mv	s1,a0
    198e:	0381a503          	lw	a0,56(gp) # 200840 <_impure_ptr>
    1992:	c422                	sw	s0,8(sp)
    1994:	c606                	sw	ra,12(sp)
    1996:	842e                	mv	s0,a1
    1998:	c509                	beqz	a0,19a2 <__swsetup_r+0x1a>
    199a:	5d1c                	lw	a5,56(a0)
    199c:	e399                	bnez	a5,19a2 <__swsetup_r+0x1a>
    199e:	e97fe0ef          	jal	ra,834 <__sinit>
    19a2:	00c41703          	lh	a4,12(s0)
    19a6:	01071793          	slli	a5,a4,0x10
    19aa:	83c1                	srli	a5,a5,0x10
    19ac:	0087f693          	andi	a3,a5,8
    19b0:	eea9                	bnez	a3,1a0a <__swsetup_r+0x82>
    19b2:	0107f693          	andi	a3,a5,16
    19b6:	ee89                	bnez	a3,19d0 <__swsetup_r+0x48>
    19b8:	47a5                	li	a5,9
    19ba:	c09c                	sw	a5,0(s1)
    19bc:	04076713          	ori	a4,a4,64
    19c0:	00e41623          	sh	a4,12(s0)
    19c4:	557d                	li	a0,-1
    19c6:	40b2                	lw	ra,12(sp)
    19c8:	4422                	lw	s0,8(sp)
    19ca:	4492                	lw	s1,4(sp)
    19cc:	0141                	addi	sp,sp,16
    19ce:	8082                	ret
    19d0:	8b91                	andi	a5,a5,4
    19d2:	c795                	beqz	a5,19fe <__swsetup_r+0x76>
    19d4:	580c                	lw	a1,48(s0)
    19d6:	c991                	beqz	a1,19ea <__swsetup_r+0x62>
    19d8:	04040793          	addi	a5,s0,64
    19dc:	00f58563          	beq	a1,a5,19e6 <__swsetup_r+0x5e>
    19e0:	8526                	mv	a0,s1
    19e2:	814ff0ef          	jal	ra,9f6 <_free_r>
    19e6:	02042823          	sw	zero,48(s0)
    19ea:	00c45783          	lhu	a5,12(s0)
    19ee:	00042223          	sw	zero,4(s0)
    19f2:	fdb7f793          	andi	a5,a5,-37
    19f6:	00f41623          	sh	a5,12(s0)
    19fa:	481c                	lw	a5,16(s0)
    19fc:	c01c                	sw	a5,0(s0)
    19fe:	00c45783          	lhu	a5,12(s0)
    1a02:	0087e793          	ori	a5,a5,8
    1a06:	00f41623          	sh	a5,12(s0)
    1a0a:	481c                	lw	a5,16(s0)
    1a0c:	ef81                	bnez	a5,1a24 <__swsetup_r+0x9c>
    1a0e:	00c45783          	lhu	a5,12(s0)
    1a12:	20000713          	li	a4,512
    1a16:	2807f793          	andi	a5,a5,640
    1a1a:	00e78563          	beq	a5,a4,1a24 <__swsetup_r+0x9c>
    1a1e:	85a2                	mv	a1,s0
    1a20:	8526                	mv	a0,s1
    1a22:	2e25                	jal	1d5a <__smakebuf_r>
    1a24:	00c45783          	lhu	a5,12(s0)
    1a28:	0017f713          	andi	a4,a5,1
    1a2c:	c705                	beqz	a4,1a54 <__swsetup_r+0xcc>
    1a2e:	485c                	lw	a5,20(s0)
    1a30:	00042423          	sw	zero,8(s0)
    1a34:	40f007b3          	neg	a5,a5
    1a38:	cc1c                	sw	a5,24(s0)
    1a3a:	481c                	lw	a5,16(s0)
    1a3c:	4501                	li	a0,0
    1a3e:	f7c1                	bnez	a5,19c6 <__swsetup_r+0x3e>
    1a40:	00c41783          	lh	a5,12(s0)
    1a44:	0807f713          	andi	a4,a5,128
    1a48:	df3d                	beqz	a4,19c6 <__swsetup_r+0x3e>
    1a4a:	0407e793          	ori	a5,a5,64
    1a4e:	00f41623          	sh	a5,12(s0)
    1a52:	bf8d                	j	19c4 <__swsetup_r+0x3c>
    1a54:	8b89                	andi	a5,a5,2
    1a56:	4701                	li	a4,0
    1a58:	e391                	bnez	a5,1a5c <__swsetup_r+0xd4>
    1a5a:	4858                	lw	a4,20(s0)
    1a5c:	c418                	sw	a4,8(s0)
    1a5e:	bff1                	j	1a3a <__swsetup_r+0xb2>

00001a60 <_close_r>:
    1a60:	1141                	addi	sp,sp,-16
    1a62:	c422                	sw	s0,8(sp)
    1a64:	c226                	sw	s1,4(sp)
    1a66:	84aa                	mv	s1,a0
    1a68:	852e                	mv	a0,a1
    1a6a:	c606                	sw	ra,12(sp)
    1a6c:	0601ac23          	sw	zero,120(gp) # 200880 <errno>
    1a70:	f58fe0ef          	jal	ra,1c8 <close>
    1a74:	57fd                	li	a5,-1
    1a76:	00f51663          	bne	a0,a5,1a82 <_close_r+0x22>
    1a7a:	0781a783          	lw	a5,120(gp) # 200880 <errno>
    1a7e:	c391                	beqz	a5,1a82 <_close_r+0x22>
    1a80:	c09c                	sw	a5,0(s1)
    1a82:	40b2                	lw	ra,12(sp)
    1a84:	4422                	lw	s0,8(sp)
    1a86:	4492                	lw	s1,4(sp)
    1a88:	0141                	addi	sp,sp,16
    1a8a:	8082                	ret

00001a8c <_fclose_r>:
    1a8c:	1141                	addi	sp,sp,-16
    1a8e:	c606                	sw	ra,12(sp)
    1a90:	c422                	sw	s0,8(sp)
    1a92:	c226                	sw	s1,4(sp)
    1a94:	c04a                	sw	s2,0(sp)
    1a96:	e989                	bnez	a1,1aa8 <_fclose_r+0x1c>
    1a98:	4901                	li	s2,0
    1a9a:	40b2                	lw	ra,12(sp)
    1a9c:	4422                	lw	s0,8(sp)
    1a9e:	854a                	mv	a0,s2
    1aa0:	4492                	lw	s1,4(sp)
    1aa2:	4902                	lw	s2,0(sp)
    1aa4:	0141                	addi	sp,sp,16
    1aa6:	8082                	ret
    1aa8:	84aa                	mv	s1,a0
    1aaa:	842e                	mv	s0,a1
    1aac:	c509                	beqz	a0,1ab6 <_fclose_r+0x2a>
    1aae:	5d1c                	lw	a5,56(a0)
    1ab0:	e399                	bnez	a5,1ab6 <_fclose_r+0x2a>
    1ab2:	d83fe0ef          	jal	ra,834 <__sinit>
    1ab6:	00c41783          	lh	a5,12(s0)
    1aba:	dff9                	beqz	a5,1a98 <_fclose_r+0xc>
    1abc:	85a2                	mv	a1,s0
    1abe:	8526                	mv	a0,s1
    1ac0:	2085                	jal	1b20 <__sflush_r>
    1ac2:	545c                	lw	a5,44(s0)
    1ac4:	892a                	mv	s2,a0
    1ac6:	c799                	beqz	a5,1ad4 <_fclose_r+0x48>
    1ac8:	4c4c                	lw	a1,28(s0)
    1aca:	8526                	mv	a0,s1
    1acc:	9782                	jalr	a5
    1ace:	00055363          	bgez	a0,1ad4 <_fclose_r+0x48>
    1ad2:	597d                	li	s2,-1
    1ad4:	00c45783          	lhu	a5,12(s0)
    1ad8:	0807f793          	andi	a5,a5,128
    1adc:	c789                	beqz	a5,1ae6 <_fclose_r+0x5a>
    1ade:	480c                	lw	a1,16(s0)
    1ae0:	8526                	mv	a0,s1
    1ae2:	f15fe0ef          	jal	ra,9f6 <_free_r>
    1ae6:	580c                	lw	a1,48(s0)
    1ae8:	c991                	beqz	a1,1afc <_fclose_r+0x70>
    1aea:	04040793          	addi	a5,s0,64
    1aee:	00f58563          	beq	a1,a5,1af8 <_fclose_r+0x6c>
    1af2:	8526                	mv	a0,s1
    1af4:	f03fe0ef          	jal	ra,9f6 <_free_r>
    1af8:	02042823          	sw	zero,48(s0)
    1afc:	406c                	lw	a1,68(s0)
    1afe:	c591                	beqz	a1,1b0a <_fclose_r+0x7e>
    1b00:	8526                	mv	a0,s1
    1b02:	ef5fe0ef          	jal	ra,9f6 <_free_r>
    1b06:	04042223          	sw	zero,68(s0)
    1b0a:	e11fe0ef          	jal	ra,91a <__sfp_lock_acquire>
    1b0e:	00041623          	sh	zero,12(s0)
    1b12:	e0bfe0ef          	jal	ra,91c <__sfp_lock_release>
    1b16:	b751                	j	1a9a <_fclose_r+0xe>

00001b18 <fclose>:
    1b18:	85aa                	mv	a1,a0
    1b1a:	0381a503          	lw	a0,56(gp) # 200840 <_impure_ptr>
    1b1e:	b7bd                	j	1a8c <_fclose_r>

00001b20 <__sflush_r>:
    1b20:	00c59783          	lh	a5,12(a1)
    1b24:	1101                	addi	sp,sp,-32
    1b26:	cc22                	sw	s0,24(sp)
    1b28:	01079713          	slli	a4,a5,0x10
    1b2c:	8341                	srli	a4,a4,0x10
    1b2e:	ca26                	sw	s1,20(sp)
    1b30:	ce06                	sw	ra,28(sp)
    1b32:	c84a                	sw	s2,16(sp)
    1b34:	c64e                	sw	s3,12(sp)
    1b36:	00877693          	andi	a3,a4,8
    1b3a:	84aa                	mv	s1,a0
    1b3c:	842e                	mv	s0,a1
    1b3e:	eeed                	bnez	a3,1c38 <__sflush_r+0x118>
    1b40:	6705                	lui	a4,0x1
    1b42:	80070713          	addi	a4,a4,-2048 # 800 <__sfmoreglue+0x18>
    1b46:	8fd9                	or	a5,a5,a4
    1b48:	41d8                	lw	a4,4(a1)
    1b4a:	00f59623          	sh	a5,12(a1)
    1b4e:	00e04d63          	bgtz	a4,1b68 <__sflush_r+0x48>
    1b52:	5dd8                	lw	a4,60(a1)
    1b54:	00e04a63          	bgtz	a4,1b68 <__sflush_r+0x48>
    1b58:	4501                	li	a0,0
    1b5a:	40f2                	lw	ra,28(sp)
    1b5c:	4462                	lw	s0,24(sp)
    1b5e:	44d2                	lw	s1,20(sp)
    1b60:	4942                	lw	s2,16(sp)
    1b62:	49b2                	lw	s3,12(sp)
    1b64:	6105                	addi	sp,sp,32
    1b66:	8082                	ret
    1b68:	5418                	lw	a4,40(s0)
    1b6a:	d77d                	beqz	a4,1b58 <__sflush_r+0x38>
    1b6c:	0004a903          	lw	s2,0(s1)
    1b70:	01379693          	slli	a3,a5,0x13
    1b74:	0004a023          	sw	zero,0(s1)
    1b78:	4c4c                	lw	a1,28(s0)
    1b7a:	0806d663          	bgez	a3,1c06 <__sflush_r+0xe6>
    1b7e:	4830                	lw	a2,80(s0)
    1b80:	00c45783          	lhu	a5,12(s0)
    1b84:	8b91                	andi	a5,a5,4
    1b86:	c799                	beqz	a5,1b94 <__sflush_r+0x74>
    1b88:	405c                	lw	a5,4(s0)
    1b8a:	8e1d                	sub	a2,a2,a5
    1b8c:	581c                	lw	a5,48(s0)
    1b8e:	c399                	beqz	a5,1b94 <__sflush_r+0x74>
    1b90:	5c5c                	lw	a5,60(s0)
    1b92:	8e1d                	sub	a2,a2,a5
    1b94:	541c                	lw	a5,40(s0)
    1b96:	4c4c                	lw	a1,28(s0)
    1b98:	4681                	li	a3,0
    1b9a:	8526                	mv	a0,s1
    1b9c:	9782                	jalr	a5
    1b9e:	57fd                	li	a5,-1
    1ba0:	00c45683          	lhu	a3,12(s0)
    1ba4:	00f51d63          	bne	a0,a5,1bbe <__sflush_r+0x9e>
    1ba8:	409c                	lw	a5,0(s1)
    1baa:	4775                	li	a4,29
    1bac:	08f76063          	bltu	a4,a5,1c2c <__sflush_r+0x10c>
    1bb0:	20400737          	lui	a4,0x20400
    1bb4:	0705                	addi	a4,a4,1
    1bb6:	00f75733          	srl	a4,a4,a5
    1bba:	8b05                	andi	a4,a4,1
    1bbc:	cb25                	beqz	a4,1c2c <__sflush_r+0x10c>
    1bbe:	77fd                	lui	a5,0xfffff
    1bc0:	7ff78793          	addi	a5,a5,2047 # fffff7ff <pulp__FC+0xfffff800>
    1bc4:	4818                	lw	a4,16(s0)
    1bc6:	8ff5                	and	a5,a5,a3
    1bc8:	07c2                	slli	a5,a5,0x10
    1bca:	87c1                	srai	a5,a5,0x10
    1bcc:	c018                	sw	a4,0(s0)
    1bce:	00f41623          	sh	a5,12(s0)
    1bd2:	00042223          	sw	zero,4(s0)
    1bd6:	01379713          	slli	a4,a5,0x13
    1bda:	00075863          	bgez	a4,1bea <__sflush_r+0xca>
    1bde:	57fd                	li	a5,-1
    1be0:	00f51463          	bne	a0,a5,1be8 <__sflush_r+0xc8>
    1be4:	409c                	lw	a5,0(s1)
    1be6:	e391                	bnez	a5,1bea <__sflush_r+0xca>
    1be8:	c828                	sw	a0,80(s0)
    1bea:	580c                	lw	a1,48(s0)
    1bec:	0124a023          	sw	s2,0(s1)
    1bf0:	d5a5                	beqz	a1,1b58 <__sflush_r+0x38>
    1bf2:	04040793          	addi	a5,s0,64
    1bf6:	00f58563          	beq	a1,a5,1c00 <__sflush_r+0xe0>
    1bfa:	8526                	mv	a0,s1
    1bfc:	dfbfe0ef          	jal	ra,9f6 <_free_r>
    1c00:	02042823          	sw	zero,48(s0)
    1c04:	bf91                	j	1b58 <__sflush_r+0x38>
    1c06:	4601                	li	a2,0
    1c08:	4685                	li	a3,1
    1c0a:	8526                	mv	a0,s1
    1c0c:	9702                	jalr	a4
    1c0e:	57fd                	li	a5,-1
    1c10:	862a                	mv	a2,a0
    1c12:	f6f517e3          	bne	a0,a5,1b80 <__sflush_r+0x60>
    1c16:	409c                	lw	a5,0(s1)
    1c18:	d7a5                	beqz	a5,1b80 <__sflush_r+0x60>
    1c1a:	4775                	li	a4,29
    1c1c:	00e78563          	beq	a5,a4,1c26 <__sflush_r+0x106>
    1c20:	4759                	li	a4,22
    1c22:	04e79463          	bne	a5,a4,1c6a <__sflush_r+0x14a>
    1c26:	0124a023          	sw	s2,0(s1)
    1c2a:	b73d                	j	1b58 <__sflush_r+0x38>
    1c2c:	0406e793          	ori	a5,a3,64
    1c30:	00f41623          	sh	a5,12(s0)
    1c34:	557d                	li	a0,-1
    1c36:	b715                	j	1b5a <__sflush_r+0x3a>
    1c38:	0105a983          	lw	s3,16(a1)
    1c3c:	f0098ee3          	beqz	s3,1b58 <__sflush_r+0x38>
    1c40:	0005a903          	lw	s2,0(a1)
    1c44:	8b0d                	andi	a4,a4,3
    1c46:	0135a023          	sw	s3,0(a1)
    1c4a:	41390933          	sub	s2,s2,s3
    1c4e:	4781                	li	a5,0
    1c50:	e311                	bnez	a4,1c54 <__sflush_r+0x134>
    1c52:	49dc                	lw	a5,20(a1)
    1c54:	c41c                	sw	a5,8(s0)
    1c56:	f12051e3          	blez	s2,1b58 <__sflush_r+0x38>
    1c5a:	505c                	lw	a5,36(s0)
    1c5c:	4c4c                	lw	a1,28(s0)
    1c5e:	86ca                	mv	a3,s2
    1c60:	864e                	mv	a2,s3
    1c62:	8526                	mv	a0,s1
    1c64:	9782                	jalr	a5
    1c66:	00a04763          	bgtz	a0,1c74 <__sflush_r+0x154>
    1c6a:	00c45783          	lhu	a5,12(s0)
    1c6e:	0407e793          	ori	a5,a5,64
    1c72:	bf7d                	j	1c30 <__sflush_r+0x110>
    1c74:	99aa                	add	s3,s3,a0
    1c76:	40a90933          	sub	s2,s2,a0
    1c7a:	bff1                	j	1c56 <__sflush_r+0x136>

00001c7c <_fflush_r>:
    1c7c:	1101                	addi	sp,sp,-32
    1c7e:	cc22                	sw	s0,24(sp)
    1c80:	ce06                	sw	ra,28(sp)
    1c82:	842a                	mv	s0,a0
    1c84:	c519                	beqz	a0,1c92 <_fflush_r+0x16>
    1c86:	5d1c                	lw	a5,56(a0)
    1c88:	e789                	bnez	a5,1c92 <_fflush_r+0x16>
    1c8a:	c62e                	sw	a1,12(sp)
    1c8c:	ba9fe0ef          	jal	ra,834 <__sinit>
    1c90:	45b2                	lw	a1,12(sp)
    1c92:	00c59783          	lh	a5,12(a1)
    1c96:	c791                	beqz	a5,1ca2 <_fflush_r+0x26>
    1c98:	8522                	mv	a0,s0
    1c9a:	4462                	lw	s0,24(sp)
    1c9c:	40f2                	lw	ra,28(sp)
    1c9e:	6105                	addi	sp,sp,32
    1ca0:	b541                	j	1b20 <__sflush_r>
    1ca2:	40f2                	lw	ra,28(sp)
    1ca4:	4462                	lw	s0,24(sp)
    1ca6:	4501                	li	a0,0
    1ca8:	6105                	addi	sp,sp,32
    1caa:	8082                	ret

00001cac <fflush>:
    1cac:	85aa                	mv	a1,a0
    1cae:	e909                	bnez	a0,1cc0 <fflush+0x14>
    1cb0:	0341a503          	lw	a0,52(gp) # 20083c <_global_impure_ptr>
    1cb4:	000025b7          	lui	a1,0x2
    1cb8:	c7c58593          	addi	a1,a1,-900 # 1c7c <_fflush_r>
    1cbc:	a12ff06f          	j	ece <_fwalk_reent>
    1cc0:	0381a503          	lw	a0,56(gp) # 200840 <_impure_ptr>
    1cc4:	bf65                	j	1c7c <_fflush_r>

00001cc6 <_lseek_r>:
    1cc6:	1141                	addi	sp,sp,-16
    1cc8:	c422                	sw	s0,8(sp)
    1cca:	c226                	sw	s1,4(sp)
    1ccc:	84aa                	mv	s1,a0
    1cce:	852e                	mv	a0,a1
    1cd0:	85b2                	mv	a1,a2
    1cd2:	8636                	mv	a2,a3
    1cd4:	c606                	sw	ra,12(sp)
    1cd6:	0601ac23          	sw	zero,120(gp) # 200880 <errno>
    1cda:	d76fe0ef          	jal	ra,250 <lseek>
    1cde:	57fd                	li	a5,-1
    1ce0:	00f51663          	bne	a0,a5,1cec <_lseek_r+0x26>
    1ce4:	0781a783          	lw	a5,120(gp) # 200880 <errno>
    1ce8:	c391                	beqz	a5,1cec <_lseek_r+0x26>
    1cea:	c09c                	sw	a5,0(s1)
    1cec:	40b2                	lw	ra,12(sp)
    1cee:	4422                	lw	s0,8(sp)
    1cf0:	4492                	lw	s1,4(sp)
    1cf2:	0141                	addi	sp,sp,16
    1cf4:	8082                	ret

00001cf6 <__swhatbuf_r>:
    1cf6:	711d                	addi	sp,sp,-96
    1cf8:	caa6                	sw	s1,84(sp)
    1cfa:	84ae                	mv	s1,a1
    1cfc:	00e59583          	lh	a1,14(a1)
    1d00:	cca2                	sw	s0,88(sp)
    1d02:	ce86                	sw	ra,92(sp)
    1d04:	8432                	mv	s0,a2
    1d06:	0005dc63          	bgez	a1,1d1e <__swhatbuf_r+0x28>
    1d0a:	00c4d783          	lhu	a5,12(s1)
    1d0e:	0006a023          	sw	zero,0(a3)
    1d12:	0807f793          	andi	a5,a5,128
    1d16:	eb8d                	bnez	a5,1d48 <__swhatbuf_r+0x52>
    1d18:	40000793          	li	a5,1024
    1d1c:	a805                	j	1d4c <__swhatbuf_r+0x56>
    1d1e:	0850                	addi	a2,sp,20
    1d20:	c636                	sw	a3,12(sp)
    1d22:	2219                	jal	1e28 <_fstat_r>
    1d24:	46b2                	lw	a3,12(sp)
    1d26:	fe0542e3          	bltz	a0,1d0a <__swhatbuf_r+0x14>
    1d2a:	4762                	lw	a4,24(sp)
    1d2c:	67bd                	lui	a5,0xf
    1d2e:	6505                	lui	a0,0x1
    1d30:	8ff9                	and	a5,a5,a4
    1d32:	7779                	lui	a4,0xffffe
    1d34:	97ba                	add	a5,a5,a4
    1d36:	0017b793          	seqz	a5,a5
    1d3a:	c29c                	sw	a5,0(a3)
    1d3c:	40000793          	li	a5,1024
    1d40:	c01c                	sw	a5,0(s0)
    1d42:	80050513          	addi	a0,a0,-2048 # 800 <__sfmoreglue+0x18>
    1d46:	a029                	j	1d50 <__swhatbuf_r+0x5a>
    1d48:	04000793          	li	a5,64
    1d4c:	c01c                	sw	a5,0(s0)
    1d4e:	4501                	li	a0,0
    1d50:	40f6                	lw	ra,92(sp)
    1d52:	4466                	lw	s0,88(sp)
    1d54:	44d6                	lw	s1,84(sp)
    1d56:	6125                	addi	sp,sp,96
    1d58:	8082                	ret

00001d5a <__smakebuf_r>:
    1d5a:	00c5d783          	lhu	a5,12(a1)
    1d5e:	1101                	addi	sp,sp,-32
    1d60:	cc22                	sw	s0,24(sp)
    1d62:	ce06                	sw	ra,28(sp)
    1d64:	ca26                	sw	s1,20(sp)
    1d66:	c84a                	sw	s2,16(sp)
    1d68:	8b89                	andi	a5,a5,2
    1d6a:	842e                	mv	s0,a1
    1d6c:	cf89                	beqz	a5,1d86 <__smakebuf_r+0x2c>
    1d6e:	04340793          	addi	a5,s0,67
    1d72:	c01c                	sw	a5,0(s0)
    1d74:	c81c                	sw	a5,16(s0)
    1d76:	4785                	li	a5,1
    1d78:	c85c                	sw	a5,20(s0)
    1d7a:	40f2                	lw	ra,28(sp)
    1d7c:	4462                	lw	s0,24(sp)
    1d7e:	44d2                	lw	s1,20(sp)
    1d80:	4942                	lw	s2,16(sp)
    1d82:	6105                	addi	sp,sp,32
    1d84:	8082                	ret
    1d86:	0074                	addi	a3,sp,12
    1d88:	0030                	addi	a2,sp,8
    1d8a:	84aa                	mv	s1,a0
    1d8c:	37ad                	jal	1cf6 <__swhatbuf_r>
    1d8e:	45a2                	lw	a1,8(sp)
    1d90:	892a                	mv	s2,a0
    1d92:	8526                	mv	a0,s1
    1d94:	9a6ff0ef          	jal	ra,f3a <_malloc_r>
    1d98:	ed01                	bnez	a0,1db0 <__smakebuf_r+0x56>
    1d9a:	00c41783          	lh	a5,12(s0)
    1d9e:	2007f713          	andi	a4,a5,512
    1da2:	ff61                	bnez	a4,1d7a <__smakebuf_r+0x20>
    1da4:	9bf1                	andi	a5,a5,-4
    1da6:	0027e793          	ori	a5,a5,2
    1daa:	00f41623          	sh	a5,12(s0)
    1dae:	b7c1                	j	1d6e <__smakebuf_r+0x14>
    1db0:	000007b7          	lui	a5,0x0
    1db4:	77078793          	addi	a5,a5,1904 # 770 <_cleanup_r>
    1db8:	dcdc                	sw	a5,60(s1)
    1dba:	00c45783          	lhu	a5,12(s0)
    1dbe:	c008                	sw	a0,0(s0)
    1dc0:	c808                	sw	a0,16(s0)
    1dc2:	0807e793          	ori	a5,a5,128
    1dc6:	00f41623          	sh	a5,12(s0)
    1dca:	47a2                	lw	a5,8(sp)
    1dcc:	c85c                	sw	a5,20(s0)
    1dce:	47b2                	lw	a5,12(sp)
    1dd0:	cf89                	beqz	a5,1dea <__smakebuf_r+0x90>
    1dd2:	00e41583          	lh	a1,14(s0)
    1dd6:	8526                	mv	a0,s1
    1dd8:	28bd                	jal	1e56 <_isatty_r>
    1dda:	c901                	beqz	a0,1dea <__smakebuf_r+0x90>
    1ddc:	00c45783          	lhu	a5,12(s0)
    1de0:	9bf1                	andi	a5,a5,-4
    1de2:	0017e793          	ori	a5,a5,1
    1de6:	00f41623          	sh	a5,12(s0)
    1dea:	00c45783          	lhu	a5,12(s0)
    1dee:	00f96933          	or	s2,s2,a5
    1df2:	01241623          	sh	s2,12(s0)
    1df6:	b751                	j	1d7a <__smakebuf_r+0x20>

00001df8 <_read_r>:
    1df8:	1141                	addi	sp,sp,-16
    1dfa:	c422                	sw	s0,8(sp)
    1dfc:	c226                	sw	s1,4(sp)
    1dfe:	84aa                	mv	s1,a0
    1e00:	852e                	mv	a0,a1
    1e02:	85b2                	mv	a1,a2
    1e04:	8636                	mv	a2,a3
    1e06:	c606                	sw	ra,12(sp)
    1e08:	0601ac23          	sw	zero,120(gp) # 200880 <errno>
    1e0c:	c64fe0ef          	jal	ra,270 <read>
    1e10:	57fd                	li	a5,-1
    1e12:	00f51663          	bne	a0,a5,1e1e <_read_r+0x26>
    1e16:	0781a783          	lw	a5,120(gp) # 200880 <errno>
    1e1a:	c391                	beqz	a5,1e1e <_read_r+0x26>
    1e1c:	c09c                	sw	a5,0(s1)
    1e1e:	40b2                	lw	ra,12(sp)
    1e20:	4422                	lw	s0,8(sp)
    1e22:	4492                	lw	s1,4(sp)
    1e24:	0141                	addi	sp,sp,16
    1e26:	8082                	ret

00001e28 <_fstat_r>:
    1e28:	1141                	addi	sp,sp,-16
    1e2a:	c422                	sw	s0,8(sp)
    1e2c:	c226                	sw	s1,4(sp)
    1e2e:	84aa                	mv	s1,a0
    1e30:	852e                	mv	a0,a1
    1e32:	85b2                	mv	a1,a2
    1e34:	c606                	sw	ra,12(sp)
    1e36:	0601ac23          	sw	zero,120(gp) # 200880 <errno>
    1e3a:	bbefe0ef          	jal	ra,1f8 <fstat>
    1e3e:	57fd                	li	a5,-1
    1e40:	00f51663          	bne	a0,a5,1e4c <_fstat_r+0x24>
    1e44:	0781a783          	lw	a5,120(gp) # 200880 <errno>
    1e48:	c391                	beqz	a5,1e4c <_fstat_r+0x24>
    1e4a:	c09c                	sw	a5,0(s1)
    1e4c:	40b2                	lw	ra,12(sp)
    1e4e:	4422                	lw	s0,8(sp)
    1e50:	4492                	lw	s1,4(sp)
    1e52:	0141                	addi	sp,sp,16
    1e54:	8082                	ret

00001e56 <_isatty_r>:
    1e56:	1141                	addi	sp,sp,-16
    1e58:	c422                	sw	s0,8(sp)
    1e5a:	c226                	sw	s1,4(sp)
    1e5c:	84aa                	mv	s1,a0
    1e5e:	852e                	mv	a0,a1
    1e60:	c606                	sw	ra,12(sp)
    1e62:	0601ac23          	sw	zero,120(gp) # 200880 <errno>
    1e66:	bcefe0ef          	jal	ra,234 <isatty>
    1e6a:	57fd                	li	a5,-1
    1e6c:	00f51663          	bne	a0,a5,1e78 <_isatty_r+0x22>
    1e70:	0781a783          	lw	a5,120(gp) # 200880 <errno>
    1e74:	c391                	beqz	a5,1e78 <_isatty_r+0x22>
    1e76:	c09c                	sw	a5,0(s1)
    1e78:	40b2                	lw	ra,12(sp)
    1e7a:	4422                	lw	s0,8(sp)
    1e7c:	4492                	lw	s1,4(sp)
    1e7e:	0141                	addi	sp,sp,16
    1e80:	8082                	ret

Disassembly of section .TEST_RODATA:

00001f60 <__TEST_RODATA_START>:
    1f60:	5678                	lw	a4,108(a2)
    1f62:	1234                	addi	a3,sp,296
    1f64:	cafe                	sw	t6,84(sp)
    1f66:	cafe                	sw	t6,84(sp)
    1f68:	deadbeef          	jal	t4,fffdd552 <pulp__FC+0xfffdd553>

00001f6c <OTHER_PATTERNS>:
	...

Disassembly of section .TEST_DATA:

00200000 <__TEST_DATA_START>:
  200000:	0000                	unimp
	...

Disassembly of section .Pulp_Chip.Info:

00000000 <.Pulp_Chip.Info>:
   0:	000a                	0xa
   2:	0000                	unimp
   4:	0038                	addi	a4,sp,8
   6:	0000                	unimp
   8:	0001                	nop
   a:	0000                	unimp
   c:	7550                	flw	fa2,44(a0)
   e:	706c                	flw	fa1,100(s0)
  10:	495f 666e 006f      	0x6f666e495f
  16:	70696863          	bltu	s2,t1,726 <__call_exitprocs+0x64>
  1a:	6e3d                	lui	t3,0xf
  1c:	20656e6f          	jal	t3,56222 <__TEST_RODATA_END+0x542ae>
  20:	3d757063          	bleu	s7,a0,3e0 <__libc_fini_array+0x10>
  24:	6f6e                	flw	ft10,216(sp)
  26:	656e                	flw	fa0,216(sp)
  28:	7020                	flw	fs0,96(s0)
  2a:	3d65                	jal	fffffee2 <pulp__FC+0xfffffee3>
  2c:	312d                	jal	fffffc56 <pulp__FC+0xfffffc57>
  2e:	6620                	flw	fs0,72(a2)
  30:	312d3d63          	p.bneimm	s10,-14,34a <handle_ecall+0xc>
  34:	6c20                	flw	fs0,88(s0)
  36:	3d32                	fld	fs10,296(sp)
  38:	312d                	jal	fffffc62 <pulp__FC+0xfffffc63>
  3a:	6c20                	flw	fs0,88(s0)
  3c:	6331                	lui	t1,0xc
  3e:	3d6c                	fld	fa1,248(a0)
  40:	312d                	jal	fffffc6a <pulp__FC+0xfffffc6b>
  42:	6c20                	flw	fs0,88(s0)
  44:	6631                	lui	a2,0xc
  46:	312d3d63          	p.bneimm	s10,-14,360 <handle_illegal_insn+0x2>
  4a:	0000                	unimp
	...
